ARM GAS  /tmp/cc9YnTpO.s 			page 1


   1              		.syntax unified
   2              		.cpu cortex-m3
   3              		.fpu softvfp
   4              		.eabi_attribute 20, 1
   5              		.eabi_attribute 21, 1
   6              		.eabi_attribute 23, 3
   7              		.eabi_attribute 24, 1
   8              		.eabi_attribute 25, 1
   9              		.eabi_attribute 26, 1
  10              		.eabi_attribute 30, 1
  11              		.eabi_attribute 34, 1
  12              		.eabi_attribute 18, 4
  13              		.thumb
  14              		.file	"delay.c"
  15              		.text
  16              	.Ltext0:
  17              		.cfi_sections	.debug_frame
  18              		.section	.text._init_us,"ax",%progbits
  19              		.align	2
  20              		.global	_init_us
  21              		.thumb
  22              		.thumb_func
  24              	_init_us:
  25              	.LFB63:
  26              		.file 1 "./Src/delay.c"
   1:./Src/delay.c **** #include "stm32f1xx_hal.h"
   2:./Src/delay.c **** #include <stdint.h>
   3:./Src/delay.c **** #include "delay.h"
   4:./Src/delay.c **** 
   5:./Src/delay.c **** TIM_HandleTypeDef TimHandle;
   6:./Src/delay.c **** 
   7:./Src/delay.c **** // Init timer for Microseconds delays
   8:./Src/delay.c **** void _init_us() {
  27              		.loc 1 8 0
  28              		.cfi_startproc
  29              		@ args = 0, pretend = 0, frame = 8
  30              		@ frame_needed = 0, uses_anonymous_args = 0
  31 0000 10B5     		push	{r4, lr}
  32              	.LCFI0:
  33              		.cfi_def_cfa_offset 8
  34              		.cfi_offset 4, -8
  35              		.cfi_offset 14, -4
  36 0002 82B0     		sub	sp, sp, #8
  37              	.LCFI1:
  38              		.cfi_def_cfa_offset 16
  39              	.LBB2:
   9:./Src/delay.c ****         __HAL_RCC_TIM2_CLK_ENABLE();
  40              		.loc 1 9 0
  41 0004 114B     		ldr	r3, .L3
  42 0006 DA69     		ldr	r2, [r3, #28]
  43 0008 42F00102 		orr	r2, r2, #1
  44 000c DA61     		str	r2, [r3, #28]
  45 000e DB69     		ldr	r3, [r3, #28]
  46 0010 03F00103 		and	r3, r3, #1
  47 0014 0193     		str	r3, [sp, #4]
  48 0016 019B     		ldr	r3, [sp, #4]
  49              	.LBE2:
ARM GAS  /tmp/cc9YnTpO.s 			page 2


  10:./Src/delay.c ****         TimHandle.Instance = TIM2;
  50              		.loc 1 10 0
  51 0018 0D4C     		ldr	r4, .L3+4
  52 001a 4FF08043 		mov	r3, #1073741824
  53 001e 2360     		str	r3, [r4]
  11:./Src/delay.c ****         TimHandle.Init.Period = UINT16_MAX;
  54              		.loc 1 11 0
  55 0020 4FF6FF73 		movw	r3, #65535
  56 0024 E360     		str	r3, [r4, #12]
  12:./Src/delay.c ****         TimHandle.Init.Prescaler = (SystemCoreClock/DELAY_TIM_FREQUENCY_US)-1;;
  57              		.loc 1 12 0
  58 0026 0B4B     		ldr	r3, .L3+8
  59 0028 1B68     		ldr	r3, [r3]
  60 002a 0B4A     		ldr	r2, .L3+12
  61 002c A2FB0323 		umull	r2, r3, r2, r3
  62 0030 9B0C     		lsrs	r3, r3, #18
  63 0032 013B     		subs	r3, r3, #1
  64 0034 6360     		str	r3, [r4, #4]
  13:./Src/delay.c ****         TimHandle.Init.ClockDivision = 0;
  65              		.loc 1 13 0
  66 0036 0023     		movs	r3, #0
  67 0038 2361     		str	r3, [r4, #16]
  14:./Src/delay.c ****         TimHandle.Init.CounterMode = TIM_COUNTERMODE_UP;        
  68              		.loc 1 14 0
  69 003a A360     		str	r3, [r4, #8]
  15:./Src/delay.c ****         HAL_TIM_Base_Init(&TimHandle);
  70              		.loc 1 15 0
  71 003c 2046     		mov	r0, r4
  72 003e FFF7FEFF 		bl	HAL_TIM_Base_Init
  73              	.LVL0:
  16:./Src/delay.c ****           
  17:./Src/delay.c ****         HAL_TIM_Base_Start(&TimHandle);
  74              		.loc 1 17 0
  75 0042 2046     		mov	r0, r4
  76 0044 FFF7FEFF 		bl	HAL_TIM_Base_Start
  77              	.LVL1:
  18:./Src/delay.c **** }
  78              		.loc 1 18 0
  79 0048 02B0     		add	sp, sp, #8
  80              	.LCFI2:
  81              		.cfi_def_cfa_offset 8
  82              		@ sp needed
  83 004a 10BD     		pop	{r4, pc}
  84              	.L4:
  85              		.align	2
  86              	.L3:
  87 004c 00100240 		.word	1073876992
  88 0050 00000000 		.word	TimHandle
  89 0054 00000000 		.word	SystemCoreClock
  90 0058 83DE1B43 		.word	1125899907
  91              		.cfi_endproc
  92              	.LFE63:
  94              		.section	.text._init_ms,"ax",%progbits
  95              		.align	2
  96              		.global	_init_ms
  97              		.thumb
  98              		.thumb_func
ARM GAS  /tmp/cc9YnTpO.s 			page 3


 100              	_init_ms:
 101              	.LFB64:
  19:./Src/delay.c **** 
  20:./Src/delay.c **** // Init and start timer for Milliseconds delays
  21:./Src/delay.c **** void _init_ms() {
 102              		.loc 1 21 0
 103              		.cfi_startproc
 104              		@ args = 0, pretend = 0, frame = 8
 105              		@ frame_needed = 0, uses_anonymous_args = 0
 106 0000 10B5     		push	{r4, lr}
 107              	.LCFI3:
 108              		.cfi_def_cfa_offset 8
 109              		.cfi_offset 4, -8
 110              		.cfi_offset 14, -4
 111 0002 82B0     		sub	sp, sp, #8
 112              	.LCFI4:
 113              		.cfi_def_cfa_offset 16
 114              	.LBB3:
  22:./Src/delay.c ****         __HAL_RCC_TIM2_CLK_ENABLE();
 115              		.loc 1 22 0
 116 0004 114B     		ldr	r3, .L7
 117 0006 DA69     		ldr	r2, [r3, #28]
 118 0008 42F00102 		orr	r2, r2, #1
 119 000c DA61     		str	r2, [r3, #28]
 120 000e DB69     		ldr	r3, [r3, #28]
 121 0010 03F00103 		and	r3, r3, #1
 122 0014 0193     		str	r3, [sp, #4]
 123 0016 019B     		ldr	r3, [sp, #4]
 124              	.LBE3:
  23:./Src/delay.c ****         TimHandle.Instance = TIM2;
 125              		.loc 1 23 0
 126 0018 0D4C     		ldr	r4, .L7+4
 127 001a 4FF08043 		mov	r3, #1073741824
 128 001e 2360     		str	r3, [r4]
  24:./Src/delay.c ****         TimHandle.Init.Period = UINT16_MAX;
 129              		.loc 1 24 0
 130 0020 4FF6FF73 		movw	r3, #65535
 131 0024 E360     		str	r3, [r4, #12]
  25:./Src/delay.c ****         TimHandle.Init.Prescaler = (SystemCoreClock/DELAY_TIM_FREQUENCY_MS)-1;;
 132              		.loc 1 25 0
 133 0026 0B4B     		ldr	r3, .L7+8
 134 0028 1B68     		ldr	r3, [r3]
 135 002a 0B4A     		ldr	r2, .L7+12
 136 002c A2FB0323 		umull	r2, r3, r2, r3
 137 0030 9B09     		lsrs	r3, r3, #6
 138 0032 013B     		subs	r3, r3, #1
 139 0034 6360     		str	r3, [r4, #4]
  26:./Src/delay.c ****         TimHandle.Init.ClockDivision = 0;
 140              		.loc 1 26 0
 141 0036 0023     		movs	r3, #0
 142 0038 2361     		str	r3, [r4, #16]
  27:./Src/delay.c ****         TimHandle.Init.CounterMode = TIM_COUNTERMODE_UP;        
 143              		.loc 1 27 0
 144 003a A360     		str	r3, [r4, #8]
  28:./Src/delay.c ****         HAL_TIM_Base_Init(&TimHandle);
 145              		.loc 1 28 0
 146 003c 2046     		mov	r0, r4
ARM GAS  /tmp/cc9YnTpO.s 			page 4


 147 003e FFF7FEFF 		bl	HAL_TIM_Base_Init
 148              	.LVL2:
  29:./Src/delay.c **** 
  30:./Src/delay.c ****         HAL_TIM_Base_Start(&TimHandle);       
 149              		.loc 1 30 0
 150 0042 2046     		mov	r0, r4
 151 0044 FFF7FEFF 		bl	HAL_TIM_Base_Start
 152              	.LVL3:
  31:./Src/delay.c **** }
 153              		.loc 1 31 0
 154 0048 02B0     		add	sp, sp, #8
 155              	.LCFI5:
 156              		.cfi_def_cfa_offset 8
 157              		@ sp needed
 158 004a 10BD     		pop	{r4, pc}
 159              	.L8:
 160              		.align	2
 161              	.L7:
 162 004c 00100240 		.word	1073876992
 163 0050 00000000 		.word	TimHandle
 164 0054 00000000 		.word	SystemCoreClock
 165 0058 D34D6210 		.word	274877907
 166              		.cfi_endproc
 167              	.LFE64:
 169              		.section	.text._stop_timer,"ax",%progbits
 170              		.align	2
 171              		.global	_stop_timer
 172              		.thumb
 173              		.thumb_func
 175              	_stop_timer:
 176              	.LFB65:
  32:./Src/delay.c **** 
  33:./Src/delay.c **** 
  34:./Src/delay.c **** // Stop timer
  35:./Src/delay.c **** void _stop_timer() {
 177              		.loc 1 35 0
 178              		.cfi_startproc
 179              		@ args = 0, pretend = 0, frame = 0
 180              		@ frame_needed = 0, uses_anonymous_args = 0
 181 0000 08B5     		push	{r3, lr}
 182              	.LCFI6:
 183              		.cfi_def_cfa_offset 8
 184              		.cfi_offset 3, -8
 185              		.cfi_offset 14, -4
  36:./Src/delay.c **** 	HAL_TIM_Base_Stop(&TimHandle);
 186              		.loc 1 36 0
 187 0002 0448     		ldr	r0, .L11
 188 0004 FFF7FEFF 		bl	HAL_TIM_Base_Stop
 189              	.LVL4:
  37:./Src/delay.c ****         __HAL_RCC_TIM2_CLK_DISABLE();
 190              		.loc 1 37 0
 191 0008 034A     		ldr	r2, .L11+4
 192 000a D369     		ldr	r3, [r2, #28]
 193 000c 23F00103 		bic	r3, r3, #1
 194 0010 D361     		str	r3, [r2, #28]
 195 0012 08BD     		pop	{r3, pc}
 196              	.L12:
ARM GAS  /tmp/cc9YnTpO.s 			page 5


 197              		.align	2
 198              	.L11:
 199 0014 00000000 		.word	TimHandle
 200 0018 00100240 		.word	1073876992
 201              		.cfi_endproc
 202              	.LFE65:
 204              		.section	.text.Delay_ms,"ax",%progbits
 205              		.align	2
 206              		.global	Delay_ms
 207              		.thumb
 208              		.thumb_func
 210              	Delay_ms:
 211              	.LFB66:
  38:./Src/delay.c **** }
  39:./Src/delay.c **** 
  40:./Src/delay.c **** // Do delay for nTime milliseconds
  41:./Src/delay.c **** void Delay_ms(uint32_t mSecs) {
 212              		.loc 1 41 0
 213              		.cfi_startproc
 214              		@ args = 0, pretend = 0, frame = 0
 215              		@ frame_needed = 0, uses_anonymous_args = 0
 216              	.LVL5:
 217 0000 10B5     		push	{r4, lr}
 218              	.LCFI7:
 219              		.cfi_def_cfa_offset 8
 220              		.cfi_offset 4, -8
 221              		.cfi_offset 14, -4
 222 0002 0446     		mov	r4, r0
  42:./Src/delay.c **** 	// Init and start timer
  43:./Src/delay.c **** 	_init_ms();
 223              		.loc 1 43 0
 224 0004 FFF7FEFF 		bl	_init_ms
 225              	.LVL6:
  44:./Src/delay.c **** 
  45:./Src/delay.c **** 	// Dummy loop with 16 bit count wrap around
  46:./Src/delay.c **** 	uint32_t start = TIM2->CNT;
 226              		.loc 1 46 0
 227 0008 4FF08043 		mov	r3, #1073741824
 228 000c 5A6A     		ldr	r2, [r3, #36]
 229              	.LVL7:
 230              	.L14:
  47:./Src/delay.c **** 	while((TIM2->CNT-start) <= mSecs);
 231              		.loc 1 47 0 discriminator 1
 232 000e 4FF08043 		mov	r3, #1073741824
 233 0012 5B6A     		ldr	r3, [r3, #36]
 234 0014 9B1A     		subs	r3, r3, r2
 235 0016 A342     		cmp	r3, r4
 236 0018 F9D9     		bls	.L14
  48:./Src/delay.c **** 
  49:./Src/delay.c **** 	// Stop timer
  50:./Src/delay.c **** 	_stop_timer();
 237              		.loc 1 50 0
 238 001a FFF7FEFF 		bl	_stop_timer
 239              	.LVL8:
 240 001e 10BD     		pop	{r4, pc}
 241              		.cfi_endproc
 242              	.LFE66:
ARM GAS  /tmp/cc9YnTpO.s 			page 6


 244              		.section	.text.Delay_us,"ax",%progbits
 245              		.align	2
 246              		.global	Delay_us
 247              		.thumb
 248              		.thumb_func
 250              	Delay_us:
 251              	.LFB67:
  51:./Src/delay.c **** }
  52:./Src/delay.c **** 
  53:./Src/delay.c **** // Do delay for nTime microseconds
  54:./Src/delay.c **** void Delay_us(uint32_t uSecs) {
 252              		.loc 1 54 0
 253              		.cfi_startproc
 254              		@ args = 0, pretend = 0, frame = 0
 255              		@ frame_needed = 0, uses_anonymous_args = 0
 256              	.LVL9:
 257 0000 10B5     		push	{r4, lr}
 258              	.LCFI8:
 259              		.cfi_def_cfa_offset 8
 260              		.cfi_offset 4, -8
 261              		.cfi_offset 14, -4
 262 0002 0446     		mov	r4, r0
  55:./Src/delay.c **** 	// Init and start timer
  56:./Src/delay.c **** 	_init_us();
 263              		.loc 1 56 0
 264 0004 FFF7FEFF 		bl	_init_us
 265              	.LVL10:
  57:./Src/delay.c **** 
  58:./Src/delay.c **** 	// Dummy loop with 16 bit count wrap around
  59:./Src/delay.c **** 	uint32_t start = TIM2->CNT;
 266              		.loc 1 59 0
 267 0008 4FF08043 		mov	r3, #1073741824
 268 000c 5A6A     		ldr	r2, [r3, #36]
 269              	.LVL11:
 270              	.L17:
  60:./Src/delay.c **** 	while((TIM2->CNT-start) <= uSecs);
 271              		.loc 1 60 0 discriminator 1
 272 000e 4FF08043 		mov	r3, #1073741824
 273 0012 5B6A     		ldr	r3, [r3, #36]
 274 0014 9B1A     		subs	r3, r3, r2
 275 0016 A342     		cmp	r3, r4
 276 0018 F9D9     		bls	.L17
  61:./Src/delay.c **** 
  62:./Src/delay.c **** 	// Stop timer
  63:./Src/delay.c **** 	_stop_timer();
 277              		.loc 1 63 0
 278 001a FFF7FEFF 		bl	_stop_timer
 279              	.LVL12:
 280 001e 10BD     		pop	{r4, pc}
 281              		.cfi_endproc
 282              	.LFE67:
 284              		.comm	TimHandle,60,4
 285              		.text
 286              	.Letext0:
 287              		.file 2 "/usr/include/newlib/machine/_default_types.h"
 288              		.file 3 "/usr/include/newlib/sys/_stdint.h"
 289              		.file 4 "./Drivers/CMSIS/Device/ST/STM32F1xx/Include/stm32f103xe.h"
ARM GAS  /tmp/cc9YnTpO.s 			page 7


 290              		.file 5 "./Drivers/STM32F1xx_HAL_Driver/Inc/stm32f1xx_hal_def.h"
 291              		.file 6 "./Drivers/STM32F1xx_HAL_Driver/Inc/stm32f1xx_hal_dma.h"
 292              		.file 7 "./Drivers/STM32F1xx_HAL_Driver/Inc/stm32f1xx_hal_tim.h"
 293              		.file 8 "./Drivers/CMSIS/Include/core_cm3.h"
 294              		.file 9 "./Drivers/CMSIS/Device/ST/STM32F1xx/Include/system_stm32f1xx.h"
ARM GAS  /tmp/cc9YnTpO.s 			page 8

