ARM GAS  /tmp/cc24Z0QC.s 			page 1


   1              		.syntax unified
   2              		.cpu cortex-m3
   3              		.fpu softvfp
   4              		.eabi_attribute 20, 1
   5              		.eabi_attribute 21, 1
   6              		.eabi_attribute 23, 3
   7              		.eabi_attribute 24, 1
   8              		.eabi_attribute 25, 1
   9              		.eabi_attribute 26, 1
  10              		.eabi_attribute 30, 1
  11              		.eabi_attribute 34, 1
  12              		.eabi_attribute 18, 4
  13              		.thumb
  14              		.file	"stm32f1xx_hal_flash.c"
  15              		.text
  16              	.Ltext0:
  17              		.cfi_sections	.debug_frame
  18              		.section	.text.FLASH_Program_HalfWord,"ax",%progbits
  19              		.align	2
  20              		.thumb
  21              		.thumb_func
  23              	FLASH_Program_HalfWord:
  24              	.LFB74:
  25              		.file 1 "./Drivers/STM32F1xx_HAL_Driver/Src/stm32f1xx_hal_flash.c"
   1:./Drivers/STM32F1xx_HAL_Driver/Src/stm32f1xx_hal_flash.c **** /**
   2:./Drivers/STM32F1xx_HAL_Driver/Src/stm32f1xx_hal_flash.c ****   ******************************************************************************
   3:./Drivers/STM32F1xx_HAL_Driver/Src/stm32f1xx_hal_flash.c ****   * @file    stm32f1xx_hal_flash.c
   4:./Drivers/STM32F1xx_HAL_Driver/Src/stm32f1xx_hal_flash.c ****   * @author  MCD Application Team
   5:./Drivers/STM32F1xx_HAL_Driver/Src/stm32f1xx_hal_flash.c ****   * @version V1.0.4
   6:./Drivers/STM32F1xx_HAL_Driver/Src/stm32f1xx_hal_flash.c ****   * @date    29-April-2016
   7:./Drivers/STM32F1xx_HAL_Driver/Src/stm32f1xx_hal_flash.c ****   * @brief   FLASH HAL module driver.
   8:./Drivers/STM32F1xx_HAL_Driver/Src/stm32f1xx_hal_flash.c ****   *          This file provides firmware functions to manage the following 
   9:./Drivers/STM32F1xx_HAL_Driver/Src/stm32f1xx_hal_flash.c ****   *          functionalities of the internal FLASH memory:
  10:./Drivers/STM32F1xx_HAL_Driver/Src/stm32f1xx_hal_flash.c ****   *           + Program operations functions
  11:./Drivers/STM32F1xx_HAL_Driver/Src/stm32f1xx_hal_flash.c ****   *           + Memory Control functions 
  12:./Drivers/STM32F1xx_HAL_Driver/Src/stm32f1xx_hal_flash.c ****   *           + Peripheral State functions
  13:./Drivers/STM32F1xx_HAL_Driver/Src/stm32f1xx_hal_flash.c ****   *         
  14:./Drivers/STM32F1xx_HAL_Driver/Src/stm32f1xx_hal_flash.c ****   @verbatim
  15:./Drivers/STM32F1xx_HAL_Driver/Src/stm32f1xx_hal_flash.c ****   ==============================================================================
  16:./Drivers/STM32F1xx_HAL_Driver/Src/stm32f1xx_hal_flash.c ****                         ##### FLASH peripheral features #####
  17:./Drivers/STM32F1xx_HAL_Driver/Src/stm32f1xx_hal_flash.c ****   ==============================================================================
  18:./Drivers/STM32F1xx_HAL_Driver/Src/stm32f1xx_hal_flash.c ****   [..] The Flash memory interface manages CPU AHB I-Code and D-Code accesses 
  19:./Drivers/STM32F1xx_HAL_Driver/Src/stm32f1xx_hal_flash.c ****        to the Flash memory. It implements the erase and program Flash memory operations 
  20:./Drivers/STM32F1xx_HAL_Driver/Src/stm32f1xx_hal_flash.c ****        and the read and write protection mechanisms.
  21:./Drivers/STM32F1xx_HAL_Driver/Src/stm32f1xx_hal_flash.c **** 
  22:./Drivers/STM32F1xx_HAL_Driver/Src/stm32f1xx_hal_flash.c ****   [..] The Flash memory interface accelerates code execution with a system of instruction
  23:./Drivers/STM32F1xx_HAL_Driver/Src/stm32f1xx_hal_flash.c ****       prefetch. 
  24:./Drivers/STM32F1xx_HAL_Driver/Src/stm32f1xx_hal_flash.c **** 
  25:./Drivers/STM32F1xx_HAL_Driver/Src/stm32f1xx_hal_flash.c ****   [..] The FLASH main features are:
  26:./Drivers/STM32F1xx_HAL_Driver/Src/stm32f1xx_hal_flash.c ****       (+) Flash memory read operations
  27:./Drivers/STM32F1xx_HAL_Driver/Src/stm32f1xx_hal_flash.c ****       (+) Flash memory program/erase operations
  28:./Drivers/STM32F1xx_HAL_Driver/Src/stm32f1xx_hal_flash.c ****       (+) Read / write protections
  29:./Drivers/STM32F1xx_HAL_Driver/Src/stm32f1xx_hal_flash.c ****       (+) Prefetch on I-Code
  30:./Drivers/STM32F1xx_HAL_Driver/Src/stm32f1xx_hal_flash.c ****       (+) Option Bytes programming
  31:./Drivers/STM32F1xx_HAL_Driver/Src/stm32f1xx_hal_flash.c **** 
  32:./Drivers/STM32F1xx_HAL_Driver/Src/stm32f1xx_hal_flash.c **** 
  33:./Drivers/STM32F1xx_HAL_Driver/Src/stm32f1xx_hal_flash.c ****                      ##### How to use this driver #####
ARM GAS  /tmp/cc24Z0QC.s 			page 2


  34:./Drivers/STM32F1xx_HAL_Driver/Src/stm32f1xx_hal_flash.c ****   ==============================================================================
  35:./Drivers/STM32F1xx_HAL_Driver/Src/stm32f1xx_hal_flash.c ****   [..]                             
  36:./Drivers/STM32F1xx_HAL_Driver/Src/stm32f1xx_hal_flash.c ****       This driver provides functions and macros to configure and program the FLASH 
  37:./Drivers/STM32F1xx_HAL_Driver/Src/stm32f1xx_hal_flash.c ****       memory of all STM32F1xx devices.
  38:./Drivers/STM32F1xx_HAL_Driver/Src/stm32f1xx_hal_flash.c ****     
  39:./Drivers/STM32F1xx_HAL_Driver/Src/stm32f1xx_hal_flash.c ****       (#) FLASH Memory I/O Programming functions: this group includes all needed
  40:./Drivers/STM32F1xx_HAL_Driver/Src/stm32f1xx_hal_flash.c ****           functions to erase and program the main memory:
  41:./Drivers/STM32F1xx_HAL_Driver/Src/stm32f1xx_hal_flash.c ****         (++) Lock and Unlock the FLASH interface
  42:./Drivers/STM32F1xx_HAL_Driver/Src/stm32f1xx_hal_flash.c ****         (++) Erase function: Erase page, erase all pages
  43:./Drivers/STM32F1xx_HAL_Driver/Src/stm32f1xx_hal_flash.c ****         (++) Program functions: half word, word and doubleword
  44:./Drivers/STM32F1xx_HAL_Driver/Src/stm32f1xx_hal_flash.c ****     
  45:./Drivers/STM32F1xx_HAL_Driver/Src/stm32f1xx_hal_flash.c ****       (#) FLASH Option Bytes Programming functions: this group includes all needed
  46:./Drivers/STM32F1xx_HAL_Driver/Src/stm32f1xx_hal_flash.c ****           functions to manage the Option Bytes:
  47:./Drivers/STM32F1xx_HAL_Driver/Src/stm32f1xx_hal_flash.c ****         (++) Lock and Unlock the Option Bytes
  48:./Drivers/STM32F1xx_HAL_Driver/Src/stm32f1xx_hal_flash.c ****         (++) Set/Reset the write protection
  49:./Drivers/STM32F1xx_HAL_Driver/Src/stm32f1xx_hal_flash.c ****         (++) Set the Read protection Level
  50:./Drivers/STM32F1xx_HAL_Driver/Src/stm32f1xx_hal_flash.c ****         (++) Program the user Option Bytes
  51:./Drivers/STM32F1xx_HAL_Driver/Src/stm32f1xx_hal_flash.c ****         (++) Launch the Option Bytes loader
  52:./Drivers/STM32F1xx_HAL_Driver/Src/stm32f1xx_hal_flash.c ****         (++) Erase Option Bytes
  53:./Drivers/STM32F1xx_HAL_Driver/Src/stm32f1xx_hal_flash.c ****         (++) Program the data Option Bytes
  54:./Drivers/STM32F1xx_HAL_Driver/Src/stm32f1xx_hal_flash.c ****         (++) Get the Write protection.
  55:./Drivers/STM32F1xx_HAL_Driver/Src/stm32f1xx_hal_flash.c ****         (++) Get the user option bytes.
  56:./Drivers/STM32F1xx_HAL_Driver/Src/stm32f1xx_hal_flash.c ****     
  57:./Drivers/STM32F1xx_HAL_Driver/Src/stm32f1xx_hal_flash.c ****       (#) Interrupts and flags management functions : this group 
  58:./Drivers/STM32F1xx_HAL_Driver/Src/stm32f1xx_hal_flash.c ****           includes all needed functions to:
  59:./Drivers/STM32F1xx_HAL_Driver/Src/stm32f1xx_hal_flash.c ****         (++) Handle FLASH interrupts
  60:./Drivers/STM32F1xx_HAL_Driver/Src/stm32f1xx_hal_flash.c ****         (++) Wait for last FLASH operation according to its status
  61:./Drivers/STM32F1xx_HAL_Driver/Src/stm32f1xx_hal_flash.c ****         (++) Get error flag status           
  62:./Drivers/STM32F1xx_HAL_Driver/Src/stm32f1xx_hal_flash.c **** 
  63:./Drivers/STM32F1xx_HAL_Driver/Src/stm32f1xx_hal_flash.c ****   [..] In addition to these function, this driver includes a set of macros allowing
  64:./Drivers/STM32F1xx_HAL_Driver/Src/stm32f1xx_hal_flash.c ****        to handle the following operations:
  65:./Drivers/STM32F1xx_HAL_Driver/Src/stm32f1xx_hal_flash.c ****       
  66:./Drivers/STM32F1xx_HAL_Driver/Src/stm32f1xx_hal_flash.c ****       (+) Set/Get the latency
  67:./Drivers/STM32F1xx_HAL_Driver/Src/stm32f1xx_hal_flash.c ****       (+) Enable/Disable the prefetch buffer
  68:./Drivers/STM32F1xx_HAL_Driver/Src/stm32f1xx_hal_flash.c ****       (+) Enable/Disable the half cycle access
  69:./Drivers/STM32F1xx_HAL_Driver/Src/stm32f1xx_hal_flash.c ****       (+) Enable/Disable the FLASH interrupts
  70:./Drivers/STM32F1xx_HAL_Driver/Src/stm32f1xx_hal_flash.c ****       (+) Monitor the FLASH flags status
  71:./Drivers/STM32F1xx_HAL_Driver/Src/stm32f1xx_hal_flash.c ****           
  72:./Drivers/STM32F1xx_HAL_Driver/Src/stm32f1xx_hal_flash.c ****   @endverbatim
  73:./Drivers/STM32F1xx_HAL_Driver/Src/stm32f1xx_hal_flash.c ****   ******************************************************************************
  74:./Drivers/STM32F1xx_HAL_Driver/Src/stm32f1xx_hal_flash.c ****   * @attention
  75:./Drivers/STM32F1xx_HAL_Driver/Src/stm32f1xx_hal_flash.c ****   *
  76:./Drivers/STM32F1xx_HAL_Driver/Src/stm32f1xx_hal_flash.c ****   * <h2><center>&copy; COPYRIGHT(c) 2016 STMicroelectronics</center></h2>
  77:./Drivers/STM32F1xx_HAL_Driver/Src/stm32f1xx_hal_flash.c ****   *
  78:./Drivers/STM32F1xx_HAL_Driver/Src/stm32f1xx_hal_flash.c ****   * Redistribution and use in source and binary forms, with or without modification,
  79:./Drivers/STM32F1xx_HAL_Driver/Src/stm32f1xx_hal_flash.c ****   * are permitted provided that the following conditions are met:
  80:./Drivers/STM32F1xx_HAL_Driver/Src/stm32f1xx_hal_flash.c ****   *   1. Redistributions of source code must retain the above copyright notice,
  81:./Drivers/STM32F1xx_HAL_Driver/Src/stm32f1xx_hal_flash.c ****   *      this list of conditions and the following disclaimer.
  82:./Drivers/STM32F1xx_HAL_Driver/Src/stm32f1xx_hal_flash.c ****   *   2. Redistributions in binary form must reproduce the above copyright notice,
  83:./Drivers/STM32F1xx_HAL_Driver/Src/stm32f1xx_hal_flash.c ****   *      this list of conditions and the following disclaimer in the documentation
  84:./Drivers/STM32F1xx_HAL_Driver/Src/stm32f1xx_hal_flash.c ****   *      and/or other materials provided with the distribution.
  85:./Drivers/STM32F1xx_HAL_Driver/Src/stm32f1xx_hal_flash.c ****   *   3. Neither the name of STMicroelectronics nor the names of its contributors
  86:./Drivers/STM32F1xx_HAL_Driver/Src/stm32f1xx_hal_flash.c ****   *      may be used to endorse or promote products derived from this software
  87:./Drivers/STM32F1xx_HAL_Driver/Src/stm32f1xx_hal_flash.c ****   *      without specific prior written permission.
  88:./Drivers/STM32F1xx_HAL_Driver/Src/stm32f1xx_hal_flash.c ****   *
  89:./Drivers/STM32F1xx_HAL_Driver/Src/stm32f1xx_hal_flash.c ****   * THIS SOFTWARE IS PROVIDED BY THE COPYRIGHT HOLDERS AND CONTRIBUTORS "AS IS"
  90:./Drivers/STM32F1xx_HAL_Driver/Src/stm32f1xx_hal_flash.c ****   * AND ANY EXPRESS OR IMPLIED WARRANTIES, INCLUDING, BUT NOT LIMITED TO, THE
ARM GAS  /tmp/cc24Z0QC.s 			page 3


  91:./Drivers/STM32F1xx_HAL_Driver/Src/stm32f1xx_hal_flash.c ****   * IMPLIED WARRANTIES OF MERCHANTABILITY AND FITNESS FOR A PARTICULAR PURPOSE ARE
  92:./Drivers/STM32F1xx_HAL_Driver/Src/stm32f1xx_hal_flash.c ****   * DISCLAIMED. IN NO EVENT SHALL THE COPYRIGHT HOLDER OR CONTRIBUTORS BE LIABLE
  93:./Drivers/STM32F1xx_HAL_Driver/Src/stm32f1xx_hal_flash.c ****   * FOR ANY DIRECT, INDIRECT, INCIDENTAL, SPECIAL, EXEMPLARY, OR CONSEQUENTIAL
  94:./Drivers/STM32F1xx_HAL_Driver/Src/stm32f1xx_hal_flash.c ****   * DAMAGES (INCLUDING, BUT NOT LIMITED TO, PROCUREMENT OF SUBSTITUTE GOODS OR
  95:./Drivers/STM32F1xx_HAL_Driver/Src/stm32f1xx_hal_flash.c ****   * SERVICES; LOSS OF USE, DATA, OR PROFITS; OR BUSINESS INTERRUPTION) HOWEVER
  96:./Drivers/STM32F1xx_HAL_Driver/Src/stm32f1xx_hal_flash.c ****   * CAUSED AND ON ANY THEORY OF LIABILITY, WHETHER IN CONTRACT, STRICT LIABILITY,
  97:./Drivers/STM32F1xx_HAL_Driver/Src/stm32f1xx_hal_flash.c ****   * OR TORT (INCLUDING NEGLIGENCE OR OTHERWISE) ARISING IN ANY WAY OUT OF THE USE
  98:./Drivers/STM32F1xx_HAL_Driver/Src/stm32f1xx_hal_flash.c ****   * OF THIS SOFTWARE, EVEN IF ADVISED OF THE POSSIBILITY OF SUCH DAMAGE.
  99:./Drivers/STM32F1xx_HAL_Driver/Src/stm32f1xx_hal_flash.c ****   *
 100:./Drivers/STM32F1xx_HAL_Driver/Src/stm32f1xx_hal_flash.c ****   ******************************************************************************  
 101:./Drivers/STM32F1xx_HAL_Driver/Src/stm32f1xx_hal_flash.c ****   */
 102:./Drivers/STM32F1xx_HAL_Driver/Src/stm32f1xx_hal_flash.c **** 
 103:./Drivers/STM32F1xx_HAL_Driver/Src/stm32f1xx_hal_flash.c **** /* Includes ------------------------------------------------------------------*/
 104:./Drivers/STM32F1xx_HAL_Driver/Src/stm32f1xx_hal_flash.c **** #include "stm32f1xx_hal.h"
 105:./Drivers/STM32F1xx_HAL_Driver/Src/stm32f1xx_hal_flash.c **** 
 106:./Drivers/STM32F1xx_HAL_Driver/Src/stm32f1xx_hal_flash.c **** /** @addtogroup STM32F1xx_HAL_Driver
 107:./Drivers/STM32F1xx_HAL_Driver/Src/stm32f1xx_hal_flash.c ****   * @{
 108:./Drivers/STM32F1xx_HAL_Driver/Src/stm32f1xx_hal_flash.c ****   */
 109:./Drivers/STM32F1xx_HAL_Driver/Src/stm32f1xx_hal_flash.c **** 
 110:./Drivers/STM32F1xx_HAL_Driver/Src/stm32f1xx_hal_flash.c **** #ifdef HAL_FLASH_MODULE_ENABLED
 111:./Drivers/STM32F1xx_HAL_Driver/Src/stm32f1xx_hal_flash.c **** 
 112:./Drivers/STM32F1xx_HAL_Driver/Src/stm32f1xx_hal_flash.c **** /** @defgroup FLASH FLASH
 113:./Drivers/STM32F1xx_HAL_Driver/Src/stm32f1xx_hal_flash.c ****   * @brief FLASH HAL module driver
 114:./Drivers/STM32F1xx_HAL_Driver/Src/stm32f1xx_hal_flash.c ****   * @{
 115:./Drivers/STM32F1xx_HAL_Driver/Src/stm32f1xx_hal_flash.c ****   */
 116:./Drivers/STM32F1xx_HAL_Driver/Src/stm32f1xx_hal_flash.c **** 
 117:./Drivers/STM32F1xx_HAL_Driver/Src/stm32f1xx_hal_flash.c **** /* Private typedef -----------------------------------------------------------*/
 118:./Drivers/STM32F1xx_HAL_Driver/Src/stm32f1xx_hal_flash.c **** /* Private define ------------------------------------------------------------*/
 119:./Drivers/STM32F1xx_HAL_Driver/Src/stm32f1xx_hal_flash.c **** /** @defgroup FLASH_Private_Constants FLASH Private Constants
 120:./Drivers/STM32F1xx_HAL_Driver/Src/stm32f1xx_hal_flash.c ****   * @{
 121:./Drivers/STM32F1xx_HAL_Driver/Src/stm32f1xx_hal_flash.c ****   */
 122:./Drivers/STM32F1xx_HAL_Driver/Src/stm32f1xx_hal_flash.c **** /**
 123:./Drivers/STM32F1xx_HAL_Driver/Src/stm32f1xx_hal_flash.c ****   * @}
 124:./Drivers/STM32F1xx_HAL_Driver/Src/stm32f1xx_hal_flash.c ****   */
 125:./Drivers/STM32F1xx_HAL_Driver/Src/stm32f1xx_hal_flash.c **** 
 126:./Drivers/STM32F1xx_HAL_Driver/Src/stm32f1xx_hal_flash.c **** /* Private macro ---------------------------- ---------------------------------*/
 127:./Drivers/STM32F1xx_HAL_Driver/Src/stm32f1xx_hal_flash.c **** /** @defgroup FLASH_Private_Macros FLASH Private Macros
 128:./Drivers/STM32F1xx_HAL_Driver/Src/stm32f1xx_hal_flash.c ****   * @{
 129:./Drivers/STM32F1xx_HAL_Driver/Src/stm32f1xx_hal_flash.c ****   */
 130:./Drivers/STM32F1xx_HAL_Driver/Src/stm32f1xx_hal_flash.c ****  
 131:./Drivers/STM32F1xx_HAL_Driver/Src/stm32f1xx_hal_flash.c **** /**
 132:./Drivers/STM32F1xx_HAL_Driver/Src/stm32f1xx_hal_flash.c ****   * @}
 133:./Drivers/STM32F1xx_HAL_Driver/Src/stm32f1xx_hal_flash.c ****   */
 134:./Drivers/STM32F1xx_HAL_Driver/Src/stm32f1xx_hal_flash.c **** 
 135:./Drivers/STM32F1xx_HAL_Driver/Src/stm32f1xx_hal_flash.c **** /* Private variables ---------------------------------------------------------*/
 136:./Drivers/STM32F1xx_HAL_Driver/Src/stm32f1xx_hal_flash.c **** /** @defgroup FLASH_Private_Variables FLASH Private Variables
 137:./Drivers/STM32F1xx_HAL_Driver/Src/stm32f1xx_hal_flash.c ****   * @{
 138:./Drivers/STM32F1xx_HAL_Driver/Src/stm32f1xx_hal_flash.c ****   */
 139:./Drivers/STM32F1xx_HAL_Driver/Src/stm32f1xx_hal_flash.c **** /* Variables used for Erase pages under interruption*/
 140:./Drivers/STM32F1xx_HAL_Driver/Src/stm32f1xx_hal_flash.c **** FLASH_ProcessTypeDef pFlash;
 141:./Drivers/STM32F1xx_HAL_Driver/Src/stm32f1xx_hal_flash.c **** /**
 142:./Drivers/STM32F1xx_HAL_Driver/Src/stm32f1xx_hal_flash.c ****   * @}
 143:./Drivers/STM32F1xx_HAL_Driver/Src/stm32f1xx_hal_flash.c ****   */
 144:./Drivers/STM32F1xx_HAL_Driver/Src/stm32f1xx_hal_flash.c **** 
 145:./Drivers/STM32F1xx_HAL_Driver/Src/stm32f1xx_hal_flash.c **** /* Private function prototypes -----------------------------------------------*/
 146:./Drivers/STM32F1xx_HAL_Driver/Src/stm32f1xx_hal_flash.c **** /** @defgroup FLASH_Private_Functions FLASH Private Functions
 147:./Drivers/STM32F1xx_HAL_Driver/Src/stm32f1xx_hal_flash.c ****   * @{
ARM GAS  /tmp/cc24Z0QC.s 			page 4


 148:./Drivers/STM32F1xx_HAL_Driver/Src/stm32f1xx_hal_flash.c ****   */
 149:./Drivers/STM32F1xx_HAL_Driver/Src/stm32f1xx_hal_flash.c **** static  void   FLASH_Program_HalfWord(uint32_t Address, uint16_t Data);
 150:./Drivers/STM32F1xx_HAL_Driver/Src/stm32f1xx_hal_flash.c **** static  void   FLASH_SetErrorCode(void);
 151:./Drivers/STM32F1xx_HAL_Driver/Src/stm32f1xx_hal_flash.c **** /**
 152:./Drivers/STM32F1xx_HAL_Driver/Src/stm32f1xx_hal_flash.c ****   * @}
 153:./Drivers/STM32F1xx_HAL_Driver/Src/stm32f1xx_hal_flash.c ****   */
 154:./Drivers/STM32F1xx_HAL_Driver/Src/stm32f1xx_hal_flash.c **** 
 155:./Drivers/STM32F1xx_HAL_Driver/Src/stm32f1xx_hal_flash.c **** /* Exported functions ---------------------------------------------------------*/
 156:./Drivers/STM32F1xx_HAL_Driver/Src/stm32f1xx_hal_flash.c **** /** @defgroup FLASH_Exported_Functions FLASH Exported Functions
 157:./Drivers/STM32F1xx_HAL_Driver/Src/stm32f1xx_hal_flash.c ****   * @{
 158:./Drivers/STM32F1xx_HAL_Driver/Src/stm32f1xx_hal_flash.c ****   */
 159:./Drivers/STM32F1xx_HAL_Driver/Src/stm32f1xx_hal_flash.c ****   
 160:./Drivers/STM32F1xx_HAL_Driver/Src/stm32f1xx_hal_flash.c **** /** @defgroup FLASH_Exported_Functions_Group1 Programming operation functions 
 161:./Drivers/STM32F1xx_HAL_Driver/Src/stm32f1xx_hal_flash.c ****   *  @brief   Programming operation functions 
 162:./Drivers/STM32F1xx_HAL_Driver/Src/stm32f1xx_hal_flash.c ****   *
 163:./Drivers/STM32F1xx_HAL_Driver/Src/stm32f1xx_hal_flash.c **** @verbatim   
 164:./Drivers/STM32F1xx_HAL_Driver/Src/stm32f1xx_hal_flash.c **** @endverbatim
 165:./Drivers/STM32F1xx_HAL_Driver/Src/stm32f1xx_hal_flash.c ****   * @{
 166:./Drivers/STM32F1xx_HAL_Driver/Src/stm32f1xx_hal_flash.c ****   */
 167:./Drivers/STM32F1xx_HAL_Driver/Src/stm32f1xx_hal_flash.c **** 
 168:./Drivers/STM32F1xx_HAL_Driver/Src/stm32f1xx_hal_flash.c **** /**
 169:./Drivers/STM32F1xx_HAL_Driver/Src/stm32f1xx_hal_flash.c ****   * @brief  Program halfword, word or double word at a specified address
 170:./Drivers/STM32F1xx_HAL_Driver/Src/stm32f1xx_hal_flash.c ****   * @note   The function HAL_FLASH_Unlock() should be called before to unlock the FLASH interface
 171:./Drivers/STM32F1xx_HAL_Driver/Src/stm32f1xx_hal_flash.c ****   *         The function HAL_FLASH_Lock() should be called after to lock the FLASH interface
 172:./Drivers/STM32F1xx_HAL_Driver/Src/stm32f1xx_hal_flash.c ****   *
 173:./Drivers/STM32F1xx_HAL_Driver/Src/stm32f1xx_hal_flash.c ****   * @note   If an erase and a program operations are requested simultaneously,    
 174:./Drivers/STM32F1xx_HAL_Driver/Src/stm32f1xx_hal_flash.c ****   *         the erase operation is performed before the program one.
 175:./Drivers/STM32F1xx_HAL_Driver/Src/stm32f1xx_hal_flash.c ****   *  
 176:./Drivers/STM32F1xx_HAL_Driver/Src/stm32f1xx_hal_flash.c ****   * @note   FLASH should be previously erased before new programmation (only exception to this 
 177:./Drivers/STM32F1xx_HAL_Driver/Src/stm32f1xx_hal_flash.c ****   *         is when 0x0000 is programmed)
 178:./Drivers/STM32F1xx_HAL_Driver/Src/stm32f1xx_hal_flash.c ****   *
 179:./Drivers/STM32F1xx_HAL_Driver/Src/stm32f1xx_hal_flash.c ****   * @param  TypeProgram:  Indicate the way to program at a specified address.
 180:./Drivers/STM32F1xx_HAL_Driver/Src/stm32f1xx_hal_flash.c ****   *                       This parameter can be a value of @ref FLASH_Type_Program
 181:./Drivers/STM32F1xx_HAL_Driver/Src/stm32f1xx_hal_flash.c ****   * @param  Address:      Specifies the address to be programmed.
 182:./Drivers/STM32F1xx_HAL_Driver/Src/stm32f1xx_hal_flash.c ****   * @param  Data:         Specifies the data to be programmed
 183:./Drivers/STM32F1xx_HAL_Driver/Src/stm32f1xx_hal_flash.c ****   * 
 184:./Drivers/STM32F1xx_HAL_Driver/Src/stm32f1xx_hal_flash.c ****   * @retval HAL_StatusTypeDef HAL Status
 185:./Drivers/STM32F1xx_HAL_Driver/Src/stm32f1xx_hal_flash.c ****   */
 186:./Drivers/STM32F1xx_HAL_Driver/Src/stm32f1xx_hal_flash.c **** HAL_StatusTypeDef HAL_FLASH_Program(uint32_t TypeProgram, uint32_t Address, uint64_t Data)
 187:./Drivers/STM32F1xx_HAL_Driver/Src/stm32f1xx_hal_flash.c **** {
 188:./Drivers/STM32F1xx_HAL_Driver/Src/stm32f1xx_hal_flash.c ****   HAL_StatusTypeDef status = HAL_ERROR;
 189:./Drivers/STM32F1xx_HAL_Driver/Src/stm32f1xx_hal_flash.c ****   uint8_t index = 0;
 190:./Drivers/STM32F1xx_HAL_Driver/Src/stm32f1xx_hal_flash.c ****   uint8_t nbiterations = 0;
 191:./Drivers/STM32F1xx_HAL_Driver/Src/stm32f1xx_hal_flash.c ****   
 192:./Drivers/STM32F1xx_HAL_Driver/Src/stm32f1xx_hal_flash.c ****   /* Process Locked */
 193:./Drivers/STM32F1xx_HAL_Driver/Src/stm32f1xx_hal_flash.c ****   __HAL_LOCK(&pFlash);
 194:./Drivers/STM32F1xx_HAL_Driver/Src/stm32f1xx_hal_flash.c **** 
 195:./Drivers/STM32F1xx_HAL_Driver/Src/stm32f1xx_hal_flash.c ****   /* Check the parameters */
 196:./Drivers/STM32F1xx_HAL_Driver/Src/stm32f1xx_hal_flash.c ****   assert_param(IS_FLASH_TYPEPROGRAM(TypeProgram));
 197:./Drivers/STM32F1xx_HAL_Driver/Src/stm32f1xx_hal_flash.c ****   assert_param(IS_FLASH_PROGRAM_ADDRESS(Address));
 198:./Drivers/STM32F1xx_HAL_Driver/Src/stm32f1xx_hal_flash.c **** 
 199:./Drivers/STM32F1xx_HAL_Driver/Src/stm32f1xx_hal_flash.c **** #if defined(FLASH_BANK2_END)
 200:./Drivers/STM32F1xx_HAL_Driver/Src/stm32f1xx_hal_flash.c ****   if(Address <= FLASH_BANK1_END)
 201:./Drivers/STM32F1xx_HAL_Driver/Src/stm32f1xx_hal_flash.c ****   {
 202:./Drivers/STM32F1xx_HAL_Driver/Src/stm32f1xx_hal_flash.c **** #endif /* FLASH_BANK2_END */
 203:./Drivers/STM32F1xx_HAL_Driver/Src/stm32f1xx_hal_flash.c ****     /* Wait for last operation to be completed */
 204:./Drivers/STM32F1xx_HAL_Driver/Src/stm32f1xx_hal_flash.c ****     status = FLASH_WaitForLastOperation((uint32_t)FLASH_TIMEOUT_VALUE);
ARM GAS  /tmp/cc24Z0QC.s 			page 5


 205:./Drivers/STM32F1xx_HAL_Driver/Src/stm32f1xx_hal_flash.c **** #if defined(FLASH_BANK2_END)
 206:./Drivers/STM32F1xx_HAL_Driver/Src/stm32f1xx_hal_flash.c ****   }
 207:./Drivers/STM32F1xx_HAL_Driver/Src/stm32f1xx_hal_flash.c ****   else
 208:./Drivers/STM32F1xx_HAL_Driver/Src/stm32f1xx_hal_flash.c ****   {
 209:./Drivers/STM32F1xx_HAL_Driver/Src/stm32f1xx_hal_flash.c ****     /* Wait for last operation to be completed */
 210:./Drivers/STM32F1xx_HAL_Driver/Src/stm32f1xx_hal_flash.c ****     status = FLASH_WaitForLastOperationBank2((uint32_t)FLASH_TIMEOUT_VALUE);
 211:./Drivers/STM32F1xx_HAL_Driver/Src/stm32f1xx_hal_flash.c ****   }
 212:./Drivers/STM32F1xx_HAL_Driver/Src/stm32f1xx_hal_flash.c **** #endif /* FLASH_BANK2_END */
 213:./Drivers/STM32F1xx_HAL_Driver/Src/stm32f1xx_hal_flash.c ****   
 214:./Drivers/STM32F1xx_HAL_Driver/Src/stm32f1xx_hal_flash.c ****   if(status == HAL_OK)
 215:./Drivers/STM32F1xx_HAL_Driver/Src/stm32f1xx_hal_flash.c ****   {
 216:./Drivers/STM32F1xx_HAL_Driver/Src/stm32f1xx_hal_flash.c ****     if(TypeProgram == FLASH_TYPEPROGRAM_HALFWORD)
 217:./Drivers/STM32F1xx_HAL_Driver/Src/stm32f1xx_hal_flash.c ****     {
 218:./Drivers/STM32F1xx_HAL_Driver/Src/stm32f1xx_hal_flash.c ****       /* Program halfword (16-bit) at a specified address. */
 219:./Drivers/STM32F1xx_HAL_Driver/Src/stm32f1xx_hal_flash.c ****       nbiterations = 1;
 220:./Drivers/STM32F1xx_HAL_Driver/Src/stm32f1xx_hal_flash.c ****     }
 221:./Drivers/STM32F1xx_HAL_Driver/Src/stm32f1xx_hal_flash.c ****     else if(TypeProgram == FLASH_TYPEPROGRAM_WORD)
 222:./Drivers/STM32F1xx_HAL_Driver/Src/stm32f1xx_hal_flash.c ****     {
 223:./Drivers/STM32F1xx_HAL_Driver/Src/stm32f1xx_hal_flash.c ****       /* Program word (32-bit = 2*16-bit) at a specified address. */
 224:./Drivers/STM32F1xx_HAL_Driver/Src/stm32f1xx_hal_flash.c ****       nbiterations = 2;
 225:./Drivers/STM32F1xx_HAL_Driver/Src/stm32f1xx_hal_flash.c ****     }
 226:./Drivers/STM32F1xx_HAL_Driver/Src/stm32f1xx_hal_flash.c ****     else
 227:./Drivers/STM32F1xx_HAL_Driver/Src/stm32f1xx_hal_flash.c ****     {
 228:./Drivers/STM32F1xx_HAL_Driver/Src/stm32f1xx_hal_flash.c ****       /* Program double word (64-bit = 4*16-bit) at a specified address. */
 229:./Drivers/STM32F1xx_HAL_Driver/Src/stm32f1xx_hal_flash.c ****       nbiterations = 4;
 230:./Drivers/STM32F1xx_HAL_Driver/Src/stm32f1xx_hal_flash.c ****     }
 231:./Drivers/STM32F1xx_HAL_Driver/Src/stm32f1xx_hal_flash.c **** 
 232:./Drivers/STM32F1xx_HAL_Driver/Src/stm32f1xx_hal_flash.c ****     for (index = 0; index < nbiterations; index++)
 233:./Drivers/STM32F1xx_HAL_Driver/Src/stm32f1xx_hal_flash.c ****     {
 234:./Drivers/STM32F1xx_HAL_Driver/Src/stm32f1xx_hal_flash.c ****       FLASH_Program_HalfWord((Address + (2*index)), (uint16_t)(Data >> (16*index)));
 235:./Drivers/STM32F1xx_HAL_Driver/Src/stm32f1xx_hal_flash.c **** 
 236:./Drivers/STM32F1xx_HAL_Driver/Src/stm32f1xx_hal_flash.c **** #if defined(FLASH_BANK2_END)
 237:./Drivers/STM32F1xx_HAL_Driver/Src/stm32f1xx_hal_flash.c ****       if(Address <= FLASH_BANK1_END)
 238:./Drivers/STM32F1xx_HAL_Driver/Src/stm32f1xx_hal_flash.c ****       {
 239:./Drivers/STM32F1xx_HAL_Driver/Src/stm32f1xx_hal_flash.c **** #endif /* FLASH_BANK2_END */
 240:./Drivers/STM32F1xx_HAL_Driver/Src/stm32f1xx_hal_flash.c ****         /* Wait for last operation to be completed */
 241:./Drivers/STM32F1xx_HAL_Driver/Src/stm32f1xx_hal_flash.c ****         status = FLASH_WaitForLastOperation((uint32_t)FLASH_TIMEOUT_VALUE);
 242:./Drivers/STM32F1xx_HAL_Driver/Src/stm32f1xx_hal_flash.c ****     
 243:./Drivers/STM32F1xx_HAL_Driver/Src/stm32f1xx_hal_flash.c ****         /* If the program operation is completed, disable the PG Bit */
 244:./Drivers/STM32F1xx_HAL_Driver/Src/stm32f1xx_hal_flash.c ****         CLEAR_BIT(FLASH->CR, FLASH_CR_PG);
 245:./Drivers/STM32F1xx_HAL_Driver/Src/stm32f1xx_hal_flash.c **** #if defined(FLASH_BANK2_END)
 246:./Drivers/STM32F1xx_HAL_Driver/Src/stm32f1xx_hal_flash.c ****       }
 247:./Drivers/STM32F1xx_HAL_Driver/Src/stm32f1xx_hal_flash.c ****       else
 248:./Drivers/STM32F1xx_HAL_Driver/Src/stm32f1xx_hal_flash.c ****       {
 249:./Drivers/STM32F1xx_HAL_Driver/Src/stm32f1xx_hal_flash.c ****         /* Wait for last operation to be completed */
 250:./Drivers/STM32F1xx_HAL_Driver/Src/stm32f1xx_hal_flash.c ****         status = FLASH_WaitForLastOperationBank2((uint32_t)FLASH_TIMEOUT_VALUE);
 251:./Drivers/STM32F1xx_HAL_Driver/Src/stm32f1xx_hal_flash.c ****         
 252:./Drivers/STM32F1xx_HAL_Driver/Src/stm32f1xx_hal_flash.c ****         /* If the program operation is completed, disable the PG Bit */
 253:./Drivers/STM32F1xx_HAL_Driver/Src/stm32f1xx_hal_flash.c ****         CLEAR_BIT(FLASH->CR2, FLASH_CR2_PG);
 254:./Drivers/STM32F1xx_HAL_Driver/Src/stm32f1xx_hal_flash.c ****       }
 255:./Drivers/STM32F1xx_HAL_Driver/Src/stm32f1xx_hal_flash.c **** #endif /* FLASH_BANK2_END */
 256:./Drivers/STM32F1xx_HAL_Driver/Src/stm32f1xx_hal_flash.c ****       /* In case of error, stop programation procedure */
 257:./Drivers/STM32F1xx_HAL_Driver/Src/stm32f1xx_hal_flash.c ****       if (status != HAL_OK)
 258:./Drivers/STM32F1xx_HAL_Driver/Src/stm32f1xx_hal_flash.c ****       {
 259:./Drivers/STM32F1xx_HAL_Driver/Src/stm32f1xx_hal_flash.c ****         break;
 260:./Drivers/STM32F1xx_HAL_Driver/Src/stm32f1xx_hal_flash.c ****       }
 261:./Drivers/STM32F1xx_HAL_Driver/Src/stm32f1xx_hal_flash.c ****     }
ARM GAS  /tmp/cc24Z0QC.s 			page 6


 262:./Drivers/STM32F1xx_HAL_Driver/Src/stm32f1xx_hal_flash.c ****   }
 263:./Drivers/STM32F1xx_HAL_Driver/Src/stm32f1xx_hal_flash.c **** 
 264:./Drivers/STM32F1xx_HAL_Driver/Src/stm32f1xx_hal_flash.c ****   /* Process Unlocked */
 265:./Drivers/STM32F1xx_HAL_Driver/Src/stm32f1xx_hal_flash.c ****   __HAL_UNLOCK(&pFlash);
 266:./Drivers/STM32F1xx_HAL_Driver/Src/stm32f1xx_hal_flash.c **** 
 267:./Drivers/STM32F1xx_HAL_Driver/Src/stm32f1xx_hal_flash.c ****   return status;
 268:./Drivers/STM32F1xx_HAL_Driver/Src/stm32f1xx_hal_flash.c **** }
 269:./Drivers/STM32F1xx_HAL_Driver/Src/stm32f1xx_hal_flash.c **** 
 270:./Drivers/STM32F1xx_HAL_Driver/Src/stm32f1xx_hal_flash.c **** /**
 271:./Drivers/STM32F1xx_HAL_Driver/Src/stm32f1xx_hal_flash.c ****   * @brief  Program halfword, word or double word at a specified address  with interrupt enabled.
 272:./Drivers/STM32F1xx_HAL_Driver/Src/stm32f1xx_hal_flash.c ****   * @note   The function HAL_FLASH_Unlock() should be called before to unlock the FLASH interface
 273:./Drivers/STM32F1xx_HAL_Driver/Src/stm32f1xx_hal_flash.c ****   *         The function HAL_FLASH_Lock() should be called after to lock the FLASH interface
 274:./Drivers/STM32F1xx_HAL_Driver/Src/stm32f1xx_hal_flash.c ****   *
 275:./Drivers/STM32F1xx_HAL_Driver/Src/stm32f1xx_hal_flash.c ****   * @note   If an erase and a program operations are requested simultaneously,    
 276:./Drivers/STM32F1xx_HAL_Driver/Src/stm32f1xx_hal_flash.c ****   *         the erase operation is performed before the program one.
 277:./Drivers/STM32F1xx_HAL_Driver/Src/stm32f1xx_hal_flash.c ****   *
 278:./Drivers/STM32F1xx_HAL_Driver/Src/stm32f1xx_hal_flash.c ****   * @param  TypeProgram: Indicate the way to program at a specified address.
 279:./Drivers/STM32F1xx_HAL_Driver/Src/stm32f1xx_hal_flash.c ****   *                      This parameter can be a value of @ref FLASH_Type_Program
 280:./Drivers/STM32F1xx_HAL_Driver/Src/stm32f1xx_hal_flash.c ****   * @param  Address:     Specifies the address to be programmed.
 281:./Drivers/STM32F1xx_HAL_Driver/Src/stm32f1xx_hal_flash.c ****   * @param  Data:        Specifies the data to be programmed
 282:./Drivers/STM32F1xx_HAL_Driver/Src/stm32f1xx_hal_flash.c ****   * 
 283:./Drivers/STM32F1xx_HAL_Driver/Src/stm32f1xx_hal_flash.c ****   * @retval HAL_StatusTypeDef HAL Status
 284:./Drivers/STM32F1xx_HAL_Driver/Src/stm32f1xx_hal_flash.c ****   */
 285:./Drivers/STM32F1xx_HAL_Driver/Src/stm32f1xx_hal_flash.c **** HAL_StatusTypeDef HAL_FLASH_Program_IT(uint32_t TypeProgram, uint32_t Address, uint64_t Data)
 286:./Drivers/STM32F1xx_HAL_Driver/Src/stm32f1xx_hal_flash.c **** {
 287:./Drivers/STM32F1xx_HAL_Driver/Src/stm32f1xx_hal_flash.c ****   HAL_StatusTypeDef status = HAL_OK;
 288:./Drivers/STM32F1xx_HAL_Driver/Src/stm32f1xx_hal_flash.c ****   
 289:./Drivers/STM32F1xx_HAL_Driver/Src/stm32f1xx_hal_flash.c ****   /* Process Locked */
 290:./Drivers/STM32F1xx_HAL_Driver/Src/stm32f1xx_hal_flash.c ****   __HAL_LOCK(&pFlash);
 291:./Drivers/STM32F1xx_HAL_Driver/Src/stm32f1xx_hal_flash.c **** 
 292:./Drivers/STM32F1xx_HAL_Driver/Src/stm32f1xx_hal_flash.c ****   /* Check the parameters */
 293:./Drivers/STM32F1xx_HAL_Driver/Src/stm32f1xx_hal_flash.c ****   assert_param(IS_FLASH_TYPEPROGRAM(TypeProgram));
 294:./Drivers/STM32F1xx_HAL_Driver/Src/stm32f1xx_hal_flash.c ****   assert_param(IS_FLASH_PROGRAM_ADDRESS(Address));
 295:./Drivers/STM32F1xx_HAL_Driver/Src/stm32f1xx_hal_flash.c **** 
 296:./Drivers/STM32F1xx_HAL_Driver/Src/stm32f1xx_hal_flash.c **** #if defined(FLASH_BANK2_END)
 297:./Drivers/STM32F1xx_HAL_Driver/Src/stm32f1xx_hal_flash.c ****   /* If procedure already ongoing, reject the next one */
 298:./Drivers/STM32F1xx_HAL_Driver/Src/stm32f1xx_hal_flash.c ****   if (pFlash.ProcedureOnGoing != FLASH_PROC_NONE)
 299:./Drivers/STM32F1xx_HAL_Driver/Src/stm32f1xx_hal_flash.c ****   {
 300:./Drivers/STM32F1xx_HAL_Driver/Src/stm32f1xx_hal_flash.c ****     return HAL_ERROR;
 301:./Drivers/STM32F1xx_HAL_Driver/Src/stm32f1xx_hal_flash.c ****   }
 302:./Drivers/STM32F1xx_HAL_Driver/Src/stm32f1xx_hal_flash.c ****   
 303:./Drivers/STM32F1xx_HAL_Driver/Src/stm32f1xx_hal_flash.c ****   if(Address <= FLASH_BANK1_END)
 304:./Drivers/STM32F1xx_HAL_Driver/Src/stm32f1xx_hal_flash.c ****   {
 305:./Drivers/STM32F1xx_HAL_Driver/Src/stm32f1xx_hal_flash.c ****     /* Enable End of FLASH Operation and Error source interrupts */
 306:./Drivers/STM32F1xx_HAL_Driver/Src/stm32f1xx_hal_flash.c ****     __HAL_FLASH_ENABLE_IT(FLASH_IT_EOP_BANK1 | FLASH_IT_ERR_BANK1);
 307:./Drivers/STM32F1xx_HAL_Driver/Src/stm32f1xx_hal_flash.c **** 
 308:./Drivers/STM32F1xx_HAL_Driver/Src/stm32f1xx_hal_flash.c ****   }else
 309:./Drivers/STM32F1xx_HAL_Driver/Src/stm32f1xx_hal_flash.c ****   {
 310:./Drivers/STM32F1xx_HAL_Driver/Src/stm32f1xx_hal_flash.c ****     /* Enable End of FLASH Operation and Error source interrupts */
 311:./Drivers/STM32F1xx_HAL_Driver/Src/stm32f1xx_hal_flash.c ****     __HAL_FLASH_ENABLE_IT(FLASH_IT_EOP_BANK2 | FLASH_IT_ERR_BANK2);
 312:./Drivers/STM32F1xx_HAL_Driver/Src/stm32f1xx_hal_flash.c ****   }
 313:./Drivers/STM32F1xx_HAL_Driver/Src/stm32f1xx_hal_flash.c **** #else
 314:./Drivers/STM32F1xx_HAL_Driver/Src/stm32f1xx_hal_flash.c ****   /* Enable End of FLASH Operation and Error source interrupts */
 315:./Drivers/STM32F1xx_HAL_Driver/Src/stm32f1xx_hal_flash.c ****   __HAL_FLASH_ENABLE_IT(FLASH_IT_EOP | FLASH_IT_ERR);
 316:./Drivers/STM32F1xx_HAL_Driver/Src/stm32f1xx_hal_flash.c **** #endif /* FLASH_BANK2_END */
 317:./Drivers/STM32F1xx_HAL_Driver/Src/stm32f1xx_hal_flash.c ****   
 318:./Drivers/STM32F1xx_HAL_Driver/Src/stm32f1xx_hal_flash.c ****   pFlash.Address = Address;
ARM GAS  /tmp/cc24Z0QC.s 			page 7


 319:./Drivers/STM32F1xx_HAL_Driver/Src/stm32f1xx_hal_flash.c ****   pFlash.Data = Data;
 320:./Drivers/STM32F1xx_HAL_Driver/Src/stm32f1xx_hal_flash.c **** 
 321:./Drivers/STM32F1xx_HAL_Driver/Src/stm32f1xx_hal_flash.c ****   if(TypeProgram == FLASH_TYPEPROGRAM_HALFWORD)
 322:./Drivers/STM32F1xx_HAL_Driver/Src/stm32f1xx_hal_flash.c ****   {
 323:./Drivers/STM32F1xx_HAL_Driver/Src/stm32f1xx_hal_flash.c ****     pFlash.ProcedureOnGoing = FLASH_PROC_PROGRAMHALFWORD;
 324:./Drivers/STM32F1xx_HAL_Driver/Src/stm32f1xx_hal_flash.c ****     /*Program halfword (16-bit) at a specified address.*/
 325:./Drivers/STM32F1xx_HAL_Driver/Src/stm32f1xx_hal_flash.c ****     pFlash.DataRemaining = 1;
 326:./Drivers/STM32F1xx_HAL_Driver/Src/stm32f1xx_hal_flash.c ****   }
 327:./Drivers/STM32F1xx_HAL_Driver/Src/stm32f1xx_hal_flash.c ****   else if(TypeProgram == FLASH_TYPEPROGRAM_WORD)
 328:./Drivers/STM32F1xx_HAL_Driver/Src/stm32f1xx_hal_flash.c ****   {
 329:./Drivers/STM32F1xx_HAL_Driver/Src/stm32f1xx_hal_flash.c ****     pFlash.ProcedureOnGoing = FLASH_PROC_PROGRAMWORD;
 330:./Drivers/STM32F1xx_HAL_Driver/Src/stm32f1xx_hal_flash.c ****     /*Program word (32-bit : 2*16-bit) at a specified address.*/
 331:./Drivers/STM32F1xx_HAL_Driver/Src/stm32f1xx_hal_flash.c ****     pFlash.DataRemaining = 2;
 332:./Drivers/STM32F1xx_HAL_Driver/Src/stm32f1xx_hal_flash.c ****   }
 333:./Drivers/STM32F1xx_HAL_Driver/Src/stm32f1xx_hal_flash.c ****   else
 334:./Drivers/STM32F1xx_HAL_Driver/Src/stm32f1xx_hal_flash.c ****   {
 335:./Drivers/STM32F1xx_HAL_Driver/Src/stm32f1xx_hal_flash.c ****     pFlash.ProcedureOnGoing = FLASH_PROC_PROGRAMDOUBLEWORD;
 336:./Drivers/STM32F1xx_HAL_Driver/Src/stm32f1xx_hal_flash.c ****     /*Program double word (64-bit : 4*16-bit) at a specified address.*/
 337:./Drivers/STM32F1xx_HAL_Driver/Src/stm32f1xx_hal_flash.c ****     pFlash.DataRemaining = 4;
 338:./Drivers/STM32F1xx_HAL_Driver/Src/stm32f1xx_hal_flash.c ****   }
 339:./Drivers/STM32F1xx_HAL_Driver/Src/stm32f1xx_hal_flash.c **** 
 340:./Drivers/STM32F1xx_HAL_Driver/Src/stm32f1xx_hal_flash.c ****   /*Program halfword (16-bit) at a specified address.*/
 341:./Drivers/STM32F1xx_HAL_Driver/Src/stm32f1xx_hal_flash.c ****   FLASH_Program_HalfWord(Address, (uint16_t)Data);
 342:./Drivers/STM32F1xx_HAL_Driver/Src/stm32f1xx_hal_flash.c **** 
 343:./Drivers/STM32F1xx_HAL_Driver/Src/stm32f1xx_hal_flash.c ****   return status;
 344:./Drivers/STM32F1xx_HAL_Driver/Src/stm32f1xx_hal_flash.c **** }
 345:./Drivers/STM32F1xx_HAL_Driver/Src/stm32f1xx_hal_flash.c **** 
 346:./Drivers/STM32F1xx_HAL_Driver/Src/stm32f1xx_hal_flash.c **** /**
 347:./Drivers/STM32F1xx_HAL_Driver/Src/stm32f1xx_hal_flash.c ****   * @brief This function handles FLASH interrupt request.
 348:./Drivers/STM32F1xx_HAL_Driver/Src/stm32f1xx_hal_flash.c ****   * @retval None
 349:./Drivers/STM32F1xx_HAL_Driver/Src/stm32f1xx_hal_flash.c ****   */
 350:./Drivers/STM32F1xx_HAL_Driver/Src/stm32f1xx_hal_flash.c **** void HAL_FLASH_IRQHandler(void)
 351:./Drivers/STM32F1xx_HAL_Driver/Src/stm32f1xx_hal_flash.c **** {
 352:./Drivers/STM32F1xx_HAL_Driver/Src/stm32f1xx_hal_flash.c ****   uint32_t addresstmp = 0;
 353:./Drivers/STM32F1xx_HAL_Driver/Src/stm32f1xx_hal_flash.c ****   
 354:./Drivers/STM32F1xx_HAL_Driver/Src/stm32f1xx_hal_flash.c ****   /* Check FLASH operation error flags */
 355:./Drivers/STM32F1xx_HAL_Driver/Src/stm32f1xx_hal_flash.c **** #if defined(FLASH_BANK2_END)
 356:./Drivers/STM32F1xx_HAL_Driver/Src/stm32f1xx_hal_flash.c ****   if(__HAL_FLASH_GET_FLAG(FLASH_FLAG_WRPERR_BANK1) || __HAL_FLASH_GET_FLAG(FLASH_FLAG_PGERR_BANK1) 
 357:./Drivers/STM32F1xx_HAL_Driver/Src/stm32f1xx_hal_flash.c ****     (__HAL_FLASH_GET_FLAG(FLASH_FLAG_WRPERR_BANK2) || __HAL_FLASH_GET_FLAG(FLASH_FLAG_PGERR_BANK2))
 358:./Drivers/STM32F1xx_HAL_Driver/Src/stm32f1xx_hal_flash.c **** #else
 359:./Drivers/STM32F1xx_HAL_Driver/Src/stm32f1xx_hal_flash.c ****   if(__HAL_FLASH_GET_FLAG(FLASH_FLAG_WRPERR) ||__HAL_FLASH_GET_FLAG(FLASH_FLAG_PGERR))
 360:./Drivers/STM32F1xx_HAL_Driver/Src/stm32f1xx_hal_flash.c **** #endif /* FLASH_BANK2_END */
 361:./Drivers/STM32F1xx_HAL_Driver/Src/stm32f1xx_hal_flash.c ****   {
 362:./Drivers/STM32F1xx_HAL_Driver/Src/stm32f1xx_hal_flash.c ****     /*return the faulty address*/
 363:./Drivers/STM32F1xx_HAL_Driver/Src/stm32f1xx_hal_flash.c ****     addresstmp = pFlash.Address;
 364:./Drivers/STM32F1xx_HAL_Driver/Src/stm32f1xx_hal_flash.c ****     /* Reset address */
 365:./Drivers/STM32F1xx_HAL_Driver/Src/stm32f1xx_hal_flash.c ****     pFlash.Address = 0xFFFFFFFF;
 366:./Drivers/STM32F1xx_HAL_Driver/Src/stm32f1xx_hal_flash.c ****   
 367:./Drivers/STM32F1xx_HAL_Driver/Src/stm32f1xx_hal_flash.c ****     /*Save the Error code*/
 368:./Drivers/STM32F1xx_HAL_Driver/Src/stm32f1xx_hal_flash.c ****     FLASH_SetErrorCode();
 369:./Drivers/STM32F1xx_HAL_Driver/Src/stm32f1xx_hal_flash.c ****     
 370:./Drivers/STM32F1xx_HAL_Driver/Src/stm32f1xx_hal_flash.c ****     /* FLASH error interrupt user callback */
 371:./Drivers/STM32F1xx_HAL_Driver/Src/stm32f1xx_hal_flash.c ****     HAL_FLASH_OperationErrorCallback(addresstmp);
 372:./Drivers/STM32F1xx_HAL_Driver/Src/stm32f1xx_hal_flash.c **** 
 373:./Drivers/STM32F1xx_HAL_Driver/Src/stm32f1xx_hal_flash.c ****     /* Stop the procedure ongoing*/
 374:./Drivers/STM32F1xx_HAL_Driver/Src/stm32f1xx_hal_flash.c ****     pFlash.ProcedureOnGoing = FLASH_PROC_NONE;
 375:./Drivers/STM32F1xx_HAL_Driver/Src/stm32f1xx_hal_flash.c ****   }
ARM GAS  /tmp/cc24Z0QC.s 			page 8


 376:./Drivers/STM32F1xx_HAL_Driver/Src/stm32f1xx_hal_flash.c **** 
 377:./Drivers/STM32F1xx_HAL_Driver/Src/stm32f1xx_hal_flash.c ****   /* Check FLASH End of Operation flag  */
 378:./Drivers/STM32F1xx_HAL_Driver/Src/stm32f1xx_hal_flash.c **** #if defined(FLASH_BANK2_END)
 379:./Drivers/STM32F1xx_HAL_Driver/Src/stm32f1xx_hal_flash.c ****   if(__HAL_FLASH_GET_FLAG(FLASH_FLAG_EOP_BANK1))
 380:./Drivers/STM32F1xx_HAL_Driver/Src/stm32f1xx_hal_flash.c ****   {
 381:./Drivers/STM32F1xx_HAL_Driver/Src/stm32f1xx_hal_flash.c ****     /* Clear FLASH End of Operation pending bit */
 382:./Drivers/STM32F1xx_HAL_Driver/Src/stm32f1xx_hal_flash.c ****     __HAL_FLASH_CLEAR_FLAG(FLASH_FLAG_EOP_BANK1);
 383:./Drivers/STM32F1xx_HAL_Driver/Src/stm32f1xx_hal_flash.c **** #else
 384:./Drivers/STM32F1xx_HAL_Driver/Src/stm32f1xx_hal_flash.c ****   if(__HAL_FLASH_GET_FLAG(FLASH_FLAG_EOP))
 385:./Drivers/STM32F1xx_HAL_Driver/Src/stm32f1xx_hal_flash.c ****   {
 386:./Drivers/STM32F1xx_HAL_Driver/Src/stm32f1xx_hal_flash.c ****     /* Clear FLASH End of Operation pending bit */
 387:./Drivers/STM32F1xx_HAL_Driver/Src/stm32f1xx_hal_flash.c ****     __HAL_FLASH_CLEAR_FLAG(FLASH_FLAG_EOP);
 388:./Drivers/STM32F1xx_HAL_Driver/Src/stm32f1xx_hal_flash.c **** #endif /* FLASH_BANK2_END */
 389:./Drivers/STM32F1xx_HAL_Driver/Src/stm32f1xx_hal_flash.c ****     
 390:./Drivers/STM32F1xx_HAL_Driver/Src/stm32f1xx_hal_flash.c ****     /* Process can continue only if no error detected */
 391:./Drivers/STM32F1xx_HAL_Driver/Src/stm32f1xx_hal_flash.c ****     if(pFlash.ProcedureOnGoing != FLASH_PROC_NONE)
 392:./Drivers/STM32F1xx_HAL_Driver/Src/stm32f1xx_hal_flash.c ****     {
 393:./Drivers/STM32F1xx_HAL_Driver/Src/stm32f1xx_hal_flash.c ****       if(pFlash.ProcedureOnGoing == FLASH_PROC_PAGEERASE)
 394:./Drivers/STM32F1xx_HAL_Driver/Src/stm32f1xx_hal_flash.c ****       {
 395:./Drivers/STM32F1xx_HAL_Driver/Src/stm32f1xx_hal_flash.c ****         /* Nb of pages to erased can be decreased */
 396:./Drivers/STM32F1xx_HAL_Driver/Src/stm32f1xx_hal_flash.c ****         pFlash.DataRemaining--;
 397:./Drivers/STM32F1xx_HAL_Driver/Src/stm32f1xx_hal_flash.c **** 
 398:./Drivers/STM32F1xx_HAL_Driver/Src/stm32f1xx_hal_flash.c ****         /* Check if there are still pages to erase*/
 399:./Drivers/STM32F1xx_HAL_Driver/Src/stm32f1xx_hal_flash.c ****         if(pFlash.DataRemaining != 0)
 400:./Drivers/STM32F1xx_HAL_Driver/Src/stm32f1xx_hal_flash.c ****         {
 401:./Drivers/STM32F1xx_HAL_Driver/Src/stm32f1xx_hal_flash.c ****           addresstmp = pFlash.Address;
 402:./Drivers/STM32F1xx_HAL_Driver/Src/stm32f1xx_hal_flash.c ****           /*Indicate user which sector has been erased*/
 403:./Drivers/STM32F1xx_HAL_Driver/Src/stm32f1xx_hal_flash.c ****           HAL_FLASH_EndOfOperationCallback(addresstmp);
 404:./Drivers/STM32F1xx_HAL_Driver/Src/stm32f1xx_hal_flash.c **** 
 405:./Drivers/STM32F1xx_HAL_Driver/Src/stm32f1xx_hal_flash.c ****           /*Increment sector number*/
 406:./Drivers/STM32F1xx_HAL_Driver/Src/stm32f1xx_hal_flash.c ****           addresstmp = pFlash.Address + FLASH_PAGE_SIZE;
 407:./Drivers/STM32F1xx_HAL_Driver/Src/stm32f1xx_hal_flash.c ****           pFlash.Address = addresstmp;
 408:./Drivers/STM32F1xx_HAL_Driver/Src/stm32f1xx_hal_flash.c **** 
 409:./Drivers/STM32F1xx_HAL_Driver/Src/stm32f1xx_hal_flash.c ****           /* If the erase operation is completed, disable the PER Bit */
 410:./Drivers/STM32F1xx_HAL_Driver/Src/stm32f1xx_hal_flash.c ****           CLEAR_BIT(FLASH->CR, FLASH_CR_PER);
 411:./Drivers/STM32F1xx_HAL_Driver/Src/stm32f1xx_hal_flash.c **** 
 412:./Drivers/STM32F1xx_HAL_Driver/Src/stm32f1xx_hal_flash.c ****           FLASH_PageErase(addresstmp);
 413:./Drivers/STM32F1xx_HAL_Driver/Src/stm32f1xx_hal_flash.c ****         }
 414:./Drivers/STM32F1xx_HAL_Driver/Src/stm32f1xx_hal_flash.c ****         else
 415:./Drivers/STM32F1xx_HAL_Driver/Src/stm32f1xx_hal_flash.c ****         {
 416:./Drivers/STM32F1xx_HAL_Driver/Src/stm32f1xx_hal_flash.c ****           /*No more pages to Erase, user callback can be called.*/
 417:./Drivers/STM32F1xx_HAL_Driver/Src/stm32f1xx_hal_flash.c ****           /*Reset Sector and stop Erase pages procedure*/
 418:./Drivers/STM32F1xx_HAL_Driver/Src/stm32f1xx_hal_flash.c ****           pFlash.Address = addresstmp = 0xFFFFFFFF;
 419:./Drivers/STM32F1xx_HAL_Driver/Src/stm32f1xx_hal_flash.c ****           pFlash.ProcedureOnGoing = FLASH_PROC_NONE;
 420:./Drivers/STM32F1xx_HAL_Driver/Src/stm32f1xx_hal_flash.c ****           /* FLASH EOP interrupt user callback */
 421:./Drivers/STM32F1xx_HAL_Driver/Src/stm32f1xx_hal_flash.c ****           HAL_FLASH_EndOfOperationCallback(addresstmp);
 422:./Drivers/STM32F1xx_HAL_Driver/Src/stm32f1xx_hal_flash.c ****         }
 423:./Drivers/STM32F1xx_HAL_Driver/Src/stm32f1xx_hal_flash.c ****       }
 424:./Drivers/STM32F1xx_HAL_Driver/Src/stm32f1xx_hal_flash.c ****       else if(pFlash.ProcedureOnGoing == FLASH_PROC_MASSERASE)
 425:./Drivers/STM32F1xx_HAL_Driver/Src/stm32f1xx_hal_flash.c ****       {
 426:./Drivers/STM32F1xx_HAL_Driver/Src/stm32f1xx_hal_flash.c ****         /* Operation is completed, disable the MER Bit */
 427:./Drivers/STM32F1xx_HAL_Driver/Src/stm32f1xx_hal_flash.c ****         CLEAR_BIT(FLASH->CR, FLASH_CR_MER);
 428:./Drivers/STM32F1xx_HAL_Driver/Src/stm32f1xx_hal_flash.c **** 
 429:./Drivers/STM32F1xx_HAL_Driver/Src/stm32f1xx_hal_flash.c **** #if defined(FLASH_BANK2_END)
 430:./Drivers/STM32F1xx_HAL_Driver/Src/stm32f1xx_hal_flash.c ****         /* Stop Mass Erase procedure if no pending mass erase on other bank */
 431:./Drivers/STM32F1xx_HAL_Driver/Src/stm32f1xx_hal_flash.c ****         if (HAL_IS_BIT_CLR(FLASH->CR2, FLASH_CR2_MER))
 432:./Drivers/STM32F1xx_HAL_Driver/Src/stm32f1xx_hal_flash.c ****         {
ARM GAS  /tmp/cc24Z0QC.s 			page 9


 433:./Drivers/STM32F1xx_HAL_Driver/Src/stm32f1xx_hal_flash.c **** #endif /* FLASH_BANK2_END */
 434:./Drivers/STM32F1xx_HAL_Driver/Src/stm32f1xx_hal_flash.c ****           /* MassErase ended. Return the selected bank*/
 435:./Drivers/STM32F1xx_HAL_Driver/Src/stm32f1xx_hal_flash.c ****           /* FLASH EOP interrupt user callback */
 436:./Drivers/STM32F1xx_HAL_Driver/Src/stm32f1xx_hal_flash.c ****           HAL_FLASH_EndOfOperationCallback(0);
 437:./Drivers/STM32F1xx_HAL_Driver/Src/stm32f1xx_hal_flash.c **** 
 438:./Drivers/STM32F1xx_HAL_Driver/Src/stm32f1xx_hal_flash.c ****           /* Stop Mass Erase procedure*/
 439:./Drivers/STM32F1xx_HAL_Driver/Src/stm32f1xx_hal_flash.c ****           pFlash.ProcedureOnGoing = FLASH_PROC_NONE;
 440:./Drivers/STM32F1xx_HAL_Driver/Src/stm32f1xx_hal_flash.c ****         }
 441:./Drivers/STM32F1xx_HAL_Driver/Src/stm32f1xx_hal_flash.c **** #if defined(FLASH_BANK2_END)
 442:./Drivers/STM32F1xx_HAL_Driver/Src/stm32f1xx_hal_flash.c ****       }
 443:./Drivers/STM32F1xx_HAL_Driver/Src/stm32f1xx_hal_flash.c **** #endif /* FLASH_BANK2_END */
 444:./Drivers/STM32F1xx_HAL_Driver/Src/stm32f1xx_hal_flash.c ****       else
 445:./Drivers/STM32F1xx_HAL_Driver/Src/stm32f1xx_hal_flash.c ****       {
 446:./Drivers/STM32F1xx_HAL_Driver/Src/stm32f1xx_hal_flash.c ****         /* Nb of 16-bit data to program can be decreased */
 447:./Drivers/STM32F1xx_HAL_Driver/Src/stm32f1xx_hal_flash.c ****         pFlash.DataRemaining--;
 448:./Drivers/STM32F1xx_HAL_Driver/Src/stm32f1xx_hal_flash.c ****         
 449:./Drivers/STM32F1xx_HAL_Driver/Src/stm32f1xx_hal_flash.c ****         /* Check if there are still 16-bit data to program */
 450:./Drivers/STM32F1xx_HAL_Driver/Src/stm32f1xx_hal_flash.c ****         if(pFlash.DataRemaining != 0)
 451:./Drivers/STM32F1xx_HAL_Driver/Src/stm32f1xx_hal_flash.c ****         {
 452:./Drivers/STM32F1xx_HAL_Driver/Src/stm32f1xx_hal_flash.c ****           /* Increment address to 16-bit */
 453:./Drivers/STM32F1xx_HAL_Driver/Src/stm32f1xx_hal_flash.c ****           pFlash.Address += 2;
 454:./Drivers/STM32F1xx_HAL_Driver/Src/stm32f1xx_hal_flash.c ****           addresstmp = pFlash.Address;
 455:./Drivers/STM32F1xx_HAL_Driver/Src/stm32f1xx_hal_flash.c ****           
 456:./Drivers/STM32F1xx_HAL_Driver/Src/stm32f1xx_hal_flash.c ****           /* Shift to have next 16-bit data */
 457:./Drivers/STM32F1xx_HAL_Driver/Src/stm32f1xx_hal_flash.c ****           pFlash.Data = (pFlash.Data >> 16);
 458:./Drivers/STM32F1xx_HAL_Driver/Src/stm32f1xx_hal_flash.c ****           
 459:./Drivers/STM32F1xx_HAL_Driver/Src/stm32f1xx_hal_flash.c ****           /* Operation is completed, disable the PG Bit */
 460:./Drivers/STM32F1xx_HAL_Driver/Src/stm32f1xx_hal_flash.c ****           CLEAR_BIT(FLASH->CR, FLASH_CR_PG);
 461:./Drivers/STM32F1xx_HAL_Driver/Src/stm32f1xx_hal_flash.c **** 
 462:./Drivers/STM32F1xx_HAL_Driver/Src/stm32f1xx_hal_flash.c ****           /*Program halfword (16-bit) at a specified address.*/
 463:./Drivers/STM32F1xx_HAL_Driver/Src/stm32f1xx_hal_flash.c ****           FLASH_Program_HalfWord(addresstmp, (uint16_t)pFlash.Data);
 464:./Drivers/STM32F1xx_HAL_Driver/Src/stm32f1xx_hal_flash.c ****         }
 465:./Drivers/STM32F1xx_HAL_Driver/Src/stm32f1xx_hal_flash.c ****         else
 466:./Drivers/STM32F1xx_HAL_Driver/Src/stm32f1xx_hal_flash.c ****         {
 467:./Drivers/STM32F1xx_HAL_Driver/Src/stm32f1xx_hal_flash.c ****           /*Program ended. Return the selected address*/
 468:./Drivers/STM32F1xx_HAL_Driver/Src/stm32f1xx_hal_flash.c ****           /* FLASH EOP interrupt user callback */
 469:./Drivers/STM32F1xx_HAL_Driver/Src/stm32f1xx_hal_flash.c ****           if (pFlash.ProcedureOnGoing == FLASH_PROC_PROGRAMHALFWORD)
 470:./Drivers/STM32F1xx_HAL_Driver/Src/stm32f1xx_hal_flash.c ****           {
 471:./Drivers/STM32F1xx_HAL_Driver/Src/stm32f1xx_hal_flash.c ****             HAL_FLASH_EndOfOperationCallback(pFlash.Address);
 472:./Drivers/STM32F1xx_HAL_Driver/Src/stm32f1xx_hal_flash.c ****           }
 473:./Drivers/STM32F1xx_HAL_Driver/Src/stm32f1xx_hal_flash.c ****           else if (pFlash.ProcedureOnGoing == FLASH_PROC_PROGRAMWORD)
 474:./Drivers/STM32F1xx_HAL_Driver/Src/stm32f1xx_hal_flash.c ****           {
 475:./Drivers/STM32F1xx_HAL_Driver/Src/stm32f1xx_hal_flash.c ****             HAL_FLASH_EndOfOperationCallback(pFlash.Address - 2);
 476:./Drivers/STM32F1xx_HAL_Driver/Src/stm32f1xx_hal_flash.c ****           }
 477:./Drivers/STM32F1xx_HAL_Driver/Src/stm32f1xx_hal_flash.c ****           else 
 478:./Drivers/STM32F1xx_HAL_Driver/Src/stm32f1xx_hal_flash.c ****           {
 479:./Drivers/STM32F1xx_HAL_Driver/Src/stm32f1xx_hal_flash.c ****             HAL_FLASH_EndOfOperationCallback(pFlash.Address - 6);
 480:./Drivers/STM32F1xx_HAL_Driver/Src/stm32f1xx_hal_flash.c ****           }
 481:./Drivers/STM32F1xx_HAL_Driver/Src/stm32f1xx_hal_flash.c ****         
 482:./Drivers/STM32F1xx_HAL_Driver/Src/stm32f1xx_hal_flash.c ****           /* Reset Address and stop Program procedure*/
 483:./Drivers/STM32F1xx_HAL_Driver/Src/stm32f1xx_hal_flash.c ****           pFlash.Address = 0xFFFFFFFF;
 484:./Drivers/STM32F1xx_HAL_Driver/Src/stm32f1xx_hal_flash.c ****           pFlash.ProcedureOnGoing = FLASH_PROC_NONE;
 485:./Drivers/STM32F1xx_HAL_Driver/Src/stm32f1xx_hal_flash.c ****         }
 486:./Drivers/STM32F1xx_HAL_Driver/Src/stm32f1xx_hal_flash.c ****       }
 487:./Drivers/STM32F1xx_HAL_Driver/Src/stm32f1xx_hal_flash.c ****     }
 488:./Drivers/STM32F1xx_HAL_Driver/Src/stm32f1xx_hal_flash.c ****   }
 489:./Drivers/STM32F1xx_HAL_Driver/Src/stm32f1xx_hal_flash.c ****   
ARM GAS  /tmp/cc24Z0QC.s 			page 10


 490:./Drivers/STM32F1xx_HAL_Driver/Src/stm32f1xx_hal_flash.c **** #if defined(FLASH_BANK2_END)
 491:./Drivers/STM32F1xx_HAL_Driver/Src/stm32f1xx_hal_flash.c ****   /* Check FLASH End of Operation flag  */
 492:./Drivers/STM32F1xx_HAL_Driver/Src/stm32f1xx_hal_flash.c ****   if(__HAL_FLASH_GET_FLAG( FLASH_FLAG_EOP_BANK2))
 493:./Drivers/STM32F1xx_HAL_Driver/Src/stm32f1xx_hal_flash.c ****   {
 494:./Drivers/STM32F1xx_HAL_Driver/Src/stm32f1xx_hal_flash.c ****     /* Clear FLASH End of Operation pending bit */
 495:./Drivers/STM32F1xx_HAL_Driver/Src/stm32f1xx_hal_flash.c ****     __HAL_FLASH_CLEAR_FLAG(FLASH_FLAG_EOP_BANK2);
 496:./Drivers/STM32F1xx_HAL_Driver/Src/stm32f1xx_hal_flash.c ****     
 497:./Drivers/STM32F1xx_HAL_Driver/Src/stm32f1xx_hal_flash.c ****     /* Process can continue only if no error detected */
 498:./Drivers/STM32F1xx_HAL_Driver/Src/stm32f1xx_hal_flash.c ****     if(pFlash.ProcedureOnGoing != FLASH_PROC_NONE)
 499:./Drivers/STM32F1xx_HAL_Driver/Src/stm32f1xx_hal_flash.c ****     {
 500:./Drivers/STM32F1xx_HAL_Driver/Src/stm32f1xx_hal_flash.c ****       if(pFlash.ProcedureOnGoing == FLASH_PROC_PAGEERASE)
 501:./Drivers/STM32F1xx_HAL_Driver/Src/stm32f1xx_hal_flash.c ****       {
 502:./Drivers/STM32F1xx_HAL_Driver/Src/stm32f1xx_hal_flash.c ****         /* Nb of pages to erased can be decreased */
 503:./Drivers/STM32F1xx_HAL_Driver/Src/stm32f1xx_hal_flash.c ****         pFlash.DataRemaining--;
 504:./Drivers/STM32F1xx_HAL_Driver/Src/stm32f1xx_hal_flash.c ****         
 505:./Drivers/STM32F1xx_HAL_Driver/Src/stm32f1xx_hal_flash.c ****         /* Check if there are still pages to erase*/
 506:./Drivers/STM32F1xx_HAL_Driver/Src/stm32f1xx_hal_flash.c ****         if(pFlash.DataRemaining != 0)
 507:./Drivers/STM32F1xx_HAL_Driver/Src/stm32f1xx_hal_flash.c ****         {
 508:./Drivers/STM32F1xx_HAL_Driver/Src/stm32f1xx_hal_flash.c ****           /* Indicate user which page address has been erased*/
 509:./Drivers/STM32F1xx_HAL_Driver/Src/stm32f1xx_hal_flash.c ****           HAL_FLASH_EndOfOperationCallback(pFlash.Address);
 510:./Drivers/STM32F1xx_HAL_Driver/Src/stm32f1xx_hal_flash.c ****         
 511:./Drivers/STM32F1xx_HAL_Driver/Src/stm32f1xx_hal_flash.c ****           /* Increment page address to next page */
 512:./Drivers/STM32F1xx_HAL_Driver/Src/stm32f1xx_hal_flash.c ****           pFlash.Address += FLASH_PAGE_SIZE;
 513:./Drivers/STM32F1xx_HAL_Driver/Src/stm32f1xx_hal_flash.c ****           addresstmp = pFlash.Address;
 514:./Drivers/STM32F1xx_HAL_Driver/Src/stm32f1xx_hal_flash.c **** 
 515:./Drivers/STM32F1xx_HAL_Driver/Src/stm32f1xx_hal_flash.c ****           /* Operation is completed, disable the PER Bit */
 516:./Drivers/STM32F1xx_HAL_Driver/Src/stm32f1xx_hal_flash.c ****           CLEAR_BIT(FLASH->CR2, FLASH_CR2_PER);
 517:./Drivers/STM32F1xx_HAL_Driver/Src/stm32f1xx_hal_flash.c **** 
 518:./Drivers/STM32F1xx_HAL_Driver/Src/stm32f1xx_hal_flash.c ****           FLASH_PageErase(addresstmp);
 519:./Drivers/STM32F1xx_HAL_Driver/Src/stm32f1xx_hal_flash.c ****         }
 520:./Drivers/STM32F1xx_HAL_Driver/Src/stm32f1xx_hal_flash.c ****         else
 521:./Drivers/STM32F1xx_HAL_Driver/Src/stm32f1xx_hal_flash.c ****         {
 522:./Drivers/STM32F1xx_HAL_Driver/Src/stm32f1xx_hal_flash.c ****           /*No more pages to Erase*/
 523:./Drivers/STM32F1xx_HAL_Driver/Src/stm32f1xx_hal_flash.c ****           
 524:./Drivers/STM32F1xx_HAL_Driver/Src/stm32f1xx_hal_flash.c ****           /*Reset Address and stop Erase pages procedure*/
 525:./Drivers/STM32F1xx_HAL_Driver/Src/stm32f1xx_hal_flash.c ****           pFlash.Address = 0xFFFFFFFF;
 526:./Drivers/STM32F1xx_HAL_Driver/Src/stm32f1xx_hal_flash.c ****           pFlash.ProcedureOnGoing = FLASH_PROC_NONE;
 527:./Drivers/STM32F1xx_HAL_Driver/Src/stm32f1xx_hal_flash.c **** 
 528:./Drivers/STM32F1xx_HAL_Driver/Src/stm32f1xx_hal_flash.c ****           /* FLASH EOP interrupt user callback */
 529:./Drivers/STM32F1xx_HAL_Driver/Src/stm32f1xx_hal_flash.c ****           HAL_FLASH_EndOfOperationCallback(pFlash.Address);
 530:./Drivers/STM32F1xx_HAL_Driver/Src/stm32f1xx_hal_flash.c ****         }
 531:./Drivers/STM32F1xx_HAL_Driver/Src/stm32f1xx_hal_flash.c ****       }
 532:./Drivers/STM32F1xx_HAL_Driver/Src/stm32f1xx_hal_flash.c ****       else if(pFlash.ProcedureOnGoing == FLASH_PROC_MASSERASE)
 533:./Drivers/STM32F1xx_HAL_Driver/Src/stm32f1xx_hal_flash.c ****       {
 534:./Drivers/STM32F1xx_HAL_Driver/Src/stm32f1xx_hal_flash.c ****         /* Operation is completed, disable the MER Bit */
 535:./Drivers/STM32F1xx_HAL_Driver/Src/stm32f1xx_hal_flash.c ****         CLEAR_BIT(FLASH->CR2, FLASH_CR2_MER);
 536:./Drivers/STM32F1xx_HAL_Driver/Src/stm32f1xx_hal_flash.c **** 
 537:./Drivers/STM32F1xx_HAL_Driver/Src/stm32f1xx_hal_flash.c ****         if (HAL_IS_BIT_CLR(FLASH->CR, FLASH_CR_MER))
 538:./Drivers/STM32F1xx_HAL_Driver/Src/stm32f1xx_hal_flash.c ****         {
 539:./Drivers/STM32F1xx_HAL_Driver/Src/stm32f1xx_hal_flash.c ****           /* MassErase ended. Return the selected bank*/
 540:./Drivers/STM32F1xx_HAL_Driver/Src/stm32f1xx_hal_flash.c ****           /* FLASH EOP interrupt user callback */
 541:./Drivers/STM32F1xx_HAL_Driver/Src/stm32f1xx_hal_flash.c ****           HAL_FLASH_EndOfOperationCallback(0);
 542:./Drivers/STM32F1xx_HAL_Driver/Src/stm32f1xx_hal_flash.c ****         
 543:./Drivers/STM32F1xx_HAL_Driver/Src/stm32f1xx_hal_flash.c ****           pFlash.ProcedureOnGoing = FLASH_PROC_NONE;
 544:./Drivers/STM32F1xx_HAL_Driver/Src/stm32f1xx_hal_flash.c ****         }
 545:./Drivers/STM32F1xx_HAL_Driver/Src/stm32f1xx_hal_flash.c ****       }
 546:./Drivers/STM32F1xx_HAL_Driver/Src/stm32f1xx_hal_flash.c ****       else
ARM GAS  /tmp/cc24Z0QC.s 			page 11


 547:./Drivers/STM32F1xx_HAL_Driver/Src/stm32f1xx_hal_flash.c ****       {
 548:./Drivers/STM32F1xx_HAL_Driver/Src/stm32f1xx_hal_flash.c ****         /* Nb of 16-bit data to program can be decreased */
 549:./Drivers/STM32F1xx_HAL_Driver/Src/stm32f1xx_hal_flash.c ****         pFlash.DataRemaining--;
 550:./Drivers/STM32F1xx_HAL_Driver/Src/stm32f1xx_hal_flash.c ****         
 551:./Drivers/STM32F1xx_HAL_Driver/Src/stm32f1xx_hal_flash.c ****         /* Check if there are still 16-bit data to program */
 552:./Drivers/STM32F1xx_HAL_Driver/Src/stm32f1xx_hal_flash.c ****         if(pFlash.DataRemaining != 0)
 553:./Drivers/STM32F1xx_HAL_Driver/Src/stm32f1xx_hal_flash.c ****         {
 554:./Drivers/STM32F1xx_HAL_Driver/Src/stm32f1xx_hal_flash.c ****           /* Increment address to 16-bit */
 555:./Drivers/STM32F1xx_HAL_Driver/Src/stm32f1xx_hal_flash.c ****           pFlash.Address += 2;
 556:./Drivers/STM32F1xx_HAL_Driver/Src/stm32f1xx_hal_flash.c ****           addresstmp = pFlash.Address;
 557:./Drivers/STM32F1xx_HAL_Driver/Src/stm32f1xx_hal_flash.c ****           
 558:./Drivers/STM32F1xx_HAL_Driver/Src/stm32f1xx_hal_flash.c ****           /* Shift to have next 16-bit data */
 559:./Drivers/STM32F1xx_HAL_Driver/Src/stm32f1xx_hal_flash.c ****           pFlash.Data = (pFlash.Data >> 16);
 560:./Drivers/STM32F1xx_HAL_Driver/Src/stm32f1xx_hal_flash.c ****           
 561:./Drivers/STM32F1xx_HAL_Driver/Src/stm32f1xx_hal_flash.c ****           /* Operation is completed, disable the PG Bit */
 562:./Drivers/STM32F1xx_HAL_Driver/Src/stm32f1xx_hal_flash.c ****           CLEAR_BIT(FLASH->CR2, FLASH_CR2_PG);
 563:./Drivers/STM32F1xx_HAL_Driver/Src/stm32f1xx_hal_flash.c **** 
 564:./Drivers/STM32F1xx_HAL_Driver/Src/stm32f1xx_hal_flash.c ****           /*Program halfword (16-bit) at a specified address.*/
 565:./Drivers/STM32F1xx_HAL_Driver/Src/stm32f1xx_hal_flash.c ****           FLASH_Program_HalfWord(addresstmp, (uint16_t)pFlash.Data);
 566:./Drivers/STM32F1xx_HAL_Driver/Src/stm32f1xx_hal_flash.c ****         }
 567:./Drivers/STM32F1xx_HAL_Driver/Src/stm32f1xx_hal_flash.c ****         else
 568:./Drivers/STM32F1xx_HAL_Driver/Src/stm32f1xx_hal_flash.c ****         {
 569:./Drivers/STM32F1xx_HAL_Driver/Src/stm32f1xx_hal_flash.c ****           /*Program ended. Return the selected address*/
 570:./Drivers/STM32F1xx_HAL_Driver/Src/stm32f1xx_hal_flash.c ****           /* FLASH EOP interrupt user callback */
 571:./Drivers/STM32F1xx_HAL_Driver/Src/stm32f1xx_hal_flash.c ****           if (pFlash.ProcedureOnGoing == FLASH_PROC_PROGRAMHALFWORD)
 572:./Drivers/STM32F1xx_HAL_Driver/Src/stm32f1xx_hal_flash.c ****           {
 573:./Drivers/STM32F1xx_HAL_Driver/Src/stm32f1xx_hal_flash.c ****             HAL_FLASH_EndOfOperationCallback(pFlash.Address);
 574:./Drivers/STM32F1xx_HAL_Driver/Src/stm32f1xx_hal_flash.c ****           }
 575:./Drivers/STM32F1xx_HAL_Driver/Src/stm32f1xx_hal_flash.c ****           else if (pFlash.ProcedureOnGoing == FLASH_PROC_PROGRAMWORD)
 576:./Drivers/STM32F1xx_HAL_Driver/Src/stm32f1xx_hal_flash.c ****           {
 577:./Drivers/STM32F1xx_HAL_Driver/Src/stm32f1xx_hal_flash.c ****             HAL_FLASH_EndOfOperationCallback(pFlash.Address-2);
 578:./Drivers/STM32F1xx_HAL_Driver/Src/stm32f1xx_hal_flash.c ****           }
 579:./Drivers/STM32F1xx_HAL_Driver/Src/stm32f1xx_hal_flash.c ****           else 
 580:./Drivers/STM32F1xx_HAL_Driver/Src/stm32f1xx_hal_flash.c ****           {
 581:./Drivers/STM32F1xx_HAL_Driver/Src/stm32f1xx_hal_flash.c ****             HAL_FLASH_EndOfOperationCallback(pFlash.Address-6);
 582:./Drivers/STM32F1xx_HAL_Driver/Src/stm32f1xx_hal_flash.c ****           }
 583:./Drivers/STM32F1xx_HAL_Driver/Src/stm32f1xx_hal_flash.c ****           
 584:./Drivers/STM32F1xx_HAL_Driver/Src/stm32f1xx_hal_flash.c ****           /* Reset Address and stop Program procedure*/
 585:./Drivers/STM32F1xx_HAL_Driver/Src/stm32f1xx_hal_flash.c ****           pFlash.Address = 0xFFFFFFFF;
 586:./Drivers/STM32F1xx_HAL_Driver/Src/stm32f1xx_hal_flash.c ****           pFlash.ProcedureOnGoing = FLASH_PROC_NONE;
 587:./Drivers/STM32F1xx_HAL_Driver/Src/stm32f1xx_hal_flash.c ****         }
 588:./Drivers/STM32F1xx_HAL_Driver/Src/stm32f1xx_hal_flash.c ****       }
 589:./Drivers/STM32F1xx_HAL_Driver/Src/stm32f1xx_hal_flash.c ****     }
 590:./Drivers/STM32F1xx_HAL_Driver/Src/stm32f1xx_hal_flash.c ****   }
 591:./Drivers/STM32F1xx_HAL_Driver/Src/stm32f1xx_hal_flash.c **** #endif 
 592:./Drivers/STM32F1xx_HAL_Driver/Src/stm32f1xx_hal_flash.c **** 
 593:./Drivers/STM32F1xx_HAL_Driver/Src/stm32f1xx_hal_flash.c ****   if(pFlash.ProcedureOnGoing == FLASH_PROC_NONE)
 594:./Drivers/STM32F1xx_HAL_Driver/Src/stm32f1xx_hal_flash.c ****   {
 595:./Drivers/STM32F1xx_HAL_Driver/Src/stm32f1xx_hal_flash.c **** #if defined(FLASH_BANK2_END)
 596:./Drivers/STM32F1xx_HAL_Driver/Src/stm32f1xx_hal_flash.c ****     /* Operation is completed, disable the PG, PER and MER Bits for both bank */
 597:./Drivers/STM32F1xx_HAL_Driver/Src/stm32f1xx_hal_flash.c ****     CLEAR_BIT(FLASH->CR, (FLASH_CR_PG | FLASH_CR_PER | FLASH_CR_MER));
 598:./Drivers/STM32F1xx_HAL_Driver/Src/stm32f1xx_hal_flash.c ****     CLEAR_BIT(FLASH->CR2, (FLASH_CR2_PG | FLASH_CR2_PER | FLASH_CR2_MER));  
 599:./Drivers/STM32F1xx_HAL_Driver/Src/stm32f1xx_hal_flash.c ****   
 600:./Drivers/STM32F1xx_HAL_Driver/Src/stm32f1xx_hal_flash.c ****     /* Disable End of FLASH Operation and Error source interrupts for both banks */
 601:./Drivers/STM32F1xx_HAL_Driver/Src/stm32f1xx_hal_flash.c ****     __HAL_FLASH_DISABLE_IT(FLASH_IT_EOP_BANK1 | FLASH_IT_ERR_BANK1 | FLASH_IT_EOP_BANK2 | FLASH_IT_
 602:./Drivers/STM32F1xx_HAL_Driver/Src/stm32f1xx_hal_flash.c **** #else
 603:./Drivers/STM32F1xx_HAL_Driver/Src/stm32f1xx_hal_flash.c ****     /* Operation is completed, disable the PG, PER and MER Bits */
ARM GAS  /tmp/cc24Z0QC.s 			page 12


 604:./Drivers/STM32F1xx_HAL_Driver/Src/stm32f1xx_hal_flash.c ****     CLEAR_BIT(FLASH->CR, (FLASH_CR_PG | FLASH_CR_PER | FLASH_CR_MER));
 605:./Drivers/STM32F1xx_HAL_Driver/Src/stm32f1xx_hal_flash.c **** 
 606:./Drivers/STM32F1xx_HAL_Driver/Src/stm32f1xx_hal_flash.c ****     /* Disable End of FLASH Operation and Error source interrupts */
 607:./Drivers/STM32F1xx_HAL_Driver/Src/stm32f1xx_hal_flash.c ****     __HAL_FLASH_DISABLE_IT(FLASH_IT_EOP | FLASH_IT_ERR);
 608:./Drivers/STM32F1xx_HAL_Driver/Src/stm32f1xx_hal_flash.c **** #endif /* FLASH_BANK2_END */
 609:./Drivers/STM32F1xx_HAL_Driver/Src/stm32f1xx_hal_flash.c **** 
 610:./Drivers/STM32F1xx_HAL_Driver/Src/stm32f1xx_hal_flash.c ****     /* Process Unlocked */
 611:./Drivers/STM32F1xx_HAL_Driver/Src/stm32f1xx_hal_flash.c ****     __HAL_UNLOCK(&pFlash);
 612:./Drivers/STM32F1xx_HAL_Driver/Src/stm32f1xx_hal_flash.c ****   }
 613:./Drivers/STM32F1xx_HAL_Driver/Src/stm32f1xx_hal_flash.c **** }
 614:./Drivers/STM32F1xx_HAL_Driver/Src/stm32f1xx_hal_flash.c **** 
 615:./Drivers/STM32F1xx_HAL_Driver/Src/stm32f1xx_hal_flash.c **** 
 616:./Drivers/STM32F1xx_HAL_Driver/Src/stm32f1xx_hal_flash.c **** /**
 617:./Drivers/STM32F1xx_HAL_Driver/Src/stm32f1xx_hal_flash.c ****   * @brief  FLASH end of operation interrupt callback
 618:./Drivers/STM32F1xx_HAL_Driver/Src/stm32f1xx_hal_flash.c ****   * @param  ReturnValue: The value saved in this parameter depends on the ongoing procedure
 619:./Drivers/STM32F1xx_HAL_Driver/Src/stm32f1xx_hal_flash.c ****   *                 - Mass Erase: No return value expected
 620:./Drivers/STM32F1xx_HAL_Driver/Src/stm32f1xx_hal_flash.c ****   *                 - Pages Erase: Address of the page which has been erased 
 621:./Drivers/STM32F1xx_HAL_Driver/Src/stm32f1xx_hal_flash.c ****   *                    (if 0xFFFFFFFF, it means that all the selected pages have been erased)
 622:./Drivers/STM32F1xx_HAL_Driver/Src/stm32f1xx_hal_flash.c ****   *                 - Program: Address which was selected for data program
 623:./Drivers/STM32F1xx_HAL_Driver/Src/stm32f1xx_hal_flash.c ****   * @retval none
 624:./Drivers/STM32F1xx_HAL_Driver/Src/stm32f1xx_hal_flash.c ****   */
 625:./Drivers/STM32F1xx_HAL_Driver/Src/stm32f1xx_hal_flash.c **** __weak void HAL_FLASH_EndOfOperationCallback(uint32_t ReturnValue)
 626:./Drivers/STM32F1xx_HAL_Driver/Src/stm32f1xx_hal_flash.c **** {
 627:./Drivers/STM32F1xx_HAL_Driver/Src/stm32f1xx_hal_flash.c ****   /* Prevent unused argument(s) compilation warning */
 628:./Drivers/STM32F1xx_HAL_Driver/Src/stm32f1xx_hal_flash.c ****   UNUSED(ReturnValue);
 629:./Drivers/STM32F1xx_HAL_Driver/Src/stm32f1xx_hal_flash.c ****   /* NOTE : This function Should not be modified, when the callback is needed,
 630:./Drivers/STM32F1xx_HAL_Driver/Src/stm32f1xx_hal_flash.c ****             the HAL_FLASH_EndOfOperationCallback could be implemented in the user file
 631:./Drivers/STM32F1xx_HAL_Driver/Src/stm32f1xx_hal_flash.c ****    */ 
 632:./Drivers/STM32F1xx_HAL_Driver/Src/stm32f1xx_hal_flash.c **** }
 633:./Drivers/STM32F1xx_HAL_Driver/Src/stm32f1xx_hal_flash.c **** 
 634:./Drivers/STM32F1xx_HAL_Driver/Src/stm32f1xx_hal_flash.c **** /**
 635:./Drivers/STM32F1xx_HAL_Driver/Src/stm32f1xx_hal_flash.c ****   * @brief  FLASH operation error interrupt callback
 636:./Drivers/STM32F1xx_HAL_Driver/Src/stm32f1xx_hal_flash.c ****   * @param  ReturnValue: The value saved in this parameter depends on the ongoing procedure
 637:./Drivers/STM32F1xx_HAL_Driver/Src/stm32f1xx_hal_flash.c ****   *                 - Mass Erase: No return value expected
 638:./Drivers/STM32F1xx_HAL_Driver/Src/stm32f1xx_hal_flash.c ****   *                 - Pages Erase: Address of the page which returned an error
 639:./Drivers/STM32F1xx_HAL_Driver/Src/stm32f1xx_hal_flash.c ****   *                 - Program: Address which was selected for data program
 640:./Drivers/STM32F1xx_HAL_Driver/Src/stm32f1xx_hal_flash.c ****   * @retval none
 641:./Drivers/STM32F1xx_HAL_Driver/Src/stm32f1xx_hal_flash.c ****   */
 642:./Drivers/STM32F1xx_HAL_Driver/Src/stm32f1xx_hal_flash.c **** __weak void HAL_FLASH_OperationErrorCallback(uint32_t ReturnValue)
 643:./Drivers/STM32F1xx_HAL_Driver/Src/stm32f1xx_hal_flash.c **** {
 644:./Drivers/STM32F1xx_HAL_Driver/Src/stm32f1xx_hal_flash.c ****   /* Prevent unused argument(s) compilation warning */
 645:./Drivers/STM32F1xx_HAL_Driver/Src/stm32f1xx_hal_flash.c ****   UNUSED(ReturnValue);
 646:./Drivers/STM32F1xx_HAL_Driver/Src/stm32f1xx_hal_flash.c ****   /* NOTE : This function Should not be modified, when the callback is needed,
 647:./Drivers/STM32F1xx_HAL_Driver/Src/stm32f1xx_hal_flash.c ****             the HAL_FLASH_OperationErrorCallback could be implemented in the user file
 648:./Drivers/STM32F1xx_HAL_Driver/Src/stm32f1xx_hal_flash.c ****    */ 
 649:./Drivers/STM32F1xx_HAL_Driver/Src/stm32f1xx_hal_flash.c **** }
 650:./Drivers/STM32F1xx_HAL_Driver/Src/stm32f1xx_hal_flash.c **** 
 651:./Drivers/STM32F1xx_HAL_Driver/Src/stm32f1xx_hal_flash.c **** /**
 652:./Drivers/STM32F1xx_HAL_Driver/Src/stm32f1xx_hal_flash.c ****   * @}
 653:./Drivers/STM32F1xx_HAL_Driver/Src/stm32f1xx_hal_flash.c ****   */
 654:./Drivers/STM32F1xx_HAL_Driver/Src/stm32f1xx_hal_flash.c **** 
 655:./Drivers/STM32F1xx_HAL_Driver/Src/stm32f1xx_hal_flash.c **** /** @defgroup FLASH_Exported_Functions_Group2 Peripheral Control functions 
 656:./Drivers/STM32F1xx_HAL_Driver/Src/stm32f1xx_hal_flash.c ****  *  @brief   management functions 
 657:./Drivers/STM32F1xx_HAL_Driver/Src/stm32f1xx_hal_flash.c ****  *
 658:./Drivers/STM32F1xx_HAL_Driver/Src/stm32f1xx_hal_flash.c **** @verbatim   
 659:./Drivers/STM32F1xx_HAL_Driver/Src/stm32f1xx_hal_flash.c ****  ===============================================================================
 660:./Drivers/STM32F1xx_HAL_Driver/Src/stm32f1xx_hal_flash.c ****                       ##### Peripheral Control functions #####
ARM GAS  /tmp/cc24Z0QC.s 			page 13


 661:./Drivers/STM32F1xx_HAL_Driver/Src/stm32f1xx_hal_flash.c ****  ===============================================================================  
 662:./Drivers/STM32F1xx_HAL_Driver/Src/stm32f1xx_hal_flash.c ****     [..]
 663:./Drivers/STM32F1xx_HAL_Driver/Src/stm32f1xx_hal_flash.c ****     This subsection provides a set of functions allowing to control the FLASH 
 664:./Drivers/STM32F1xx_HAL_Driver/Src/stm32f1xx_hal_flash.c ****     memory operations.
 665:./Drivers/STM32F1xx_HAL_Driver/Src/stm32f1xx_hal_flash.c **** 
 666:./Drivers/STM32F1xx_HAL_Driver/Src/stm32f1xx_hal_flash.c **** @endverbatim
 667:./Drivers/STM32F1xx_HAL_Driver/Src/stm32f1xx_hal_flash.c ****   * @{
 668:./Drivers/STM32F1xx_HAL_Driver/Src/stm32f1xx_hal_flash.c ****   */
 669:./Drivers/STM32F1xx_HAL_Driver/Src/stm32f1xx_hal_flash.c **** 
 670:./Drivers/STM32F1xx_HAL_Driver/Src/stm32f1xx_hal_flash.c **** /**
 671:./Drivers/STM32F1xx_HAL_Driver/Src/stm32f1xx_hal_flash.c ****   * @brief  Unlock the FLASH control register access
 672:./Drivers/STM32F1xx_HAL_Driver/Src/stm32f1xx_hal_flash.c ****   * @retval HAL Status
 673:./Drivers/STM32F1xx_HAL_Driver/Src/stm32f1xx_hal_flash.c ****   */
 674:./Drivers/STM32F1xx_HAL_Driver/Src/stm32f1xx_hal_flash.c **** HAL_StatusTypeDef HAL_FLASH_Unlock(void)
 675:./Drivers/STM32F1xx_HAL_Driver/Src/stm32f1xx_hal_flash.c **** {
 676:./Drivers/STM32F1xx_HAL_Driver/Src/stm32f1xx_hal_flash.c ****   if (HAL_IS_BIT_SET(FLASH->CR, FLASH_CR_LOCK))
 677:./Drivers/STM32F1xx_HAL_Driver/Src/stm32f1xx_hal_flash.c ****   {
 678:./Drivers/STM32F1xx_HAL_Driver/Src/stm32f1xx_hal_flash.c ****     /* Authorize the FLASH Registers access */
 679:./Drivers/STM32F1xx_HAL_Driver/Src/stm32f1xx_hal_flash.c ****     WRITE_REG(FLASH->KEYR, FLASH_KEY1);
 680:./Drivers/STM32F1xx_HAL_Driver/Src/stm32f1xx_hal_flash.c ****     WRITE_REG(FLASH->KEYR, FLASH_KEY2);
 681:./Drivers/STM32F1xx_HAL_Driver/Src/stm32f1xx_hal_flash.c ****   }
 682:./Drivers/STM32F1xx_HAL_Driver/Src/stm32f1xx_hal_flash.c ****   else
 683:./Drivers/STM32F1xx_HAL_Driver/Src/stm32f1xx_hal_flash.c ****   {
 684:./Drivers/STM32F1xx_HAL_Driver/Src/stm32f1xx_hal_flash.c ****     return HAL_ERROR;
 685:./Drivers/STM32F1xx_HAL_Driver/Src/stm32f1xx_hal_flash.c ****   }
 686:./Drivers/STM32F1xx_HAL_Driver/Src/stm32f1xx_hal_flash.c **** 
 687:./Drivers/STM32F1xx_HAL_Driver/Src/stm32f1xx_hal_flash.c **** #if defined(FLASH_BANK2_END)
 688:./Drivers/STM32F1xx_HAL_Driver/Src/stm32f1xx_hal_flash.c ****   if (HAL_IS_BIT_SET(FLASH->CR2, FLASH_CR2_LOCK))
 689:./Drivers/STM32F1xx_HAL_Driver/Src/stm32f1xx_hal_flash.c ****   {
 690:./Drivers/STM32F1xx_HAL_Driver/Src/stm32f1xx_hal_flash.c ****     /* Authorize the FLASH BANK2 Registers access */
 691:./Drivers/STM32F1xx_HAL_Driver/Src/stm32f1xx_hal_flash.c ****     WRITE_REG(FLASH->KEYR2, FLASH_KEY1);
 692:./Drivers/STM32F1xx_HAL_Driver/Src/stm32f1xx_hal_flash.c ****     WRITE_REG(FLASH->KEYR2, FLASH_KEY2);
 693:./Drivers/STM32F1xx_HAL_Driver/Src/stm32f1xx_hal_flash.c ****   }
 694:./Drivers/STM32F1xx_HAL_Driver/Src/stm32f1xx_hal_flash.c ****   else
 695:./Drivers/STM32F1xx_HAL_Driver/Src/stm32f1xx_hal_flash.c ****   {
 696:./Drivers/STM32F1xx_HAL_Driver/Src/stm32f1xx_hal_flash.c ****     return HAL_ERROR;
 697:./Drivers/STM32F1xx_HAL_Driver/Src/stm32f1xx_hal_flash.c ****   }
 698:./Drivers/STM32F1xx_HAL_Driver/Src/stm32f1xx_hal_flash.c ****   
 699:./Drivers/STM32F1xx_HAL_Driver/Src/stm32f1xx_hal_flash.c **** #endif /* FLASH_BANK2_END */
 700:./Drivers/STM32F1xx_HAL_Driver/Src/stm32f1xx_hal_flash.c ****   return HAL_OK; 
 701:./Drivers/STM32F1xx_HAL_Driver/Src/stm32f1xx_hal_flash.c **** }
 702:./Drivers/STM32F1xx_HAL_Driver/Src/stm32f1xx_hal_flash.c **** 
 703:./Drivers/STM32F1xx_HAL_Driver/Src/stm32f1xx_hal_flash.c **** /**
 704:./Drivers/STM32F1xx_HAL_Driver/Src/stm32f1xx_hal_flash.c ****   * @brief  Locks the FLASH control register access
 705:./Drivers/STM32F1xx_HAL_Driver/Src/stm32f1xx_hal_flash.c ****   * @retval HAL Status
 706:./Drivers/STM32F1xx_HAL_Driver/Src/stm32f1xx_hal_flash.c ****   */
 707:./Drivers/STM32F1xx_HAL_Driver/Src/stm32f1xx_hal_flash.c **** HAL_StatusTypeDef HAL_FLASH_Lock(void)
 708:./Drivers/STM32F1xx_HAL_Driver/Src/stm32f1xx_hal_flash.c **** {
 709:./Drivers/STM32F1xx_HAL_Driver/Src/stm32f1xx_hal_flash.c ****   /* Set the LOCK Bit to lock the FLASH Registers access */
 710:./Drivers/STM32F1xx_HAL_Driver/Src/stm32f1xx_hal_flash.c ****   SET_BIT(FLASH->CR, FLASH_CR_LOCK);
 711:./Drivers/STM32F1xx_HAL_Driver/Src/stm32f1xx_hal_flash.c ****   
 712:./Drivers/STM32F1xx_HAL_Driver/Src/stm32f1xx_hal_flash.c **** #if defined(FLASH_BANK2_END)
 713:./Drivers/STM32F1xx_HAL_Driver/Src/stm32f1xx_hal_flash.c ****   /* Set the LOCK Bit to lock the FLASH BANK2 Registers access */
 714:./Drivers/STM32F1xx_HAL_Driver/Src/stm32f1xx_hal_flash.c ****   SET_BIT(FLASH->CR2, FLASH_CR2_LOCK);
 715:./Drivers/STM32F1xx_HAL_Driver/Src/stm32f1xx_hal_flash.c **** #endif /* FLASH_BANK2_END */
 716:./Drivers/STM32F1xx_HAL_Driver/Src/stm32f1xx_hal_flash.c **** 
 717:./Drivers/STM32F1xx_HAL_Driver/Src/stm32f1xx_hal_flash.c ****   return HAL_OK;  
ARM GAS  /tmp/cc24Z0QC.s 			page 14


 718:./Drivers/STM32F1xx_HAL_Driver/Src/stm32f1xx_hal_flash.c **** }
 719:./Drivers/STM32F1xx_HAL_Driver/Src/stm32f1xx_hal_flash.c **** 
 720:./Drivers/STM32F1xx_HAL_Driver/Src/stm32f1xx_hal_flash.c **** 
 721:./Drivers/STM32F1xx_HAL_Driver/Src/stm32f1xx_hal_flash.c **** /**
 722:./Drivers/STM32F1xx_HAL_Driver/Src/stm32f1xx_hal_flash.c ****   * @brief  Unlock the FLASH Option Control Registers access.
 723:./Drivers/STM32F1xx_HAL_Driver/Src/stm32f1xx_hal_flash.c ****   * @retval HAL Status
 724:./Drivers/STM32F1xx_HAL_Driver/Src/stm32f1xx_hal_flash.c ****   */
 725:./Drivers/STM32F1xx_HAL_Driver/Src/stm32f1xx_hal_flash.c **** HAL_StatusTypeDef HAL_FLASH_OB_Unlock(void)
 726:./Drivers/STM32F1xx_HAL_Driver/Src/stm32f1xx_hal_flash.c **** {
 727:./Drivers/STM32F1xx_HAL_Driver/Src/stm32f1xx_hal_flash.c ****   if (HAL_IS_BIT_CLR(FLASH->CR, FLASH_CR_OPTWRE))
 728:./Drivers/STM32F1xx_HAL_Driver/Src/stm32f1xx_hal_flash.c ****   {
 729:./Drivers/STM32F1xx_HAL_Driver/Src/stm32f1xx_hal_flash.c ****     /* Authorizes the Option Byte register programming */
 730:./Drivers/STM32F1xx_HAL_Driver/Src/stm32f1xx_hal_flash.c ****     WRITE_REG(FLASH->OPTKEYR, FLASH_OPTKEY1);
 731:./Drivers/STM32F1xx_HAL_Driver/Src/stm32f1xx_hal_flash.c ****     WRITE_REG(FLASH->OPTKEYR, FLASH_OPTKEY2);
 732:./Drivers/STM32F1xx_HAL_Driver/Src/stm32f1xx_hal_flash.c ****   }
 733:./Drivers/STM32F1xx_HAL_Driver/Src/stm32f1xx_hal_flash.c ****   else
 734:./Drivers/STM32F1xx_HAL_Driver/Src/stm32f1xx_hal_flash.c ****   {
 735:./Drivers/STM32F1xx_HAL_Driver/Src/stm32f1xx_hal_flash.c ****     return HAL_ERROR;
 736:./Drivers/STM32F1xx_HAL_Driver/Src/stm32f1xx_hal_flash.c ****   }  
 737:./Drivers/STM32F1xx_HAL_Driver/Src/stm32f1xx_hal_flash.c ****   
 738:./Drivers/STM32F1xx_HAL_Driver/Src/stm32f1xx_hal_flash.c ****   return HAL_OK;  
 739:./Drivers/STM32F1xx_HAL_Driver/Src/stm32f1xx_hal_flash.c **** }
 740:./Drivers/STM32F1xx_HAL_Driver/Src/stm32f1xx_hal_flash.c **** 
 741:./Drivers/STM32F1xx_HAL_Driver/Src/stm32f1xx_hal_flash.c **** /**
 742:./Drivers/STM32F1xx_HAL_Driver/Src/stm32f1xx_hal_flash.c ****   * @brief  Lock the FLASH Option Control Registers access.
 743:./Drivers/STM32F1xx_HAL_Driver/Src/stm32f1xx_hal_flash.c ****   * @retval HAL Status 
 744:./Drivers/STM32F1xx_HAL_Driver/Src/stm32f1xx_hal_flash.c ****   */
 745:./Drivers/STM32F1xx_HAL_Driver/Src/stm32f1xx_hal_flash.c **** HAL_StatusTypeDef HAL_FLASH_OB_Lock(void)
 746:./Drivers/STM32F1xx_HAL_Driver/Src/stm32f1xx_hal_flash.c **** {
 747:./Drivers/STM32F1xx_HAL_Driver/Src/stm32f1xx_hal_flash.c ****   /* Clear the OPTWRE Bit to lock the FLASH Option Byte Registers access */
 748:./Drivers/STM32F1xx_HAL_Driver/Src/stm32f1xx_hal_flash.c ****   CLEAR_BIT(FLASH->CR, FLASH_CR_OPTWRE);
 749:./Drivers/STM32F1xx_HAL_Driver/Src/stm32f1xx_hal_flash.c ****   
 750:./Drivers/STM32F1xx_HAL_Driver/Src/stm32f1xx_hal_flash.c ****   return HAL_OK;  
 751:./Drivers/STM32F1xx_HAL_Driver/Src/stm32f1xx_hal_flash.c **** }
 752:./Drivers/STM32F1xx_HAL_Driver/Src/stm32f1xx_hal_flash.c ****   
 753:./Drivers/STM32F1xx_HAL_Driver/Src/stm32f1xx_hal_flash.c **** /**
 754:./Drivers/STM32F1xx_HAL_Driver/Src/stm32f1xx_hal_flash.c ****   * @brief  Launch the option byte loading.
 755:./Drivers/STM32F1xx_HAL_Driver/Src/stm32f1xx_hal_flash.c ****   * @note   This function will reset automatically the MCU.
 756:./Drivers/STM32F1xx_HAL_Driver/Src/stm32f1xx_hal_flash.c ****   * @retval HAL_StatusTypeDef HAL Status
 757:./Drivers/STM32F1xx_HAL_Driver/Src/stm32f1xx_hal_flash.c ****   */
 758:./Drivers/STM32F1xx_HAL_Driver/Src/stm32f1xx_hal_flash.c **** HAL_StatusTypeDef HAL_FLASH_OB_Launch(void)
 759:./Drivers/STM32F1xx_HAL_Driver/Src/stm32f1xx_hal_flash.c **** {
 760:./Drivers/STM32F1xx_HAL_Driver/Src/stm32f1xx_hal_flash.c ****   /* Initiates a system reset request to launch the option byte loading */
 761:./Drivers/STM32F1xx_HAL_Driver/Src/stm32f1xx_hal_flash.c ****   HAL_NVIC_SystemReset();
 762:./Drivers/STM32F1xx_HAL_Driver/Src/stm32f1xx_hal_flash.c ****   
 763:./Drivers/STM32F1xx_HAL_Driver/Src/stm32f1xx_hal_flash.c ****   return HAL_OK;  
 764:./Drivers/STM32F1xx_HAL_Driver/Src/stm32f1xx_hal_flash.c **** }
 765:./Drivers/STM32F1xx_HAL_Driver/Src/stm32f1xx_hal_flash.c **** 
 766:./Drivers/STM32F1xx_HAL_Driver/Src/stm32f1xx_hal_flash.c **** /**
 767:./Drivers/STM32F1xx_HAL_Driver/Src/stm32f1xx_hal_flash.c ****   * @}
 768:./Drivers/STM32F1xx_HAL_Driver/Src/stm32f1xx_hal_flash.c ****   */  
 769:./Drivers/STM32F1xx_HAL_Driver/Src/stm32f1xx_hal_flash.c **** 
 770:./Drivers/STM32F1xx_HAL_Driver/Src/stm32f1xx_hal_flash.c **** /** @defgroup FLASH_Exported_Functions_Group3 Peripheral State functions 
 771:./Drivers/STM32F1xx_HAL_Driver/Src/stm32f1xx_hal_flash.c ****  *  @brief   Peripheral State functions 
 772:./Drivers/STM32F1xx_HAL_Driver/Src/stm32f1xx_hal_flash.c ****  *
 773:./Drivers/STM32F1xx_HAL_Driver/Src/stm32f1xx_hal_flash.c **** @verbatim   
 774:./Drivers/STM32F1xx_HAL_Driver/Src/stm32f1xx_hal_flash.c ****  ===============================================================================
ARM GAS  /tmp/cc24Z0QC.s 			page 15


 775:./Drivers/STM32F1xx_HAL_Driver/Src/stm32f1xx_hal_flash.c ****                       ##### Peripheral State functions #####
 776:./Drivers/STM32F1xx_HAL_Driver/Src/stm32f1xx_hal_flash.c ****  ===============================================================================  
 777:./Drivers/STM32F1xx_HAL_Driver/Src/stm32f1xx_hal_flash.c ****     [..]
 778:./Drivers/STM32F1xx_HAL_Driver/Src/stm32f1xx_hal_flash.c ****     This subsection permit to get in run-time the status of the FLASH peripheral.
 779:./Drivers/STM32F1xx_HAL_Driver/Src/stm32f1xx_hal_flash.c **** 
 780:./Drivers/STM32F1xx_HAL_Driver/Src/stm32f1xx_hal_flash.c **** @endverbatim
 781:./Drivers/STM32F1xx_HAL_Driver/Src/stm32f1xx_hal_flash.c ****   * @{
 782:./Drivers/STM32F1xx_HAL_Driver/Src/stm32f1xx_hal_flash.c ****   */
 783:./Drivers/STM32F1xx_HAL_Driver/Src/stm32f1xx_hal_flash.c **** 
 784:./Drivers/STM32F1xx_HAL_Driver/Src/stm32f1xx_hal_flash.c **** /**
 785:./Drivers/STM32F1xx_HAL_Driver/Src/stm32f1xx_hal_flash.c ****   * @brief  Get the specific FLASH error flag.
 786:./Drivers/STM32F1xx_HAL_Driver/Src/stm32f1xx_hal_flash.c ****   * @retval FLASH_ErrorCode: The returned value can be:
 787:./Drivers/STM32F1xx_HAL_Driver/Src/stm32f1xx_hal_flash.c ****   *            @ref FLASH_Error_Codes
 788:./Drivers/STM32F1xx_HAL_Driver/Src/stm32f1xx_hal_flash.c ****   */
 789:./Drivers/STM32F1xx_HAL_Driver/Src/stm32f1xx_hal_flash.c **** uint32_t HAL_FLASH_GetError(void)
 790:./Drivers/STM32F1xx_HAL_Driver/Src/stm32f1xx_hal_flash.c **** { 
 791:./Drivers/STM32F1xx_HAL_Driver/Src/stm32f1xx_hal_flash.c ****    return pFlash.ErrorCode;
 792:./Drivers/STM32F1xx_HAL_Driver/Src/stm32f1xx_hal_flash.c **** }  
 793:./Drivers/STM32F1xx_HAL_Driver/Src/stm32f1xx_hal_flash.c **** /**
 794:./Drivers/STM32F1xx_HAL_Driver/Src/stm32f1xx_hal_flash.c ****   * @}
 795:./Drivers/STM32F1xx_HAL_Driver/Src/stm32f1xx_hal_flash.c ****   */
 796:./Drivers/STM32F1xx_HAL_Driver/Src/stm32f1xx_hal_flash.c **** 
 797:./Drivers/STM32F1xx_HAL_Driver/Src/stm32f1xx_hal_flash.c **** /**
 798:./Drivers/STM32F1xx_HAL_Driver/Src/stm32f1xx_hal_flash.c ****   * @}
 799:./Drivers/STM32F1xx_HAL_Driver/Src/stm32f1xx_hal_flash.c ****   */
 800:./Drivers/STM32F1xx_HAL_Driver/Src/stm32f1xx_hal_flash.c **** 
 801:./Drivers/STM32F1xx_HAL_Driver/Src/stm32f1xx_hal_flash.c **** /** @addtogroup FLASH_Private_Functions
 802:./Drivers/STM32F1xx_HAL_Driver/Src/stm32f1xx_hal_flash.c ****  * @{
 803:./Drivers/STM32F1xx_HAL_Driver/Src/stm32f1xx_hal_flash.c ****  */
 804:./Drivers/STM32F1xx_HAL_Driver/Src/stm32f1xx_hal_flash.c **** 
 805:./Drivers/STM32F1xx_HAL_Driver/Src/stm32f1xx_hal_flash.c **** /**
 806:./Drivers/STM32F1xx_HAL_Driver/Src/stm32f1xx_hal_flash.c ****   * @brief  Program a half-word (16-bit) at a specified address.
 807:./Drivers/STM32F1xx_HAL_Driver/Src/stm32f1xx_hal_flash.c ****   * @param  Address: specifies the address to be programmed.
 808:./Drivers/STM32F1xx_HAL_Driver/Src/stm32f1xx_hal_flash.c ****   * @param  Data: specifies the data to be programmed.
 809:./Drivers/STM32F1xx_HAL_Driver/Src/stm32f1xx_hal_flash.c ****   * @retval None
 810:./Drivers/STM32F1xx_HAL_Driver/Src/stm32f1xx_hal_flash.c ****   */
 811:./Drivers/STM32F1xx_HAL_Driver/Src/stm32f1xx_hal_flash.c **** static void FLASH_Program_HalfWord(uint32_t Address, uint16_t Data)
 812:./Drivers/STM32F1xx_HAL_Driver/Src/stm32f1xx_hal_flash.c **** {
  26              		.loc 1 812 0
  27              		.cfi_startproc
  28              		@ args = 0, pretend = 0, frame = 0
  29              		@ frame_needed = 0, uses_anonymous_args = 0
  30              		@ link register save eliminated.
  31              	.LVL0:
 813:./Drivers/STM32F1xx_HAL_Driver/Src/stm32f1xx_hal_flash.c ****   /* Clean the error context */
 814:./Drivers/STM32F1xx_HAL_Driver/Src/stm32f1xx_hal_flash.c ****   pFlash.ErrorCode = HAL_FLASH_ERROR_NONE;
  32              		.loc 1 814 0
  33 0000 0022     		movs	r2, #0
  34 0002 044B     		ldr	r3, .L2
  35 0004 DA61     		str	r2, [r3, #28]
 815:./Drivers/STM32F1xx_HAL_Driver/Src/stm32f1xx_hal_flash.c ****   
 816:./Drivers/STM32F1xx_HAL_Driver/Src/stm32f1xx_hal_flash.c **** #if defined(FLASH_BANK2_END)
 817:./Drivers/STM32F1xx_HAL_Driver/Src/stm32f1xx_hal_flash.c ****   if(Address <= FLASH_BANK1_END)
 818:./Drivers/STM32F1xx_HAL_Driver/Src/stm32f1xx_hal_flash.c ****   {
 819:./Drivers/STM32F1xx_HAL_Driver/Src/stm32f1xx_hal_flash.c **** #endif /* FLASH_BANK2_END */
 820:./Drivers/STM32F1xx_HAL_Driver/Src/stm32f1xx_hal_flash.c ****     /* Proceed to program the new data */
 821:./Drivers/STM32F1xx_HAL_Driver/Src/stm32f1xx_hal_flash.c ****     SET_BIT(FLASH->CR, FLASH_CR_PG);
ARM GAS  /tmp/cc24Z0QC.s 			page 16


  36              		.loc 1 821 0
  37 0006 044A     		ldr	r2, .L2+4
  38 0008 1369     		ldr	r3, [r2, #16]
  39 000a 43F00103 		orr	r3, r3, #1
  40 000e 1361     		str	r3, [r2, #16]
 822:./Drivers/STM32F1xx_HAL_Driver/Src/stm32f1xx_hal_flash.c **** #if defined(FLASH_BANK2_END)
 823:./Drivers/STM32F1xx_HAL_Driver/Src/stm32f1xx_hal_flash.c ****   }
 824:./Drivers/STM32F1xx_HAL_Driver/Src/stm32f1xx_hal_flash.c ****   else
 825:./Drivers/STM32F1xx_HAL_Driver/Src/stm32f1xx_hal_flash.c ****   {
 826:./Drivers/STM32F1xx_HAL_Driver/Src/stm32f1xx_hal_flash.c ****     /* Proceed to program the new data */
 827:./Drivers/STM32F1xx_HAL_Driver/Src/stm32f1xx_hal_flash.c ****     SET_BIT(FLASH->CR2, FLASH_CR2_PG);
 828:./Drivers/STM32F1xx_HAL_Driver/Src/stm32f1xx_hal_flash.c ****   }
 829:./Drivers/STM32F1xx_HAL_Driver/Src/stm32f1xx_hal_flash.c **** #endif /* FLASH_BANK2_END */
 830:./Drivers/STM32F1xx_HAL_Driver/Src/stm32f1xx_hal_flash.c **** 
 831:./Drivers/STM32F1xx_HAL_Driver/Src/stm32f1xx_hal_flash.c ****   /* Write data in the address */
 832:./Drivers/STM32F1xx_HAL_Driver/Src/stm32f1xx_hal_flash.c ****   *(__IO uint16_t*)Address = Data;
  41              		.loc 1 832 0
  42 0010 0180     		strh	r1, [r0]	@ movhi
  43 0012 7047     		bx	lr
  44              	.L3:
  45              		.align	2
  46              	.L2:
  47 0014 00000000 		.word	pFlash
  48 0018 00200240 		.word	1073881088
  49              		.cfi_endproc
  50              	.LFE74:
  52              		.section	.text.FLASH_SetErrorCode,"ax",%progbits
  53              		.align	2
  54              		.thumb
  55              		.thumb_func
  57              	FLASH_SetErrorCode:
  58              	.LFB76:
 833:./Drivers/STM32F1xx_HAL_Driver/Src/stm32f1xx_hal_flash.c **** }
 834:./Drivers/STM32F1xx_HAL_Driver/Src/stm32f1xx_hal_flash.c **** 
 835:./Drivers/STM32F1xx_HAL_Driver/Src/stm32f1xx_hal_flash.c **** /**
 836:./Drivers/STM32F1xx_HAL_Driver/Src/stm32f1xx_hal_flash.c ****   * @brief  Wait for a FLASH operation to complete.
 837:./Drivers/STM32F1xx_HAL_Driver/Src/stm32f1xx_hal_flash.c ****   * @param  Timeout: maximum flash operation timeout
 838:./Drivers/STM32F1xx_HAL_Driver/Src/stm32f1xx_hal_flash.c ****   * @retval HAL_StatusTypeDef HAL Status
 839:./Drivers/STM32F1xx_HAL_Driver/Src/stm32f1xx_hal_flash.c ****   */
 840:./Drivers/STM32F1xx_HAL_Driver/Src/stm32f1xx_hal_flash.c **** HAL_StatusTypeDef FLASH_WaitForLastOperation(uint32_t Timeout)
 841:./Drivers/STM32F1xx_HAL_Driver/Src/stm32f1xx_hal_flash.c **** {
 842:./Drivers/STM32F1xx_HAL_Driver/Src/stm32f1xx_hal_flash.c ****   /* Wait for the FLASH operation to complete by polling on BUSY flag to be reset.
 843:./Drivers/STM32F1xx_HAL_Driver/Src/stm32f1xx_hal_flash.c ****      Even if the FLASH operation fails, the BUSY flag will be reset and an error
 844:./Drivers/STM32F1xx_HAL_Driver/Src/stm32f1xx_hal_flash.c ****      flag will be set */
 845:./Drivers/STM32F1xx_HAL_Driver/Src/stm32f1xx_hal_flash.c ****      
 846:./Drivers/STM32F1xx_HAL_Driver/Src/stm32f1xx_hal_flash.c ****   uint32_t tickstart = HAL_GetTick();
 847:./Drivers/STM32F1xx_HAL_Driver/Src/stm32f1xx_hal_flash.c ****      
 848:./Drivers/STM32F1xx_HAL_Driver/Src/stm32f1xx_hal_flash.c ****   while(__HAL_FLASH_GET_FLAG(FLASH_FLAG_BSY)) 
 849:./Drivers/STM32F1xx_HAL_Driver/Src/stm32f1xx_hal_flash.c ****   { 
 850:./Drivers/STM32F1xx_HAL_Driver/Src/stm32f1xx_hal_flash.c ****     if (Timeout != HAL_MAX_DELAY)
 851:./Drivers/STM32F1xx_HAL_Driver/Src/stm32f1xx_hal_flash.c ****     {
 852:./Drivers/STM32F1xx_HAL_Driver/Src/stm32f1xx_hal_flash.c ****       if((Timeout == 0) || ((HAL_GetTick()-tickstart) > Timeout))
 853:./Drivers/STM32F1xx_HAL_Driver/Src/stm32f1xx_hal_flash.c ****       {
 854:./Drivers/STM32F1xx_HAL_Driver/Src/stm32f1xx_hal_flash.c ****         return HAL_TIMEOUT;
 855:./Drivers/STM32F1xx_HAL_Driver/Src/stm32f1xx_hal_flash.c ****       }
 856:./Drivers/STM32F1xx_HAL_Driver/Src/stm32f1xx_hal_flash.c ****     }
 857:./Drivers/STM32F1xx_HAL_Driver/Src/stm32f1xx_hal_flash.c ****   }
ARM GAS  /tmp/cc24Z0QC.s 			page 17


 858:./Drivers/STM32F1xx_HAL_Driver/Src/stm32f1xx_hal_flash.c ****   
 859:./Drivers/STM32F1xx_HAL_Driver/Src/stm32f1xx_hal_flash.c ****   /* Check FLASH End of Operation flag  */
 860:./Drivers/STM32F1xx_HAL_Driver/Src/stm32f1xx_hal_flash.c ****   if (__HAL_FLASH_GET_FLAG(FLASH_FLAG_EOP))
 861:./Drivers/STM32F1xx_HAL_Driver/Src/stm32f1xx_hal_flash.c ****   {
 862:./Drivers/STM32F1xx_HAL_Driver/Src/stm32f1xx_hal_flash.c ****     /* Clear FLASH End of Operation pending bit */
 863:./Drivers/STM32F1xx_HAL_Driver/Src/stm32f1xx_hal_flash.c ****     __HAL_FLASH_CLEAR_FLAG(FLASH_FLAG_EOP);
 864:./Drivers/STM32F1xx_HAL_Driver/Src/stm32f1xx_hal_flash.c ****   }
 865:./Drivers/STM32F1xx_HAL_Driver/Src/stm32f1xx_hal_flash.c ****   
 866:./Drivers/STM32F1xx_HAL_Driver/Src/stm32f1xx_hal_flash.c ****   if(__HAL_FLASH_GET_FLAG(FLASH_FLAG_WRPERR)  || 
 867:./Drivers/STM32F1xx_HAL_Driver/Src/stm32f1xx_hal_flash.c ****      __HAL_FLASH_GET_FLAG(FLASH_FLAG_OPTVERR) || 
 868:./Drivers/STM32F1xx_HAL_Driver/Src/stm32f1xx_hal_flash.c ****      __HAL_FLASH_GET_FLAG(FLASH_FLAG_PGERR))
 869:./Drivers/STM32F1xx_HAL_Driver/Src/stm32f1xx_hal_flash.c ****   {
 870:./Drivers/STM32F1xx_HAL_Driver/Src/stm32f1xx_hal_flash.c ****     /*Save the error code*/
 871:./Drivers/STM32F1xx_HAL_Driver/Src/stm32f1xx_hal_flash.c ****     FLASH_SetErrorCode();
 872:./Drivers/STM32F1xx_HAL_Driver/Src/stm32f1xx_hal_flash.c ****     return HAL_ERROR;
 873:./Drivers/STM32F1xx_HAL_Driver/Src/stm32f1xx_hal_flash.c ****   }
 874:./Drivers/STM32F1xx_HAL_Driver/Src/stm32f1xx_hal_flash.c **** 
 875:./Drivers/STM32F1xx_HAL_Driver/Src/stm32f1xx_hal_flash.c ****   /* If there is no error flag set */
 876:./Drivers/STM32F1xx_HAL_Driver/Src/stm32f1xx_hal_flash.c ****   return HAL_OK;
 877:./Drivers/STM32F1xx_HAL_Driver/Src/stm32f1xx_hal_flash.c **** }
 878:./Drivers/STM32F1xx_HAL_Driver/Src/stm32f1xx_hal_flash.c **** 
 879:./Drivers/STM32F1xx_HAL_Driver/Src/stm32f1xx_hal_flash.c **** #if defined(FLASH_BANK2_END)
 880:./Drivers/STM32F1xx_HAL_Driver/Src/stm32f1xx_hal_flash.c **** /**
 881:./Drivers/STM32F1xx_HAL_Driver/Src/stm32f1xx_hal_flash.c ****   * @brief  Wait for a FLASH BANK2 operation to complete.
 882:./Drivers/STM32F1xx_HAL_Driver/Src/stm32f1xx_hal_flash.c ****   * @param  Timeout: maximum flash operation timeout
 883:./Drivers/STM32F1xx_HAL_Driver/Src/stm32f1xx_hal_flash.c ****   * @retval HAL_StatusTypeDef HAL Status
 884:./Drivers/STM32F1xx_HAL_Driver/Src/stm32f1xx_hal_flash.c ****   */
 885:./Drivers/STM32F1xx_HAL_Driver/Src/stm32f1xx_hal_flash.c **** HAL_StatusTypeDef FLASH_WaitForLastOperationBank2(uint32_t Timeout)
 886:./Drivers/STM32F1xx_HAL_Driver/Src/stm32f1xx_hal_flash.c **** { 
 887:./Drivers/STM32F1xx_HAL_Driver/Src/stm32f1xx_hal_flash.c ****   /* Wait for the FLASH BANK2 operation to complete by polling on BUSY flag to be reset.
 888:./Drivers/STM32F1xx_HAL_Driver/Src/stm32f1xx_hal_flash.c ****      Even if the FLASH BANK2 operation fails, the BUSY flag will be reset and an error
 889:./Drivers/STM32F1xx_HAL_Driver/Src/stm32f1xx_hal_flash.c ****      flag will be set */
 890:./Drivers/STM32F1xx_HAL_Driver/Src/stm32f1xx_hal_flash.c ****      
 891:./Drivers/STM32F1xx_HAL_Driver/Src/stm32f1xx_hal_flash.c ****   uint32_t tickstart = HAL_GetTick();
 892:./Drivers/STM32F1xx_HAL_Driver/Src/stm32f1xx_hal_flash.c ****      
 893:./Drivers/STM32F1xx_HAL_Driver/Src/stm32f1xx_hal_flash.c ****   while(__HAL_FLASH_GET_FLAG(FLASH_FLAG_BSY_BANK2)) 
 894:./Drivers/STM32F1xx_HAL_Driver/Src/stm32f1xx_hal_flash.c ****   { 
 895:./Drivers/STM32F1xx_HAL_Driver/Src/stm32f1xx_hal_flash.c ****     if (Timeout != HAL_MAX_DELAY)
 896:./Drivers/STM32F1xx_HAL_Driver/Src/stm32f1xx_hal_flash.c ****     {
 897:./Drivers/STM32F1xx_HAL_Driver/Src/stm32f1xx_hal_flash.c ****       if((Timeout == 0) || ((HAL_GetTick()-tickstart) > Timeout))
 898:./Drivers/STM32F1xx_HAL_Driver/Src/stm32f1xx_hal_flash.c ****       {
 899:./Drivers/STM32F1xx_HAL_Driver/Src/stm32f1xx_hal_flash.c ****         return HAL_TIMEOUT;
 900:./Drivers/STM32F1xx_HAL_Driver/Src/stm32f1xx_hal_flash.c ****       }
 901:./Drivers/STM32F1xx_HAL_Driver/Src/stm32f1xx_hal_flash.c ****     }
 902:./Drivers/STM32F1xx_HAL_Driver/Src/stm32f1xx_hal_flash.c ****   }
 903:./Drivers/STM32F1xx_HAL_Driver/Src/stm32f1xx_hal_flash.c ****   
 904:./Drivers/STM32F1xx_HAL_Driver/Src/stm32f1xx_hal_flash.c ****   /* Check FLASH End of Operation flag  */
 905:./Drivers/STM32F1xx_HAL_Driver/Src/stm32f1xx_hal_flash.c ****   if (__HAL_FLASH_GET_FLAG(FLASH_FLAG_EOP_BANK2))
 906:./Drivers/STM32F1xx_HAL_Driver/Src/stm32f1xx_hal_flash.c ****   {
 907:./Drivers/STM32F1xx_HAL_Driver/Src/stm32f1xx_hal_flash.c ****     /* Clear FLASH End of Operation pending bit */
 908:./Drivers/STM32F1xx_HAL_Driver/Src/stm32f1xx_hal_flash.c ****     __HAL_FLASH_CLEAR_FLAG(FLASH_FLAG_EOP_BANK2);
 909:./Drivers/STM32F1xx_HAL_Driver/Src/stm32f1xx_hal_flash.c ****   }
 910:./Drivers/STM32F1xx_HAL_Driver/Src/stm32f1xx_hal_flash.c **** 
 911:./Drivers/STM32F1xx_HAL_Driver/Src/stm32f1xx_hal_flash.c ****   if(__HAL_FLASH_GET_FLAG(FLASH_FLAG_WRPERR_BANK2) || __HAL_FLASH_GET_FLAG(FLASH_FLAG_PGERR_BANK2))
 912:./Drivers/STM32F1xx_HAL_Driver/Src/stm32f1xx_hal_flash.c ****   {
 913:./Drivers/STM32F1xx_HAL_Driver/Src/stm32f1xx_hal_flash.c ****     /*Save the error code*/
 914:./Drivers/STM32F1xx_HAL_Driver/Src/stm32f1xx_hal_flash.c ****     FLASH_SetErrorCode();
ARM GAS  /tmp/cc24Z0QC.s 			page 18


 915:./Drivers/STM32F1xx_HAL_Driver/Src/stm32f1xx_hal_flash.c ****     return HAL_ERROR;
 916:./Drivers/STM32F1xx_HAL_Driver/Src/stm32f1xx_hal_flash.c ****   }
 917:./Drivers/STM32F1xx_HAL_Driver/Src/stm32f1xx_hal_flash.c **** 
 918:./Drivers/STM32F1xx_HAL_Driver/Src/stm32f1xx_hal_flash.c ****   /* If there is an error flag set */
 919:./Drivers/STM32F1xx_HAL_Driver/Src/stm32f1xx_hal_flash.c ****   return HAL_OK;
 920:./Drivers/STM32F1xx_HAL_Driver/Src/stm32f1xx_hal_flash.c ****   
 921:./Drivers/STM32F1xx_HAL_Driver/Src/stm32f1xx_hal_flash.c **** }
 922:./Drivers/STM32F1xx_HAL_Driver/Src/stm32f1xx_hal_flash.c **** #endif /* FLASH_BANK2_END */
 923:./Drivers/STM32F1xx_HAL_Driver/Src/stm32f1xx_hal_flash.c **** 
 924:./Drivers/STM32F1xx_HAL_Driver/Src/stm32f1xx_hal_flash.c **** /**
 925:./Drivers/STM32F1xx_HAL_Driver/Src/stm32f1xx_hal_flash.c ****   * @brief  Set the specific FLASH error flag.
 926:./Drivers/STM32F1xx_HAL_Driver/Src/stm32f1xx_hal_flash.c ****   * @retval None
 927:./Drivers/STM32F1xx_HAL_Driver/Src/stm32f1xx_hal_flash.c ****   */
 928:./Drivers/STM32F1xx_HAL_Driver/Src/stm32f1xx_hal_flash.c **** static void FLASH_SetErrorCode(void)
 929:./Drivers/STM32F1xx_HAL_Driver/Src/stm32f1xx_hal_flash.c **** { 
  59              		.loc 1 929 0
  60              		.cfi_startproc
  61              		@ args = 0, pretend = 0, frame = 0
  62              		@ frame_needed = 0, uses_anonymous_args = 0
  63              		@ link register save eliminated.
 930:./Drivers/STM32F1xx_HAL_Driver/Src/stm32f1xx_hal_flash.c **** #if defined(FLASH_BANK2_END)
 931:./Drivers/STM32F1xx_HAL_Driver/Src/stm32f1xx_hal_flash.c ****   if(__HAL_FLASH_GET_FLAG(FLASH_FLAG_WRPERR) || __HAL_FLASH_GET_FLAG(FLASH_FLAG_WRPERR_BANK2))
 932:./Drivers/STM32F1xx_HAL_Driver/Src/stm32f1xx_hal_flash.c **** #else
 933:./Drivers/STM32F1xx_HAL_Driver/Src/stm32f1xx_hal_flash.c ****   if(__HAL_FLASH_GET_FLAG(FLASH_FLAG_WRPERR))
  64              		.loc 1 933 0
  65 0000 134B     		ldr	r3, .L8
  66 0002 DB68     		ldr	r3, [r3, #12]
  67 0004 13F0100F 		tst	r3, #16
  68 0008 04D0     		beq	.L5
 934:./Drivers/STM32F1xx_HAL_Driver/Src/stm32f1xx_hal_flash.c **** #endif /* FLASH_BANK2_END */
 935:./Drivers/STM32F1xx_HAL_Driver/Src/stm32f1xx_hal_flash.c ****   {
 936:./Drivers/STM32F1xx_HAL_Driver/Src/stm32f1xx_hal_flash.c ****     pFlash.ErrorCode |= HAL_FLASH_ERROR_WRP;
  69              		.loc 1 936 0
  70 000a 124A     		ldr	r2, .L8+4
  71 000c D369     		ldr	r3, [r2, #28]
  72 000e 43F00203 		orr	r3, r3, #2
  73 0012 D361     		str	r3, [r2, #28]
  74              	.L5:
 937:./Drivers/STM32F1xx_HAL_Driver/Src/stm32f1xx_hal_flash.c ****   }
 938:./Drivers/STM32F1xx_HAL_Driver/Src/stm32f1xx_hal_flash.c **** #if defined(FLASH_BANK2_END)
 939:./Drivers/STM32F1xx_HAL_Driver/Src/stm32f1xx_hal_flash.c ****   if(__HAL_FLASH_GET_FLAG(FLASH_FLAG_PGERR) || __HAL_FLASH_GET_FLAG(FLASH_FLAG_PGERR_BANK2))
 940:./Drivers/STM32F1xx_HAL_Driver/Src/stm32f1xx_hal_flash.c **** #else
 941:./Drivers/STM32F1xx_HAL_Driver/Src/stm32f1xx_hal_flash.c ****   if(__HAL_FLASH_GET_FLAG(FLASH_FLAG_PGERR))
  75              		.loc 1 941 0
  76 0014 0E4B     		ldr	r3, .L8
  77 0016 DB68     		ldr	r3, [r3, #12]
  78 0018 13F0040F 		tst	r3, #4
  79 001c 04D0     		beq	.L6
 942:./Drivers/STM32F1xx_HAL_Driver/Src/stm32f1xx_hal_flash.c **** #endif /* FLASH_BANK2_END */
 943:./Drivers/STM32F1xx_HAL_Driver/Src/stm32f1xx_hal_flash.c ****   {
 944:./Drivers/STM32F1xx_HAL_Driver/Src/stm32f1xx_hal_flash.c ****      pFlash.ErrorCode |= HAL_FLASH_ERROR_PROG;
  80              		.loc 1 944 0
  81 001e 0D4A     		ldr	r2, .L8+4
  82 0020 D369     		ldr	r3, [r2, #28]
  83 0022 43F00103 		orr	r3, r3, #1
  84 0026 D361     		str	r3, [r2, #28]
  85              	.L6:
ARM GAS  /tmp/cc24Z0QC.s 			page 19


 945:./Drivers/STM32F1xx_HAL_Driver/Src/stm32f1xx_hal_flash.c ****   }
 946:./Drivers/STM32F1xx_HAL_Driver/Src/stm32f1xx_hal_flash.c **** 
 947:./Drivers/STM32F1xx_HAL_Driver/Src/stm32f1xx_hal_flash.c ****   if(__HAL_FLASH_GET_FLAG(FLASH_FLAG_OPTVERR))
  86              		.loc 1 947 0
  87 0028 094B     		ldr	r3, .L8
  88 002a DB69     		ldr	r3, [r3, #28]
  89 002c 13F0010F 		tst	r3, #1
  90 0030 09D0     		beq	.L7
 948:./Drivers/STM32F1xx_HAL_Driver/Src/stm32f1xx_hal_flash.c ****   {
 949:./Drivers/STM32F1xx_HAL_Driver/Src/stm32f1xx_hal_flash.c ****      pFlash.ErrorCode |= HAL_FLASH_ERROR_OPTV;
  91              		.loc 1 949 0
  92 0032 084A     		ldr	r2, .L8+4
  93 0034 D369     		ldr	r3, [r2, #28]
  94 0036 43F00403 		orr	r3, r3, #4
  95 003a D361     		str	r3, [r2, #28]
 950:./Drivers/STM32F1xx_HAL_Driver/Src/stm32f1xx_hal_flash.c ****      __HAL_FLASH_CLEAR_FLAG(FLASH_FLAG_OPTVERR);
  96              		.loc 1 950 0
  97 003c 044A     		ldr	r2, .L8
  98 003e D369     		ldr	r3, [r2, #28]
  99 0040 23F00103 		bic	r3, r3, #1
 100 0044 D361     		str	r3, [r2, #28]
 101              	.L7:
 951:./Drivers/STM32F1xx_HAL_Driver/Src/stm32f1xx_hal_flash.c ****   }
 952:./Drivers/STM32F1xx_HAL_Driver/Src/stm32f1xx_hal_flash.c **** 
 953:./Drivers/STM32F1xx_HAL_Driver/Src/stm32f1xx_hal_flash.c ****   /* Clear FLASH error pending bits */
 954:./Drivers/STM32F1xx_HAL_Driver/Src/stm32f1xx_hal_flash.c **** #if defined(FLASH_BANK2_END)
 955:./Drivers/STM32F1xx_HAL_Driver/Src/stm32f1xx_hal_flash.c ****   __HAL_FLASH_CLEAR_FLAG(FLASH_FLAG_WRPERR | FLASH_FLAG_WRPERR_BANK2 | FLASH_FLAG_PGERR | FLASH_FLA
 956:./Drivers/STM32F1xx_HAL_Driver/Src/stm32f1xx_hal_flash.c **** #else
 957:./Drivers/STM32F1xx_HAL_Driver/Src/stm32f1xx_hal_flash.c ****   __HAL_FLASH_CLEAR_FLAG(FLASH_FLAG_WRPERR | FLASH_FLAG_PGERR);
 102              		.loc 1 957 0 discriminator 2
 103 0046 1422     		movs	r2, #20
 104 0048 014B     		ldr	r3, .L8
 105 004a DA60     		str	r2, [r3, #12]
 106 004c 7047     		bx	lr
 107              	.L9:
 108 004e 00BF     		.align	2
 109              	.L8:
 110 0050 00200240 		.word	1073881088
 111 0054 00000000 		.word	pFlash
 112              		.cfi_endproc
 113              	.LFE76:
 115              		.section	.text.HAL_FLASH_Program_IT,"ax",%progbits
 116              		.align	2
 117              		.global	HAL_FLASH_Program_IT
 118              		.thumb
 119              		.thumb_func
 121              	HAL_FLASH_Program_IT:
 122              	.LFB64:
 286:./Drivers/STM32F1xx_HAL_Driver/Src/stm32f1xx_hal_flash.c ****   HAL_StatusTypeDef status = HAL_OK;
 123              		.loc 1 286 0
 124              		.cfi_startproc
 125              		@ args = 0, pretend = 0, frame = 0
 126              		@ frame_needed = 0, uses_anonymous_args = 0
 127              	.LVL1:
 128 0000 D0B5     		push	{r4, r6, r7, lr}
 129              	.LCFI0:
 130              		.cfi_def_cfa_offset 16
ARM GAS  /tmp/cc24Z0QC.s 			page 20


 131              		.cfi_offset 4, -16
 132              		.cfi_offset 6, -12
 133              		.cfi_offset 7, -8
 134              		.cfi_offset 14, -4
 135 0002 1F46     		mov	r7, r3
 136              	.LVL2:
 290:./Drivers/STM32F1xx_HAL_Driver/Src/stm32f1xx_hal_flash.c **** 
 137              		.loc 1 290 0
 138 0004 154B     		ldr	r3, .L17
 139 0006 1B7E     		ldrb	r3, [r3, #24]	@ zero_extendqisi2
 140 0008 012B     		cmp	r3, #1
 141 000a 25D0     		beq	.L15
 142 000c 1646     		mov	r6, r2
 290:./Drivers/STM32F1xx_HAL_Driver/Src/stm32f1xx_hal_flash.c **** 
 143              		.loc 1 290 0 is_stmt 0 discriminator 2
 144 000e 134B     		ldr	r3, .L17
 145 0010 0122     		movs	r2, #1
 146              	.LVL3:
 147 0012 1A76     		strb	r2, [r3, #24]
 315:./Drivers/STM32F1xx_HAL_Driver/Src/stm32f1xx_hal_flash.c **** #endif /* FLASH_BANK2_END */
 148              		.loc 1 315 0 is_stmt 1 discriminator 2
 149 0014 124A     		ldr	r2, .L17+4
 150 0016 1469     		ldr	r4, [r2, #16]
 151 0018 44F4A054 		orr	r4, r4, #5120
 152 001c 1461     		str	r4, [r2, #16]
 318:./Drivers/STM32F1xx_HAL_Driver/Src/stm32f1xx_hal_flash.c ****   pFlash.Data = Data;
 153              		.loc 1 318 0 discriminator 2
 154 001e 9960     		str	r1, [r3, #8]
 319:./Drivers/STM32F1xx_HAL_Driver/Src/stm32f1xx_hal_flash.c **** 
 155              		.loc 1 319 0 discriminator 2
 156 0020 C3E90467 		strd	r6, [r3, #16]
 321:./Drivers/STM32F1xx_HAL_Driver/Src/stm32f1xx_hal_flash.c ****   {
 157              		.loc 1 321 0 discriminator 2
 158 0024 0128     		cmp	r0, #1
 159 0026 04D1     		bne	.L12
 323:./Drivers/STM32F1xx_HAL_Driver/Src/stm32f1xx_hal_flash.c ****     /*Program halfword (16-bit) at a specified address.*/
 160              		.loc 1 323 0
 161 0028 0322     		movs	r2, #3
 162 002a 1A70     		strb	r2, [r3]
 325:./Drivers/STM32F1xx_HAL_Driver/Src/stm32f1xx_hal_flash.c ****   }
 163              		.loc 1 325 0
 164 002c 0122     		movs	r2, #1
 165 002e 5A60     		str	r2, [r3, #4]
 166 0030 0CE0     		b	.L13
 167              	.L12:
 327:./Drivers/STM32F1xx_HAL_Driver/Src/stm32f1xx_hal_flash.c ****   {
 168              		.loc 1 327 0
 169 0032 0228     		cmp	r0, #2
 170 0034 05D1     		bne	.L14
 329:./Drivers/STM32F1xx_HAL_Driver/Src/stm32f1xx_hal_flash.c ****     /*Program word (32-bit : 2*16-bit) at a specified address.*/
 171              		.loc 1 329 0
 172 0036 094B     		ldr	r3, .L17
 173 0038 0422     		movs	r2, #4
 174 003a 1A70     		strb	r2, [r3]
 331:./Drivers/STM32F1xx_HAL_Driver/Src/stm32f1xx_hal_flash.c ****   }
 175              		.loc 1 331 0
 176 003c 0222     		movs	r2, #2
ARM GAS  /tmp/cc24Z0QC.s 			page 21


 177 003e 5A60     		str	r2, [r3, #4]
 178 0040 04E0     		b	.L13
 179              	.L14:
 335:./Drivers/STM32F1xx_HAL_Driver/Src/stm32f1xx_hal_flash.c ****     /*Program double word (64-bit : 4*16-bit) at a specified address.*/
 180              		.loc 1 335 0
 181 0042 064B     		ldr	r3, .L17
 182 0044 0522     		movs	r2, #5
 183 0046 1A70     		strb	r2, [r3]
 337:./Drivers/STM32F1xx_HAL_Driver/Src/stm32f1xx_hal_flash.c ****   }
 184              		.loc 1 337 0
 185 0048 0422     		movs	r2, #4
 186 004a 5A60     		str	r2, [r3, #4]
 187              	.L13:
 341:./Drivers/STM32F1xx_HAL_Driver/Src/stm32f1xx_hal_flash.c **** 
 188              		.loc 1 341 0
 189 004c 0846     		mov	r0, r1
 190              	.LVL4:
 191 004e B1B2     		uxth	r1, r6
 192              	.LVL5:
 193 0050 FFF7FEFF 		bl	FLASH_Program_HalfWord
 194              	.LVL6:
 343:./Drivers/STM32F1xx_HAL_Driver/Src/stm32f1xx_hal_flash.c **** }
 195              		.loc 1 343 0
 196 0054 0020     		movs	r0, #0
 197 0056 D0BD     		pop	{r4, r6, r7, pc}
 198              	.LVL7:
 199              	.L15:
 290:./Drivers/STM32F1xx_HAL_Driver/Src/stm32f1xx_hal_flash.c **** 
 200              		.loc 1 290 0
 201 0058 0220     		movs	r0, #2
 202              	.LVL8:
 344:./Drivers/STM32F1xx_HAL_Driver/Src/stm32f1xx_hal_flash.c **** 
 203              		.loc 1 344 0
 204 005a D0BD     		pop	{r4, r6, r7, pc}
 205              	.L18:
 206              		.align	2
 207              	.L17:
 208 005c 00000000 		.word	pFlash
 209 0060 00200240 		.word	1073881088
 210              		.cfi_endproc
 211              	.LFE64:
 213              		.section	.text.HAL_FLASH_EndOfOperationCallback,"ax",%progbits
 214              		.align	2
 215              		.weak	HAL_FLASH_EndOfOperationCallback
 216              		.thumb
 217              		.thumb_func
 219              	HAL_FLASH_EndOfOperationCallback:
 220              	.LFB66:
 626:./Drivers/STM32F1xx_HAL_Driver/Src/stm32f1xx_hal_flash.c ****   /* Prevent unused argument(s) compilation warning */
 221              		.loc 1 626 0
 222              		.cfi_startproc
 223              		@ args = 0, pretend = 0, frame = 0
 224              		@ frame_needed = 0, uses_anonymous_args = 0
 225              		@ link register save eliminated.
 226              	.LVL9:
 227 0000 7047     		bx	lr
 228              		.cfi_endproc
ARM GAS  /tmp/cc24Z0QC.s 			page 22


 229              	.LFE66:
 231 0002 00BF     		.section	.text.HAL_FLASH_OperationErrorCallback,"ax",%progbits
 232              		.align	2
 233              		.weak	HAL_FLASH_OperationErrorCallback
 234              		.thumb
 235              		.thumb_func
 237              	HAL_FLASH_OperationErrorCallback:
 238              	.LFB67:
 643:./Drivers/STM32F1xx_HAL_Driver/Src/stm32f1xx_hal_flash.c ****   /* Prevent unused argument(s) compilation warning */
 239              		.loc 1 643 0
 240              		.cfi_startproc
 241              		@ args = 0, pretend = 0, frame = 0
 242              		@ frame_needed = 0, uses_anonymous_args = 0
 243              		@ link register save eliminated.
 244              	.LVL10:
 245 0000 7047     		bx	lr
 246              		.cfi_endproc
 247              	.LFE67:
 249 0002 00BF     		.section	.text.HAL_FLASH_IRQHandler,"ax",%progbits
 250              		.align	2
 251              		.global	HAL_FLASH_IRQHandler
 252              		.thumb
 253              		.thumb_func
 255              	HAL_FLASH_IRQHandler:
 256              	.LFB65:
 351:./Drivers/STM32F1xx_HAL_Driver/Src/stm32f1xx_hal_flash.c ****   uint32_t addresstmp = 0;
 257              		.loc 1 351 0
 258              		.cfi_startproc
 259              		@ args = 0, pretend = 0, frame = 0
 260              		@ frame_needed = 0, uses_anonymous_args = 0
 351:./Drivers/STM32F1xx_HAL_Driver/Src/stm32f1xx_hal_flash.c ****   uint32_t addresstmp = 0;
 261              		.loc 1 351 0
 262 0000 F8B5     		push	{r3, r4, r5, r6, r7, lr}
 263              	.LCFI1:
 264              		.cfi_def_cfa_offset 24
 265              		.cfi_offset 3, -24
 266              		.cfi_offset 4, -20
 267              		.cfi_offset 5, -16
 268              		.cfi_offset 6, -12
 269              		.cfi_offset 7, -8
 270              		.cfi_offset 14, -4
 271              	.LVL11:
 359:./Drivers/STM32F1xx_HAL_Driver/Src/stm32f1xx_hal_flash.c **** #endif /* FLASH_BANK2_END */
 272              		.loc 1 359 0
 273 0002 544B     		ldr	r3, .L34
 274 0004 DB68     		ldr	r3, [r3, #12]
 275 0006 13F0100F 		tst	r3, #16
 276 000a 04D1     		bne	.L22
 359:./Drivers/STM32F1xx_HAL_Driver/Src/stm32f1xx_hal_flash.c **** #endif /* FLASH_BANK2_END */
 277              		.loc 1 359 0 is_stmt 0 discriminator 1
 278 000c 514B     		ldr	r3, .L34
 279 000e DB68     		ldr	r3, [r3, #12]
 280 0010 13F0040F 		tst	r3, #4
 281 0014 0BD0     		beq	.L23
 282              	.L22:
 363:./Drivers/STM32F1xx_HAL_Driver/Src/stm32f1xx_hal_flash.c ****     /* Reset address */
 283              		.loc 1 363 0 is_stmt 1
ARM GAS  /tmp/cc24Z0QC.s 			page 23


 284 0016 504C     		ldr	r4, .L34+4
 285 0018 A568     		ldr	r5, [r4, #8]
 286              	.LVL12:
 365:./Drivers/STM32F1xx_HAL_Driver/Src/stm32f1xx_hal_flash.c ****   
 287              		.loc 1 365 0
 288 001a 4FF0FF33 		mov	r3, #-1
 289 001e A360     		str	r3, [r4, #8]
 368:./Drivers/STM32F1xx_HAL_Driver/Src/stm32f1xx_hal_flash.c ****     
 290              		.loc 1 368 0
 291 0020 FFF7FEFF 		bl	FLASH_SetErrorCode
 292              	.LVL13:
 371:./Drivers/STM32F1xx_HAL_Driver/Src/stm32f1xx_hal_flash.c **** 
 293              		.loc 1 371 0
 294 0024 2846     		mov	r0, r5
 295 0026 FFF7FEFF 		bl	HAL_FLASH_OperationErrorCallback
 296              	.LVL14:
 374:./Drivers/STM32F1xx_HAL_Driver/Src/stm32f1xx_hal_flash.c ****   }
 297              		.loc 1 374 0
 298 002a 0023     		movs	r3, #0
 299 002c 2370     		strb	r3, [r4]
 300              	.LVL15:
 301              	.L23:
 384:./Drivers/STM32F1xx_HAL_Driver/Src/stm32f1xx_hal_flash.c ****   {
 302              		.loc 1 384 0
 303 002e 494B     		ldr	r3, .L34
 304 0030 DB68     		ldr	r3, [r3, #12]
 305 0032 13F0200F 		tst	r3, #32
 306 0036 7AD0     		beq	.L24
 387:./Drivers/STM32F1xx_HAL_Driver/Src/stm32f1xx_hal_flash.c **** #endif /* FLASH_BANK2_END */
 307              		.loc 1 387 0 discriminator 2
 308 0038 2022     		movs	r2, #32
 309 003a 464B     		ldr	r3, .L34
 310 003c DA60     		str	r2, [r3, #12]
 391:./Drivers/STM32F1xx_HAL_Driver/Src/stm32f1xx_hal_flash.c ****     {
 311              		.loc 1 391 0 discriminator 2
 312 003e 464B     		ldr	r3, .L34+4
 313 0040 1B78     		ldrb	r3, [r3]	@ zero_extendqisi2
 314 0042 13F0FF0F 		tst	r3, #255
 315 0046 72D0     		beq	.L24
 393:./Drivers/STM32F1xx_HAL_Driver/Src/stm32f1xx_hal_flash.c ****       {
 316              		.loc 1 393 0
 317 0048 434B     		ldr	r3, .L34+4
 318 004a 1B78     		ldrb	r3, [r3]	@ zero_extendqisi2
 319 004c DBB2     		uxtb	r3, r3
 320 004e 012B     		cmp	r3, #1
 321 0050 1ED1     		bne	.L25
 396:./Drivers/STM32F1xx_HAL_Driver/Src/stm32f1xx_hal_flash.c **** 
 322              		.loc 1 396 0
 323 0052 414B     		ldr	r3, .L34+4
 324 0054 5A68     		ldr	r2, [r3, #4]
 325 0056 013A     		subs	r2, r2, #1
 326 0058 5A60     		str	r2, [r3, #4]
 399:./Drivers/STM32F1xx_HAL_Driver/Src/stm32f1xx_hal_flash.c ****         {
 327              		.loc 1 399 0
 328 005a 5B68     		ldr	r3, [r3, #4]
 329 005c 7BB1     		cbz	r3, .L26
 401:./Drivers/STM32F1xx_HAL_Driver/Src/stm32f1xx_hal_flash.c ****           /*Indicate user which sector has been erased*/
ARM GAS  /tmp/cc24Z0QC.s 			page 24


 330              		.loc 1 401 0
 331 005e 3E4C     		ldr	r4, .L34+4
 332 0060 A068     		ldr	r0, [r4, #8]
 333              	.LVL16:
 403:./Drivers/STM32F1xx_HAL_Driver/Src/stm32f1xx_hal_flash.c **** 
 334              		.loc 1 403 0
 335 0062 FFF7FEFF 		bl	HAL_FLASH_EndOfOperationCallback
 336              	.LVL17:
 406:./Drivers/STM32F1xx_HAL_Driver/Src/stm32f1xx_hal_flash.c ****           pFlash.Address = addresstmp;
 337              		.loc 1 406 0
 338 0066 A068     		ldr	r0, [r4, #8]
 339 0068 00F50060 		add	r0, r0, #2048
 340              	.LVL18:
 407:./Drivers/STM32F1xx_HAL_Driver/Src/stm32f1xx_hal_flash.c **** 
 341              		.loc 1 407 0
 342 006c A060     		str	r0, [r4, #8]
 410:./Drivers/STM32F1xx_HAL_Driver/Src/stm32f1xx_hal_flash.c **** 
 343              		.loc 1 410 0
 344 006e 394A     		ldr	r2, .L34
 345 0070 1369     		ldr	r3, [r2, #16]
 346 0072 23F00203 		bic	r3, r3, #2
 347 0076 1361     		str	r3, [r2, #16]
 412:./Drivers/STM32F1xx_HAL_Driver/Src/stm32f1xx_hal_flash.c ****         }
 348              		.loc 1 412 0
 349 0078 FFF7FEFF 		bl	FLASH_PageErase
 350              	.LVL19:
 351 007c 57E0     		b	.L24
 352              	.L26:
 353              	.LVL20:
 418:./Drivers/STM32F1xx_HAL_Driver/Src/stm32f1xx_hal_flash.c ****           pFlash.ProcedureOnGoing = FLASH_PROC_NONE;
 354              		.loc 1 418 0
 355 007e 364B     		ldr	r3, .L34+4
 356 0080 4FF0FF30 		mov	r0, #-1
 357 0084 9860     		str	r0, [r3, #8]
 419:./Drivers/STM32F1xx_HAL_Driver/Src/stm32f1xx_hal_flash.c ****           /* FLASH EOP interrupt user callback */
 358              		.loc 1 419 0
 359 0086 0022     		movs	r2, #0
 360 0088 1A70     		strb	r2, [r3]
 421:./Drivers/STM32F1xx_HAL_Driver/Src/stm32f1xx_hal_flash.c ****         }
 361              		.loc 1 421 0
 362 008a FFF7FEFF 		bl	HAL_FLASH_EndOfOperationCallback
 363              	.LVL21:
 364 008e 4EE0     		b	.L24
 365              	.LVL22:
 366              	.L25:
 424:./Drivers/STM32F1xx_HAL_Driver/Src/stm32f1xx_hal_flash.c ****       {
 367              		.loc 1 424 0
 368 0090 314B     		ldr	r3, .L34+4
 369 0092 1B78     		ldrb	r3, [r3]	@ zero_extendqisi2
 370 0094 DBB2     		uxtb	r3, r3
 371 0096 022B     		cmp	r3, #2
 372 0098 0BD1     		bne	.L27
 427:./Drivers/STM32F1xx_HAL_Driver/Src/stm32f1xx_hal_flash.c **** 
 373              		.loc 1 427 0
 374 009a 2E4A     		ldr	r2, .L34
 375 009c 1369     		ldr	r3, [r2, #16]
 376 009e 23F00403 		bic	r3, r3, #4
ARM GAS  /tmp/cc24Z0QC.s 			page 25


 377 00a2 1361     		str	r3, [r2, #16]
 436:./Drivers/STM32F1xx_HAL_Driver/Src/stm32f1xx_hal_flash.c **** 
 378              		.loc 1 436 0
 379 00a4 0020     		movs	r0, #0
 380 00a6 FFF7FEFF 		bl	HAL_FLASH_EndOfOperationCallback
 381              	.LVL23:
 439:./Drivers/STM32F1xx_HAL_Driver/Src/stm32f1xx_hal_flash.c ****         }
 382              		.loc 1 439 0
 383 00aa 0022     		movs	r2, #0
 384 00ac 2A4B     		ldr	r3, .L34+4
 385 00ae 1A70     		strb	r2, [r3]
 386 00b0 3DE0     		b	.L24
 387              	.L27:
 447:./Drivers/STM32F1xx_HAL_Driver/Src/stm32f1xx_hal_flash.c ****         
 388              		.loc 1 447 0
 389 00b2 294B     		ldr	r3, .L34+4
 390 00b4 5A68     		ldr	r2, [r3, #4]
 391 00b6 013A     		subs	r2, r2, #1
 392 00b8 5A60     		str	r2, [r3, #4]
 450:./Drivers/STM32F1xx_HAL_Driver/Src/stm32f1xx_hal_flash.c ****         {
 393              		.loc 1 450 0
 394 00ba 5B68     		ldr	r3, [r3, #4]
 395 00bc BBB1     		cbz	r3, .L28
 453:./Drivers/STM32F1xx_HAL_Driver/Src/stm32f1xx_hal_flash.c ****           addresstmp = pFlash.Address;
 396              		.loc 1 453 0
 397 00be 264B     		ldr	r3, .L34+4
 398 00c0 9A68     		ldr	r2, [r3, #8]
 399 00c2 0232     		adds	r2, r2, #2
 400 00c4 9A60     		str	r2, [r3, #8]
 454:./Drivers/STM32F1xx_HAL_Driver/Src/stm32f1xx_hal_flash.c ****           
 401              		.loc 1 454 0
 402 00c6 9868     		ldr	r0, [r3, #8]
 403              	.LVL24:
 457:./Drivers/STM32F1xx_HAL_Driver/Src/stm32f1xx_hal_flash.c ****           
 404              		.loc 1 457 0
 405 00c8 D3E90467 		ldrd	r6, [r3, #16]
 406 00cc 340C     		lsrs	r4, r6, #16
 407 00ce 44EA0744 		orr	r4, r4, r7, lsl #16
 408 00d2 3D0C     		lsrs	r5, r7, #16
 409 00d4 C3E90445 		strd	r4, [r3, #16]
 460:./Drivers/STM32F1xx_HAL_Driver/Src/stm32f1xx_hal_flash.c **** 
 410              		.loc 1 460 0
 411 00d8 1E49     		ldr	r1, .L34
 412 00da 0A69     		ldr	r2, [r1, #16]
 413 00dc 22F00102 		bic	r2, r2, #1
 414 00e0 0A61     		str	r2, [r1, #16]
 463:./Drivers/STM32F1xx_HAL_Driver/Src/stm32f1xx_hal_flash.c ****         }
 415              		.loc 1 463 0
 416 00e2 D3E90423 		ldrd	r2, [r3, #16]
 417 00e6 91B2     		uxth	r1, r2
 418 00e8 FFF7FEFF 		bl	FLASH_Program_HalfWord
 419              	.LVL25:
 420 00ec 1FE0     		b	.L24
 421              	.L28:
 469:./Drivers/STM32F1xx_HAL_Driver/Src/stm32f1xx_hal_flash.c ****           {
 422              		.loc 1 469 0
 423 00ee 1A4B     		ldr	r3, .L34+4
ARM GAS  /tmp/cc24Z0QC.s 			page 26


 424 00f0 1B78     		ldrb	r3, [r3]	@ zero_extendqisi2
 425 00f2 DBB2     		uxtb	r3, r3
 426 00f4 032B     		cmp	r3, #3
 427 00f6 04D1     		bne	.L29
 471:./Drivers/STM32F1xx_HAL_Driver/Src/stm32f1xx_hal_flash.c ****           }
 428              		.loc 1 471 0
 429 00f8 174B     		ldr	r3, .L34+4
 430 00fa 9868     		ldr	r0, [r3, #8]
 431 00fc FFF7FEFF 		bl	HAL_FLASH_EndOfOperationCallback
 432              	.LVL26:
 433 0100 0FE0     		b	.L30
 434              	.L29:
 473:./Drivers/STM32F1xx_HAL_Driver/Src/stm32f1xx_hal_flash.c ****           {
 435              		.loc 1 473 0
 436 0102 154B     		ldr	r3, .L34+4
 437 0104 1B78     		ldrb	r3, [r3]	@ zero_extendqisi2
 438 0106 DBB2     		uxtb	r3, r3
 439 0108 042B     		cmp	r3, #4
 440 010a 05D1     		bne	.L31
 475:./Drivers/STM32F1xx_HAL_Driver/Src/stm32f1xx_hal_flash.c ****           }
 441              		.loc 1 475 0
 442 010c 124B     		ldr	r3, .L34+4
 443 010e 9868     		ldr	r0, [r3, #8]
 444 0110 0238     		subs	r0, r0, #2
 445 0112 FFF7FEFF 		bl	HAL_FLASH_EndOfOperationCallback
 446              	.LVL27:
 447 0116 04E0     		b	.L30
 448              	.L31:
 479:./Drivers/STM32F1xx_HAL_Driver/Src/stm32f1xx_hal_flash.c ****           }
 449              		.loc 1 479 0
 450 0118 0F4B     		ldr	r3, .L34+4
 451 011a 9868     		ldr	r0, [r3, #8]
 452 011c 0638     		subs	r0, r0, #6
 453 011e FFF7FEFF 		bl	HAL_FLASH_EndOfOperationCallback
 454              	.LVL28:
 455              	.L30:
 483:./Drivers/STM32F1xx_HAL_Driver/Src/stm32f1xx_hal_flash.c ****           pFlash.ProcedureOnGoing = FLASH_PROC_NONE;
 456              		.loc 1 483 0
 457 0122 0D4B     		ldr	r3, .L34+4
 458 0124 4FF0FF32 		mov	r2, #-1
 459 0128 9A60     		str	r2, [r3, #8]
 484:./Drivers/STM32F1xx_HAL_Driver/Src/stm32f1xx_hal_flash.c ****         }
 460              		.loc 1 484 0
 461 012a 0022     		movs	r2, #0
 462 012c 1A70     		strb	r2, [r3]
 463              	.L24:
 593:./Drivers/STM32F1xx_HAL_Driver/Src/stm32f1xx_hal_flash.c ****   {
 464              		.loc 1 593 0
 465 012e 0A4B     		ldr	r3, .L34+4
 466 0130 1B78     		ldrb	r3, [r3]	@ zero_extendqisi2
 467 0132 13F0FF0F 		tst	r3, #255
 468 0136 0BD1     		bne	.L21
 604:./Drivers/STM32F1xx_HAL_Driver/Src/stm32f1xx_hal_flash.c **** 
 469              		.loc 1 604 0
 470 0138 064B     		ldr	r3, .L34
 471 013a 1A69     		ldr	r2, [r3, #16]
 472 013c 22F00702 		bic	r2, r2, #7
ARM GAS  /tmp/cc24Z0QC.s 			page 27


 473 0140 1A61     		str	r2, [r3, #16]
 607:./Drivers/STM32F1xx_HAL_Driver/Src/stm32f1xx_hal_flash.c **** #endif /* FLASH_BANK2_END */
 474              		.loc 1 607 0
 475 0142 1A69     		ldr	r2, [r3, #16]
 476 0144 22F4A052 		bic	r2, r2, #5120
 477 0148 1A61     		str	r2, [r3, #16]
 611:./Drivers/STM32F1xx_HAL_Driver/Src/stm32f1xx_hal_flash.c ****   }
 478              		.loc 1 611 0
 479 014a 0022     		movs	r2, #0
 480 014c 024B     		ldr	r3, .L34+4
 481 014e 1A76     		strb	r2, [r3, #24]
 482              	.L21:
 483 0150 F8BD     		pop	{r3, r4, r5, r6, r7, pc}
 484              	.L35:
 485 0152 00BF     		.align	2
 486              	.L34:
 487 0154 00200240 		.word	1073881088
 488 0158 00000000 		.word	pFlash
 489              		.cfi_endproc
 490              	.LFE65:
 492              		.section	.text.HAL_FLASH_Unlock,"ax",%progbits
 493              		.align	2
 494              		.global	HAL_FLASH_Unlock
 495              		.thumb
 496              		.thumb_func
 498              	HAL_FLASH_Unlock:
 499              	.LFB68:
 675:./Drivers/STM32F1xx_HAL_Driver/Src/stm32f1xx_hal_flash.c ****   if (HAL_IS_BIT_SET(FLASH->CR, FLASH_CR_LOCK))
 500              		.loc 1 675 0
 501              		.cfi_startproc
 502              		@ args = 0, pretend = 0, frame = 0
 503              		@ frame_needed = 0, uses_anonymous_args = 0
 504              		@ link register save eliminated.
 676:./Drivers/STM32F1xx_HAL_Driver/Src/stm32f1xx_hal_flash.c ****   {
 505              		.loc 1 676 0
 506 0000 074B     		ldr	r3, .L39
 507 0002 1B69     		ldr	r3, [r3, #16]
 508 0004 13F0800F 		tst	r3, #128
 509 0008 07D0     		beq	.L38
 679:./Drivers/STM32F1xx_HAL_Driver/Src/stm32f1xx_hal_flash.c ****     WRITE_REG(FLASH->KEYR, FLASH_KEY2);
 510              		.loc 1 679 0
 511 000a 054B     		ldr	r3, .L39
 512 000c 054A     		ldr	r2, .L39+4
 513 000e 5A60     		str	r2, [r3, #4]
 680:./Drivers/STM32F1xx_HAL_Driver/Src/stm32f1xx_hal_flash.c ****   }
 514              		.loc 1 680 0
 515 0010 02F18832 		add	r2, r2, #-2004318072
 516 0014 5A60     		str	r2, [r3, #4]
 700:./Drivers/STM32F1xx_HAL_Driver/Src/stm32f1xx_hal_flash.c **** }
 517              		.loc 1 700 0
 518 0016 0020     		movs	r0, #0
 519 0018 7047     		bx	lr
 520              	.L38:
 684:./Drivers/STM32F1xx_HAL_Driver/Src/stm32f1xx_hal_flash.c ****   }
 521              		.loc 1 684 0
 522 001a 0120     		movs	r0, #1
 701:./Drivers/STM32F1xx_HAL_Driver/Src/stm32f1xx_hal_flash.c **** 
ARM GAS  /tmp/cc24Z0QC.s 			page 28


 523              		.loc 1 701 0
 524 001c 7047     		bx	lr
 525              	.L40:
 526 001e 00BF     		.align	2
 527              	.L39:
 528 0020 00200240 		.word	1073881088
 529 0024 23016745 		.word	1164378403
 530              		.cfi_endproc
 531              	.LFE68:
 533              		.section	.text.HAL_FLASH_Lock,"ax",%progbits
 534              		.align	2
 535              		.global	HAL_FLASH_Lock
 536              		.thumb
 537              		.thumb_func
 539              	HAL_FLASH_Lock:
 540              	.LFB69:
 708:./Drivers/STM32F1xx_HAL_Driver/Src/stm32f1xx_hal_flash.c ****   /* Set the LOCK Bit to lock the FLASH Registers access */
 541              		.loc 1 708 0
 542              		.cfi_startproc
 543              		@ args = 0, pretend = 0, frame = 0
 544              		@ frame_needed = 0, uses_anonymous_args = 0
 545              		@ link register save eliminated.
 710:./Drivers/STM32F1xx_HAL_Driver/Src/stm32f1xx_hal_flash.c ****   
 546              		.loc 1 710 0
 547 0000 034A     		ldr	r2, .L42
 548 0002 1369     		ldr	r3, [r2, #16]
 549 0004 43F08003 		orr	r3, r3, #128
 550 0008 1361     		str	r3, [r2, #16]
 718:./Drivers/STM32F1xx_HAL_Driver/Src/stm32f1xx_hal_flash.c **** 
 551              		.loc 1 718 0
 552 000a 0020     		movs	r0, #0
 553 000c 7047     		bx	lr
 554              	.L43:
 555 000e 00BF     		.align	2
 556              	.L42:
 557 0010 00200240 		.word	1073881088
 558              		.cfi_endproc
 559              	.LFE69:
 561              		.section	.text.HAL_FLASH_OB_Unlock,"ax",%progbits
 562              		.align	2
 563              		.global	HAL_FLASH_OB_Unlock
 564              		.thumb
 565              		.thumb_func
 567              	HAL_FLASH_OB_Unlock:
 568              	.LFB70:
 726:./Drivers/STM32F1xx_HAL_Driver/Src/stm32f1xx_hal_flash.c ****   if (HAL_IS_BIT_CLR(FLASH->CR, FLASH_CR_OPTWRE))
 569              		.loc 1 726 0
 570              		.cfi_startproc
 571              		@ args = 0, pretend = 0, frame = 0
 572              		@ frame_needed = 0, uses_anonymous_args = 0
 573              		@ link register save eliminated.
 727:./Drivers/STM32F1xx_HAL_Driver/Src/stm32f1xx_hal_flash.c ****   {
 574              		.loc 1 727 0
 575 0000 074B     		ldr	r3, .L47
 576 0002 1B69     		ldr	r3, [r3, #16]
 577 0004 13F4007F 		tst	r3, #512
 578 0008 07D1     		bne	.L46
ARM GAS  /tmp/cc24Z0QC.s 			page 29


 730:./Drivers/STM32F1xx_HAL_Driver/Src/stm32f1xx_hal_flash.c ****     WRITE_REG(FLASH->OPTKEYR, FLASH_OPTKEY2);
 579              		.loc 1 730 0
 580 000a 054B     		ldr	r3, .L47
 581 000c 054A     		ldr	r2, .L47+4
 582 000e 9A60     		str	r2, [r3, #8]
 731:./Drivers/STM32F1xx_HAL_Driver/Src/stm32f1xx_hal_flash.c ****   }
 583              		.loc 1 731 0
 584 0010 02F18832 		add	r2, r2, #-2004318072
 585 0014 9A60     		str	r2, [r3, #8]
 738:./Drivers/STM32F1xx_HAL_Driver/Src/stm32f1xx_hal_flash.c **** }
 586              		.loc 1 738 0
 587 0016 0020     		movs	r0, #0
 588 0018 7047     		bx	lr
 589              	.L46:
 735:./Drivers/STM32F1xx_HAL_Driver/Src/stm32f1xx_hal_flash.c ****   }  
 590              		.loc 1 735 0
 591 001a 0120     		movs	r0, #1
 739:./Drivers/STM32F1xx_HAL_Driver/Src/stm32f1xx_hal_flash.c **** 
 592              		.loc 1 739 0
 593 001c 7047     		bx	lr
 594              	.L48:
 595 001e 00BF     		.align	2
 596              	.L47:
 597 0020 00200240 		.word	1073881088
 598 0024 23016745 		.word	1164378403
 599              		.cfi_endproc
 600              	.LFE70:
 602              		.section	.text.HAL_FLASH_OB_Lock,"ax",%progbits
 603              		.align	2
 604              		.global	HAL_FLASH_OB_Lock
 605              		.thumb
 606              		.thumb_func
 608              	HAL_FLASH_OB_Lock:
 609              	.LFB71:
 746:./Drivers/STM32F1xx_HAL_Driver/Src/stm32f1xx_hal_flash.c ****   /* Clear the OPTWRE Bit to lock the FLASH Option Byte Registers access */
 610              		.loc 1 746 0
 611              		.cfi_startproc
 612              		@ args = 0, pretend = 0, frame = 0
 613              		@ frame_needed = 0, uses_anonymous_args = 0
 614              		@ link register save eliminated.
 748:./Drivers/STM32F1xx_HAL_Driver/Src/stm32f1xx_hal_flash.c ****   
 615              		.loc 1 748 0
 616 0000 034A     		ldr	r2, .L50
 617 0002 1369     		ldr	r3, [r2, #16]
 618 0004 23F40073 		bic	r3, r3, #512
 619 0008 1361     		str	r3, [r2, #16]
 751:./Drivers/STM32F1xx_HAL_Driver/Src/stm32f1xx_hal_flash.c ****   
 620              		.loc 1 751 0
 621 000a 0020     		movs	r0, #0
 622 000c 7047     		bx	lr
 623              	.L51:
 624 000e 00BF     		.align	2
 625              	.L50:
 626 0010 00200240 		.word	1073881088
 627              		.cfi_endproc
 628              	.LFE71:
 630              		.section	.text.HAL_FLASH_OB_Launch,"ax",%progbits
ARM GAS  /tmp/cc24Z0QC.s 			page 30


 631              		.align	2
 632              		.global	HAL_FLASH_OB_Launch
 633              		.thumb
 634              		.thumb_func
 636              	HAL_FLASH_OB_Launch:
 637              	.LFB72:
 759:./Drivers/STM32F1xx_HAL_Driver/Src/stm32f1xx_hal_flash.c ****   /* Initiates a system reset request to launch the option byte loading */
 638              		.loc 1 759 0
 639              		.cfi_startproc
 640              		@ args = 0, pretend = 0, frame = 0
 641              		@ frame_needed = 0, uses_anonymous_args = 0
 642 0000 08B5     		push	{r3, lr}
 643              	.LCFI2:
 644              		.cfi_def_cfa_offset 8
 645              		.cfi_offset 3, -8
 646              		.cfi_offset 14, -4
 761:./Drivers/STM32F1xx_HAL_Driver/Src/stm32f1xx_hal_flash.c ****   
 647              		.loc 1 761 0
 648 0002 FFF7FEFF 		bl	HAL_NVIC_SystemReset
 649              	.LVL29:
 764:./Drivers/STM32F1xx_HAL_Driver/Src/stm32f1xx_hal_flash.c **** 
 650              		.loc 1 764 0
 651 0006 0020     		movs	r0, #0
 652 0008 08BD     		pop	{r3, pc}
 653              		.cfi_endproc
 654              	.LFE72:
 656 000a 00BF     		.section	.text.HAL_FLASH_GetError,"ax",%progbits
 657              		.align	2
 658              		.global	HAL_FLASH_GetError
 659              		.thumb
 660              		.thumb_func
 662              	HAL_FLASH_GetError:
 663              	.LFB73:
 790:./Drivers/STM32F1xx_HAL_Driver/Src/stm32f1xx_hal_flash.c ****    return pFlash.ErrorCode;
 664              		.loc 1 790 0
 665              		.cfi_startproc
 666              		@ args = 0, pretend = 0, frame = 0
 667              		@ frame_needed = 0, uses_anonymous_args = 0
 668              		@ link register save eliminated.
 791:./Drivers/STM32F1xx_HAL_Driver/Src/stm32f1xx_hal_flash.c **** }  
 669              		.loc 1 791 0
 670 0000 014B     		ldr	r3, .L55
 671 0002 D869     		ldr	r0, [r3, #28]
 792:./Drivers/STM32F1xx_HAL_Driver/Src/stm32f1xx_hal_flash.c **** /**
 672              		.loc 1 792 0
 673 0004 7047     		bx	lr
 674              	.L56:
 675 0006 00BF     		.align	2
 676              	.L55:
 677 0008 00000000 		.word	pFlash
 678              		.cfi_endproc
 679              	.LFE73:
 681              		.section	.text.FLASH_WaitForLastOperation,"ax",%progbits
 682              		.align	2
 683              		.global	FLASH_WaitForLastOperation
 684              		.thumb
 685              		.thumb_func
ARM GAS  /tmp/cc24Z0QC.s 			page 31


 687              	FLASH_WaitForLastOperation:
 688              	.LFB75:
 841:./Drivers/STM32F1xx_HAL_Driver/Src/stm32f1xx_hal_flash.c ****   /* Wait for the FLASH operation to complete by polling on BUSY flag to be reset.
 689              		.loc 1 841 0
 690              		.cfi_startproc
 691              		@ args = 0, pretend = 0, frame = 0
 692              		@ frame_needed = 0, uses_anonymous_args = 0
 693              	.LVL30:
 694 0000 38B5     		push	{r3, r4, r5, lr}
 695              	.LCFI3:
 696              		.cfi_def_cfa_offset 16
 697              		.cfi_offset 3, -16
 698              		.cfi_offset 4, -12
 699              		.cfi_offset 5, -8
 700              		.cfi_offset 14, -4
 701 0002 0446     		mov	r4, r0
 846:./Drivers/STM32F1xx_HAL_Driver/Src/stm32f1xx_hal_flash.c ****      
 702              		.loc 1 846 0
 703 0004 FFF7FEFF 		bl	HAL_GetTick
 704              	.LVL31:
 705 0008 0546     		mov	r5, r0
 706              	.LVL32:
 848:./Drivers/STM32F1xx_HAL_Driver/Src/stm32f1xx_hal_flash.c ****   { 
 707              		.loc 1 848 0
 708 000a 08E0     		b	.L59
 709              	.LVL33:
 710              	.L61:
 850:./Drivers/STM32F1xx_HAL_Driver/Src/stm32f1xx_hal_flash.c ****     {
 711              		.loc 1 850 0
 712 000c B4F1FF3F 		cmp	r4, #-1
 713 0010 05D0     		beq	.L59
 852:./Drivers/STM32F1xx_HAL_Driver/Src/stm32f1xx_hal_flash.c ****       {
 714              		.loc 1 852 0
 715 0012 24B3     		cbz	r4, .L64
 852:./Drivers/STM32F1xx_HAL_Driver/Src/stm32f1xx_hal_flash.c ****       {
 716              		.loc 1 852 0 is_stmt 0 discriminator 1
 717 0014 FFF7FEFF 		bl	HAL_GetTick
 718              	.LVL34:
 719 0018 401B     		subs	r0, r0, r5
 720 001a A042     		cmp	r0, r4
 721 001c 21D8     		bhi	.L65
 722              	.L59:
 848:./Drivers/STM32F1xx_HAL_Driver/Src/stm32f1xx_hal_flash.c ****   { 
 723              		.loc 1 848 0 is_stmt 1
 724 001e 134B     		ldr	r3, .L68
 725 0020 DB68     		ldr	r3, [r3, #12]
 726 0022 13F0010F 		tst	r3, #1
 727 0026 F1D1     		bne	.L61
 860:./Drivers/STM32F1xx_HAL_Driver/Src/stm32f1xx_hal_flash.c ****   {
 728              		.loc 1 860 0
 729 0028 104B     		ldr	r3, .L68
 730 002a DB68     		ldr	r3, [r3, #12]
 731 002c 13F0200F 		tst	r3, #32
 732 0030 02D0     		beq	.L62
 863:./Drivers/STM32F1xx_HAL_Driver/Src/stm32f1xx_hal_flash.c ****   }
 733              		.loc 1 863 0 discriminator 2
 734 0032 2022     		movs	r2, #32
ARM GAS  /tmp/cc24Z0QC.s 			page 32


 735 0034 0D4B     		ldr	r3, .L68
 736 0036 DA60     		str	r2, [r3, #12]
 737              	.L62:
 866:./Drivers/STM32F1xx_HAL_Driver/Src/stm32f1xx_hal_flash.c ****      __HAL_FLASH_GET_FLAG(FLASH_FLAG_OPTVERR) || 
 738              		.loc 1 866 0
 739 0038 0C4B     		ldr	r3, .L68
 740 003a DB68     		ldr	r3, [r3, #12]
 741 003c 13F0100F 		tst	r3, #16
 742 0040 09D1     		bne	.L63
 867:./Drivers/STM32F1xx_HAL_Driver/Src/stm32f1xx_hal_flash.c ****      __HAL_FLASH_GET_FLAG(FLASH_FLAG_PGERR))
 743              		.loc 1 867 0 discriminator 1
 744 0042 0A4B     		ldr	r3, .L68
 745 0044 DB69     		ldr	r3, [r3, #28]
 866:./Drivers/STM32F1xx_HAL_Driver/Src/stm32f1xx_hal_flash.c ****      __HAL_FLASH_GET_FLAG(FLASH_FLAG_OPTVERR) || 
 746              		.loc 1 866 0 discriminator 1
 747 0046 13F0010F 		tst	r3, #1
 748 004a 04D1     		bne	.L63
 868:./Drivers/STM32F1xx_HAL_Driver/Src/stm32f1xx_hal_flash.c ****   {
 749              		.loc 1 868 0
 750 004c 074B     		ldr	r3, .L68
 751 004e DB68     		ldr	r3, [r3, #12]
 867:./Drivers/STM32F1xx_HAL_Driver/Src/stm32f1xx_hal_flash.c ****      __HAL_FLASH_GET_FLAG(FLASH_FLAG_PGERR))
 752              		.loc 1 867 0
 753 0050 13F0040F 		tst	r3, #4
 754 0054 07D0     		beq	.L66
 755              	.L63:
 871:./Drivers/STM32F1xx_HAL_Driver/Src/stm32f1xx_hal_flash.c ****     return HAL_ERROR;
 756              		.loc 1 871 0
 757 0056 FFF7FEFF 		bl	FLASH_SetErrorCode
 758              	.LVL35:
 872:./Drivers/STM32F1xx_HAL_Driver/Src/stm32f1xx_hal_flash.c ****   }
 759              		.loc 1 872 0
 760 005a 0120     		movs	r0, #1
 761 005c 38BD     		pop	{r3, r4, r5, pc}
 762              	.LVL36:
 763              	.L64:
 854:./Drivers/STM32F1xx_HAL_Driver/Src/stm32f1xx_hal_flash.c ****       }
 764              		.loc 1 854 0
 765 005e 0320     		movs	r0, #3
 766 0060 38BD     		pop	{r3, r4, r5, pc}
 767              	.LVL37:
 768              	.L65:
 769 0062 0320     		movs	r0, #3
 770 0064 38BD     		pop	{r3, r4, r5, pc}
 771              	.LVL38:
 772              	.L66:
 876:./Drivers/STM32F1xx_HAL_Driver/Src/stm32f1xx_hal_flash.c **** }
 773              		.loc 1 876 0
 774 0066 0020     		movs	r0, #0
 877:./Drivers/STM32F1xx_HAL_Driver/Src/stm32f1xx_hal_flash.c **** 
 775              		.loc 1 877 0
 776 0068 38BD     		pop	{r3, r4, r5, pc}
 777              	.LVL39:
 778              	.L69:
 779 006a 00BF     		.align	2
 780              	.L68:
 781 006c 00200240 		.word	1073881088
ARM GAS  /tmp/cc24Z0QC.s 			page 33


 782              		.cfi_endproc
 783              	.LFE75:
 785              		.section	.text.HAL_FLASH_Program,"ax",%progbits
 786              		.align	2
 787              		.global	HAL_FLASH_Program
 788              		.thumb
 789              		.thumb_func
 791              	HAL_FLASH_Program:
 792              	.LFB63:
 187:./Drivers/STM32F1xx_HAL_Driver/Src/stm32f1xx_hal_flash.c ****   HAL_StatusTypeDef status = HAL_ERROR;
 793              		.loc 1 187 0
 794              		.cfi_startproc
 795              		@ args = 0, pretend = 0, frame = 0
 796              		@ frame_needed = 0, uses_anonymous_args = 0
 797              	.LVL40:
 798 0000 2DE9F843 		push	{r3, r4, r5, r6, r7, r8, r9, lr}
 799              	.LCFI4:
 800              		.cfi_def_cfa_offset 32
 801              		.cfi_offset 3, -32
 802              		.cfi_offset 4, -28
 803              		.cfi_offset 5, -24
 804              		.cfi_offset 6, -20
 805              		.cfi_offset 7, -16
 806              		.cfi_offset 8, -12
 807              		.cfi_offset 9, -8
 808              		.cfi_offset 14, -4
 809              	.LVL41:
 193:./Drivers/STM32F1xx_HAL_Driver/Src/stm32f1xx_hal_flash.c **** 
 810              		.loc 1 193 0
 811 0004 244C     		ldr	r4, .L80
 812 0006 247E     		ldrb	r4, [r4, #24]	@ zero_extendqisi2
 813 0008 012C     		cmp	r4, #1
 814 000a 41D0     		beq	.L76
 815 000c 1E46     		mov	r6, r3
 816 000e 9046     		mov	r8, r2
 817 0010 0F46     		mov	r7, r1
 818 0012 0446     		mov	r4, r0
 193:./Drivers/STM32F1xx_HAL_Driver/Src/stm32f1xx_hal_flash.c **** 
 819              		.loc 1 193 0 is_stmt 0 discriminator 2
 820 0014 0122     		movs	r2, #1
 821              	.LVL42:
 822 0016 204B     		ldr	r3, .L80
 823 0018 1A76     		strb	r2, [r3, #24]
 204:./Drivers/STM32F1xx_HAL_Driver/Src/stm32f1xx_hal_flash.c **** #if defined(FLASH_BANK2_END)
 824              		.loc 1 204 0 is_stmt 1 discriminator 2
 825 001a 4CF25030 		movw	r0, #50000
 826              	.LVL43:
 827 001e FFF7FEFF 		bl	FLASH_WaitForLastOperation
 828              	.LVL44:
 214:./Drivers/STM32F1xx_HAL_Driver/Src/stm32f1xx_hal_flash.c ****   {
 829              		.loc 1 214 0 discriminator 2
 830 0022 0346     		mov	r3, r0
 831 0024 70BB     		cbnz	r0, .L72
 216:./Drivers/STM32F1xx_HAL_Driver/Src/stm32f1xx_hal_flash.c ****     {
 832              		.loc 1 216 0
 833 0026 012C     		cmp	r4, #1
 834 0028 04D0     		beq	.L77
ARM GAS  /tmp/cc24Z0QC.s 			page 34


 221:./Drivers/STM32F1xx_HAL_Driver/Src/stm32f1xx_hal_flash.c ****     {
 835              		.loc 1 221 0
 836 002a 022C     		cmp	r4, #2
 837 002c 05D1     		bne	.L78
 224:./Drivers/STM32F1xx_HAL_Driver/Src/stm32f1xx_hal_flash.c ****     }
 838              		.loc 1 224 0
 839 002e 4FF00209 		mov	r9, #2
 840 0032 04E0     		b	.L73
 841              	.L77:
 219:./Drivers/STM32F1xx_HAL_Driver/Src/stm32f1xx_hal_flash.c ****     }
 842              		.loc 1 219 0
 843 0034 4FF00109 		mov	r9, #1
 844 0038 01E0     		b	.L73
 845              	.L78:
 229:./Drivers/STM32F1xx_HAL_Driver/Src/stm32f1xx_hal_flash.c ****     }
 846              		.loc 1 229 0
 847 003a 4FF00409 		mov	r9, #4
 848              	.L73:
 849              	.LVL45:
 232:./Drivers/STM32F1xx_HAL_Driver/Src/stm32f1xx_hal_flash.c ****     {
 850              		.loc 1 232 0
 851 003e 0024     		movs	r4, #0
 852              	.LVL46:
 853 0040 1EE0     		b	.L74
 854              	.LVL47:
 855              	.L75:
 234:./Drivers/STM32F1xx_HAL_Driver/Src/stm32f1xx_hal_flash.c **** 
 856              		.loc 1 234 0
 857 0042 2101     		lsls	r1, r4, #4
 858 0044 C1F12002 		rsb	r2, r1, #32
 859 0048 A1F12003 		sub	r3, r1, #32
 860              	.LVL48:
 861 004c 28FA01F1 		lsr	r1, r8, r1
 862 0050 06FA02F2 		lsl	r2, r6, r2
 863 0054 1143     		orrs	r1, r1, r2
 864 0056 26FA03F3 		lsr	r3, r6, r3
 865 005a 1943     		orrs	r1, r1, r3
 866 005c 07EB4400 		add	r0, r7, r4, lsl #1
 867 0060 89B2     		uxth	r1, r1
 868 0062 FFF7FEFF 		bl	FLASH_Program_HalfWord
 869              	.LVL49:
 241:./Drivers/STM32F1xx_HAL_Driver/Src/stm32f1xx_hal_flash.c ****     
 870              		.loc 1 241 0
 871 0066 4CF25030 		movw	r0, #50000
 872 006a FFF7FEFF 		bl	FLASH_WaitForLastOperation
 873              	.LVL50:
 244:./Drivers/STM32F1xx_HAL_Driver/Src/stm32f1xx_hal_flash.c **** #if defined(FLASH_BANK2_END)
 874              		.loc 1 244 0
 875 006e 0B4B     		ldr	r3, .L80+4
 876 0070 1D69     		ldr	r5, [r3, #16]
 877 0072 25F00105 		bic	r5, r5, #1
 878 0076 1D61     		str	r5, [r3, #16]
 257:./Drivers/STM32F1xx_HAL_Driver/Src/stm32f1xx_hal_flash.c ****       {
 879              		.loc 1 257 0
 880 0078 0346     		mov	r3, r0
 881 007a 18B9     		cbnz	r0, .L72
 232:./Drivers/STM32F1xx_HAL_Driver/Src/stm32f1xx_hal_flash.c ****     {
ARM GAS  /tmp/cc24Z0QC.s 			page 35


 882              		.loc 1 232 0 discriminator 2
 883 007c 0134     		adds	r4, r4, #1
 884              	.LVL51:
 885 007e E4B2     		uxtb	r4, r4
 886              	.LVL52:
 887              	.L74:
 232:./Drivers/STM32F1xx_HAL_Driver/Src/stm32f1xx_hal_flash.c ****     {
 888              		.loc 1 232 0 is_stmt 0 discriminator 1
 889 0080 4C45     		cmp	r4, r9
 890 0082 DED3     		bcc	.L75
 891              	.LVL53:
 892              	.L72:
 265:./Drivers/STM32F1xx_HAL_Driver/Src/stm32f1xx_hal_flash.c **** 
 893              		.loc 1 265 0 is_stmt 1
 894 0084 0021     		movs	r1, #0
 895 0086 044A     		ldr	r2, .L80
 896 0088 1176     		strb	r1, [r2, #24]
 267:./Drivers/STM32F1xx_HAL_Driver/Src/stm32f1xx_hal_flash.c **** }
 897              		.loc 1 267 0
 898 008a 1846     		mov	r0, r3
 899 008c BDE8F883 		pop	{r3, r4, r5, r6, r7, r8, r9, pc}
 900              	.LVL54:
 901              	.L76:
 193:./Drivers/STM32F1xx_HAL_Driver/Src/stm32f1xx_hal_flash.c **** 
 902              		.loc 1 193 0
 903 0090 0220     		movs	r0, #2
 904              	.LVL55:
 268:./Drivers/STM32F1xx_HAL_Driver/Src/stm32f1xx_hal_flash.c **** 
 905              		.loc 1 268 0
 906 0092 BDE8F883 		pop	{r3, r4, r5, r6, r7, r8, r9, pc}
 907              	.L81:
 908 0096 00BF     		.align	2
 909              	.L80:
 910 0098 00000000 		.word	pFlash
 911 009c 00200240 		.word	1073881088
 912              		.cfi_endproc
 913              	.LFE63:
 915              		.comm	pFlash,32,8
 916              		.text
 917              	.Letext0:
 918              		.file 2 "/usr/include/newlib/machine/_default_types.h"
 919              		.file 3 "/usr/include/newlib/sys/_stdint.h"
 920              		.file 4 "./Drivers/CMSIS/Device/ST/STM32F1xx/Include/stm32f103xe.h"
 921              		.file 5 "./Drivers/CMSIS/Device/ST/STM32F1xx/Include/stm32f1xx.h"
 922              		.file 6 "./Drivers/STM32F1xx_HAL_Driver/Inc/stm32f1xx_hal_def.h"
 923              		.file 7 "./Drivers/STM32F1xx_HAL_Driver/Inc/stm32f1xx_hal_flash.h"
 924              		.file 8 "./Drivers/CMSIS/Include/core_cm3.h"
 925              		.file 9 "./Drivers/STM32F1xx_HAL_Driver/Inc/stm32f1xx_hal_cortex.h"
 926              		.file 10 "./Drivers/STM32F1xx_HAL_Driver/Inc/stm32f1xx_hal.h"
ARM GAS  /tmp/cc24Z0QC.s 			page 36

