ARM GAS  /tmp/ccpVxzjx.s 			page 1


   1              		.syntax unified
   2              		.cpu cortex-m3
   3              		.fpu softvfp
   4              		.eabi_attribute 20, 1
   5              		.eabi_attribute 21, 1
   6              		.eabi_attribute 23, 3
   7              		.eabi_attribute 24, 1
   8              		.eabi_attribute 25, 1
   9              		.eabi_attribute 26, 1
  10              		.eabi_attribute 30, 1
  11              		.eabi_attribute 34, 1
  12              		.eabi_attribute 18, 4
  13              		.thumb
  14              		.file	"stm32f1xx_hal_flash_ex.c"
  15              		.text
  16              	.Ltext0:
  17              		.cfi_sections	.debug_frame
  18              		.section	.text.FLASH_MassErase,"ax",%progbits
  19              		.align	2
  20              		.thumb
  21              		.thumb_func
  23              	FLASH_MassErase:
  24              	.LFB69:
  25              		.file 1 "./Drivers/STM32F1xx_HAL_Driver/Src/stm32f1xx_hal_flash_ex.c"
   1:./Drivers/STM32F1xx_HAL_Driver/Src/stm32f1xx_hal_flash_ex.c **** /**
   2:./Drivers/STM32F1xx_HAL_Driver/Src/stm32f1xx_hal_flash_ex.c ****   ******************************************************************************
   3:./Drivers/STM32F1xx_HAL_Driver/Src/stm32f1xx_hal_flash_ex.c ****   * @file    stm32f1xx_hal_flash_ex.c
   4:./Drivers/STM32F1xx_HAL_Driver/Src/stm32f1xx_hal_flash_ex.c ****   * @author  MCD Application Team
   5:./Drivers/STM32F1xx_HAL_Driver/Src/stm32f1xx_hal_flash_ex.c ****   * @version V1.0.4
   6:./Drivers/STM32F1xx_HAL_Driver/Src/stm32f1xx_hal_flash_ex.c ****   * @date    29-April-2016
   7:./Drivers/STM32F1xx_HAL_Driver/Src/stm32f1xx_hal_flash_ex.c ****   * @brief   Extended FLASH HAL module driver.
   8:./Drivers/STM32F1xx_HAL_Driver/Src/stm32f1xx_hal_flash_ex.c ****   *    
   9:./Drivers/STM32F1xx_HAL_Driver/Src/stm32f1xx_hal_flash_ex.c ****   *          This file provides firmware functions to manage the following 
  10:./Drivers/STM32F1xx_HAL_Driver/Src/stm32f1xx_hal_flash_ex.c ****   *          functionalities of the FLASH peripheral:
  11:./Drivers/STM32F1xx_HAL_Driver/Src/stm32f1xx_hal_flash_ex.c ****   *           + Extended Initialization/de-initialization functions
  12:./Drivers/STM32F1xx_HAL_Driver/Src/stm32f1xx_hal_flash_ex.c ****   *           + Extended I/O operation functions
  13:./Drivers/STM32F1xx_HAL_Driver/Src/stm32f1xx_hal_flash_ex.c ****   *           + Extended Peripheral Control functions 
  14:./Drivers/STM32F1xx_HAL_Driver/Src/stm32f1xx_hal_flash_ex.c ****   *         
  15:./Drivers/STM32F1xx_HAL_Driver/Src/stm32f1xx_hal_flash_ex.c ****   @verbatim
  16:./Drivers/STM32F1xx_HAL_Driver/Src/stm32f1xx_hal_flash_ex.c ****   ==============================================================================
  17:./Drivers/STM32F1xx_HAL_Driver/Src/stm32f1xx_hal_flash_ex.c ****                ##### Flash peripheral extended features  #####
  18:./Drivers/STM32F1xx_HAL_Driver/Src/stm32f1xx_hal_flash_ex.c ****   ==============================================================================
  19:./Drivers/STM32F1xx_HAL_Driver/Src/stm32f1xx_hal_flash_ex.c ****            
  20:./Drivers/STM32F1xx_HAL_Driver/Src/stm32f1xx_hal_flash_ex.c ****                       ##### How to use this driver #####
  21:./Drivers/STM32F1xx_HAL_Driver/Src/stm32f1xx_hal_flash_ex.c ****   ==============================================================================
  22:./Drivers/STM32F1xx_HAL_Driver/Src/stm32f1xx_hal_flash_ex.c ****   [..] This driver provides functions to configure and program the FLASH memory 
  23:./Drivers/STM32F1xx_HAL_Driver/Src/stm32f1xx_hal_flash_ex.c ****        of all STM32F1xxx devices. It includes
  24:./Drivers/STM32F1xx_HAL_Driver/Src/stm32f1xx_hal_flash_ex.c ****        
  25:./Drivers/STM32F1xx_HAL_Driver/Src/stm32f1xx_hal_flash_ex.c ****         (++) Set/Reset the write protection
  26:./Drivers/STM32F1xx_HAL_Driver/Src/stm32f1xx_hal_flash_ex.c ****         (++) Program the user Option Bytes
  27:./Drivers/STM32F1xx_HAL_Driver/Src/stm32f1xx_hal_flash_ex.c ****         (++) Get the Read protection Level
  28:./Drivers/STM32F1xx_HAL_Driver/Src/stm32f1xx_hal_flash_ex.c ****   
  29:./Drivers/STM32F1xx_HAL_Driver/Src/stm32f1xx_hal_flash_ex.c ****   @endverbatim
  30:./Drivers/STM32F1xx_HAL_Driver/Src/stm32f1xx_hal_flash_ex.c ****   ******************************************************************************
  31:./Drivers/STM32F1xx_HAL_Driver/Src/stm32f1xx_hal_flash_ex.c ****   * @attention
  32:./Drivers/STM32F1xx_HAL_Driver/Src/stm32f1xx_hal_flash_ex.c ****   *
  33:./Drivers/STM32F1xx_HAL_Driver/Src/stm32f1xx_hal_flash_ex.c ****   * <h2><center>&copy; COPYRIGHT(c) 2016 STMicroelectronics</center></h2>
ARM GAS  /tmp/ccpVxzjx.s 			page 2


  34:./Drivers/STM32F1xx_HAL_Driver/Src/stm32f1xx_hal_flash_ex.c ****   *
  35:./Drivers/STM32F1xx_HAL_Driver/Src/stm32f1xx_hal_flash_ex.c ****   * Redistribution and use in source and binary forms, with or without modification,
  36:./Drivers/STM32F1xx_HAL_Driver/Src/stm32f1xx_hal_flash_ex.c ****   * are permitted provided that the following conditions are met:
  37:./Drivers/STM32F1xx_HAL_Driver/Src/stm32f1xx_hal_flash_ex.c ****   *   1. Redistributions of source code must retain the above copyright notice,
  38:./Drivers/STM32F1xx_HAL_Driver/Src/stm32f1xx_hal_flash_ex.c ****   *      this list of conditions and the following disclaimer.
  39:./Drivers/STM32F1xx_HAL_Driver/Src/stm32f1xx_hal_flash_ex.c ****   *   2. Redistributions in binary form must reproduce the above copyright notice,
  40:./Drivers/STM32F1xx_HAL_Driver/Src/stm32f1xx_hal_flash_ex.c ****   *      this list of conditions and the following disclaimer in the documentation
  41:./Drivers/STM32F1xx_HAL_Driver/Src/stm32f1xx_hal_flash_ex.c ****   *      and/or other materials provided with the distribution.
  42:./Drivers/STM32F1xx_HAL_Driver/Src/stm32f1xx_hal_flash_ex.c ****   *   3. Neither the name of STMicroelectronics nor the names of its contributors
  43:./Drivers/STM32F1xx_HAL_Driver/Src/stm32f1xx_hal_flash_ex.c ****   *      may be used to endorse or promote products derived from this software
  44:./Drivers/STM32F1xx_HAL_Driver/Src/stm32f1xx_hal_flash_ex.c ****   *      without specific prior written permission.
  45:./Drivers/STM32F1xx_HAL_Driver/Src/stm32f1xx_hal_flash_ex.c ****   *
  46:./Drivers/STM32F1xx_HAL_Driver/Src/stm32f1xx_hal_flash_ex.c ****   * THIS SOFTWARE IS PROVIDED BY THE COPYRIGHT HOLDERS AND CONTRIBUTORS "AS IS"
  47:./Drivers/STM32F1xx_HAL_Driver/Src/stm32f1xx_hal_flash_ex.c ****   * AND ANY EXPRESS OR IMPLIED WARRANTIES, INCLUDING, BUT NOT LIMITED TO, THE
  48:./Drivers/STM32F1xx_HAL_Driver/Src/stm32f1xx_hal_flash_ex.c ****   * IMPLIED WARRANTIES OF MERCHANTABILITY AND FITNESS FOR A PARTICULAR PURPOSE ARE
  49:./Drivers/STM32F1xx_HAL_Driver/Src/stm32f1xx_hal_flash_ex.c ****   * DISCLAIMED. IN NO EVENT SHALL THE COPYRIGHT HOLDER OR CONTRIBUTORS BE LIABLE
  50:./Drivers/STM32F1xx_HAL_Driver/Src/stm32f1xx_hal_flash_ex.c ****   * FOR ANY DIRECT, INDIRECT, INCIDENTAL, SPECIAL, EXEMPLARY, OR CONSEQUENTIAL
  51:./Drivers/STM32F1xx_HAL_Driver/Src/stm32f1xx_hal_flash_ex.c ****   * DAMAGES (INCLUDING, BUT NOT LIMITED TO, PROCUREMENT OF SUBSTITUTE GOODS OR
  52:./Drivers/STM32F1xx_HAL_Driver/Src/stm32f1xx_hal_flash_ex.c ****   * SERVICES; LOSS OF USE, DATA, OR PROFITS; OR BUSINESS INTERRUPTION) HOWEVER
  53:./Drivers/STM32F1xx_HAL_Driver/Src/stm32f1xx_hal_flash_ex.c ****   * CAUSED AND ON ANY THEORY OF LIABILITY, WHETHER IN CONTRACT, STRICT LIABILITY,
  54:./Drivers/STM32F1xx_HAL_Driver/Src/stm32f1xx_hal_flash_ex.c ****   * OR TORT (INCLUDING NEGLIGENCE OR OTHERWISE) ARISING IN ANY WAY OUT OF THE USE
  55:./Drivers/STM32F1xx_HAL_Driver/Src/stm32f1xx_hal_flash_ex.c ****   * OF THIS SOFTWARE, EVEN IF ADVISED OF THE POSSIBILITY OF SUCH DAMAGE.
  56:./Drivers/STM32F1xx_HAL_Driver/Src/stm32f1xx_hal_flash_ex.c ****   *
  57:./Drivers/STM32F1xx_HAL_Driver/Src/stm32f1xx_hal_flash_ex.c ****   ******************************************************************************  
  58:./Drivers/STM32F1xx_HAL_Driver/Src/stm32f1xx_hal_flash_ex.c ****   */
  59:./Drivers/STM32F1xx_HAL_Driver/Src/stm32f1xx_hal_flash_ex.c **** 
  60:./Drivers/STM32F1xx_HAL_Driver/Src/stm32f1xx_hal_flash_ex.c **** /* Includes ------------------------------------------------------------------*/
  61:./Drivers/STM32F1xx_HAL_Driver/Src/stm32f1xx_hal_flash_ex.c **** #include "stm32f1xx_hal.h"
  62:./Drivers/STM32F1xx_HAL_Driver/Src/stm32f1xx_hal_flash_ex.c **** 
  63:./Drivers/STM32F1xx_HAL_Driver/Src/stm32f1xx_hal_flash_ex.c **** /** @addtogroup STM32F1xx_HAL_Driver
  64:./Drivers/STM32F1xx_HAL_Driver/Src/stm32f1xx_hal_flash_ex.c ****   * @{
  65:./Drivers/STM32F1xx_HAL_Driver/Src/stm32f1xx_hal_flash_ex.c ****   */
  66:./Drivers/STM32F1xx_HAL_Driver/Src/stm32f1xx_hal_flash_ex.c **** #ifdef HAL_FLASH_MODULE_ENABLED
  67:./Drivers/STM32F1xx_HAL_Driver/Src/stm32f1xx_hal_flash_ex.c **** 
  68:./Drivers/STM32F1xx_HAL_Driver/Src/stm32f1xx_hal_flash_ex.c **** /** @addtogroup FLASH
  69:./Drivers/STM32F1xx_HAL_Driver/Src/stm32f1xx_hal_flash_ex.c ****   * @{
  70:./Drivers/STM32F1xx_HAL_Driver/Src/stm32f1xx_hal_flash_ex.c ****   */
  71:./Drivers/STM32F1xx_HAL_Driver/Src/stm32f1xx_hal_flash_ex.c **** /** @addtogroup FLASH_Private_Variables
  72:./Drivers/STM32F1xx_HAL_Driver/Src/stm32f1xx_hal_flash_ex.c ****  * @{
  73:./Drivers/STM32F1xx_HAL_Driver/Src/stm32f1xx_hal_flash_ex.c ****  */
  74:./Drivers/STM32F1xx_HAL_Driver/Src/stm32f1xx_hal_flash_ex.c **** /* Variables used for Erase pages under interruption*/
  75:./Drivers/STM32F1xx_HAL_Driver/Src/stm32f1xx_hal_flash_ex.c **** extern FLASH_ProcessTypeDef pFlash;
  76:./Drivers/STM32F1xx_HAL_Driver/Src/stm32f1xx_hal_flash_ex.c **** /**
  77:./Drivers/STM32F1xx_HAL_Driver/Src/stm32f1xx_hal_flash_ex.c ****   * @}
  78:./Drivers/STM32F1xx_HAL_Driver/Src/stm32f1xx_hal_flash_ex.c ****   */
  79:./Drivers/STM32F1xx_HAL_Driver/Src/stm32f1xx_hal_flash_ex.c **** 
  80:./Drivers/STM32F1xx_HAL_Driver/Src/stm32f1xx_hal_flash_ex.c **** /**
  81:./Drivers/STM32F1xx_HAL_Driver/Src/stm32f1xx_hal_flash_ex.c ****   * @}
  82:./Drivers/STM32F1xx_HAL_Driver/Src/stm32f1xx_hal_flash_ex.c ****   */
  83:./Drivers/STM32F1xx_HAL_Driver/Src/stm32f1xx_hal_flash_ex.c ****   
  84:./Drivers/STM32F1xx_HAL_Driver/Src/stm32f1xx_hal_flash_ex.c **** /** @defgroup FLASHEx FLASHEx
  85:./Drivers/STM32F1xx_HAL_Driver/Src/stm32f1xx_hal_flash_ex.c ****   * @brief FLASH HAL Extension module driver
  86:./Drivers/STM32F1xx_HAL_Driver/Src/stm32f1xx_hal_flash_ex.c ****   * @{
  87:./Drivers/STM32F1xx_HAL_Driver/Src/stm32f1xx_hal_flash_ex.c ****   */
  88:./Drivers/STM32F1xx_HAL_Driver/Src/stm32f1xx_hal_flash_ex.c **** 
  89:./Drivers/STM32F1xx_HAL_Driver/Src/stm32f1xx_hal_flash_ex.c **** /* Private typedef -----------------------------------------------------------*/
  90:./Drivers/STM32F1xx_HAL_Driver/Src/stm32f1xx_hal_flash_ex.c **** /* Private define ------------------------------------------------------------*/
ARM GAS  /tmp/ccpVxzjx.s 			page 3


  91:./Drivers/STM32F1xx_HAL_Driver/Src/stm32f1xx_hal_flash_ex.c **** /** @defgroup FLASHEx_Private_Constants FLASHEx Private Constants
  92:./Drivers/STM32F1xx_HAL_Driver/Src/stm32f1xx_hal_flash_ex.c ****  * @{
  93:./Drivers/STM32F1xx_HAL_Driver/Src/stm32f1xx_hal_flash_ex.c ****  */
  94:./Drivers/STM32F1xx_HAL_Driver/Src/stm32f1xx_hal_flash_ex.c **** #define FLASH_POSITION_IWDGSW_BIT        (uint32_t)POSITION_VAL(FLASH_OBR_IWDG_SW)
  95:./Drivers/STM32F1xx_HAL_Driver/Src/stm32f1xx_hal_flash_ex.c **** #define FLASH_POSITION_OB_USERDATA0_BIT  (uint32_t)POSITION_VAL(FLASH_OBR_DATA0)
  96:./Drivers/STM32F1xx_HAL_Driver/Src/stm32f1xx_hal_flash_ex.c **** #define FLASH_POSITION_OB_USERDATA1_BIT  (uint32_t)POSITION_VAL(FLASH_OBR_DATA1)
  97:./Drivers/STM32F1xx_HAL_Driver/Src/stm32f1xx_hal_flash_ex.c **** /**
  98:./Drivers/STM32F1xx_HAL_Driver/Src/stm32f1xx_hal_flash_ex.c ****   * @}
  99:./Drivers/STM32F1xx_HAL_Driver/Src/stm32f1xx_hal_flash_ex.c ****   */
 100:./Drivers/STM32F1xx_HAL_Driver/Src/stm32f1xx_hal_flash_ex.c **** 
 101:./Drivers/STM32F1xx_HAL_Driver/Src/stm32f1xx_hal_flash_ex.c **** /* Private macro -------------------------------------------------------------*/
 102:./Drivers/STM32F1xx_HAL_Driver/Src/stm32f1xx_hal_flash_ex.c **** /** @defgroup FLASHEx_Private_Macros FLASHEx Private Macros
 103:./Drivers/STM32F1xx_HAL_Driver/Src/stm32f1xx_hal_flash_ex.c ****   * @{
 104:./Drivers/STM32F1xx_HAL_Driver/Src/stm32f1xx_hal_flash_ex.c ****   */
 105:./Drivers/STM32F1xx_HAL_Driver/Src/stm32f1xx_hal_flash_ex.c **** /**
 106:./Drivers/STM32F1xx_HAL_Driver/Src/stm32f1xx_hal_flash_ex.c ****   * @}
 107:./Drivers/STM32F1xx_HAL_Driver/Src/stm32f1xx_hal_flash_ex.c ****   */ 
 108:./Drivers/STM32F1xx_HAL_Driver/Src/stm32f1xx_hal_flash_ex.c **** 
 109:./Drivers/STM32F1xx_HAL_Driver/Src/stm32f1xx_hal_flash_ex.c **** /* Private variables ---------------------------------------------------------*/
 110:./Drivers/STM32F1xx_HAL_Driver/Src/stm32f1xx_hal_flash_ex.c **** /* Private function prototypes -----------------------------------------------*/
 111:./Drivers/STM32F1xx_HAL_Driver/Src/stm32f1xx_hal_flash_ex.c **** /** @defgroup FLASHEx_Private_Functions FLASHEx Private Functions
 112:./Drivers/STM32F1xx_HAL_Driver/Src/stm32f1xx_hal_flash_ex.c ****  * @{
 113:./Drivers/STM32F1xx_HAL_Driver/Src/stm32f1xx_hal_flash_ex.c ****  */
 114:./Drivers/STM32F1xx_HAL_Driver/Src/stm32f1xx_hal_flash_ex.c **** /* Erase operations */
 115:./Drivers/STM32F1xx_HAL_Driver/Src/stm32f1xx_hal_flash_ex.c **** static void              FLASH_MassErase(uint32_t Banks);
 116:./Drivers/STM32F1xx_HAL_Driver/Src/stm32f1xx_hal_flash_ex.c **** 
 117:./Drivers/STM32F1xx_HAL_Driver/Src/stm32f1xx_hal_flash_ex.c **** /* Option bytes control */
 118:./Drivers/STM32F1xx_HAL_Driver/Src/stm32f1xx_hal_flash_ex.c **** static HAL_StatusTypeDef FLASH_OB_EnableWRP(uint32_t WriteProtectPage);
 119:./Drivers/STM32F1xx_HAL_Driver/Src/stm32f1xx_hal_flash_ex.c **** static HAL_StatusTypeDef FLASH_OB_DisableWRP(uint32_t WriteProtectPage);
 120:./Drivers/STM32F1xx_HAL_Driver/Src/stm32f1xx_hal_flash_ex.c **** static HAL_StatusTypeDef FLASH_OB_RDP_LevelConfig(uint8_t ReadProtectLevel);
 121:./Drivers/STM32F1xx_HAL_Driver/Src/stm32f1xx_hal_flash_ex.c **** static HAL_StatusTypeDef FLASH_OB_UserConfig(uint8_t UserConfig);
 122:./Drivers/STM32F1xx_HAL_Driver/Src/stm32f1xx_hal_flash_ex.c **** static HAL_StatusTypeDef FLASH_OB_ProgramData(uint32_t Address, uint8_t Data);
 123:./Drivers/STM32F1xx_HAL_Driver/Src/stm32f1xx_hal_flash_ex.c **** static uint32_t          FLASH_OB_GetWRP(void);
 124:./Drivers/STM32F1xx_HAL_Driver/Src/stm32f1xx_hal_flash_ex.c **** static uint32_t          FLASH_OB_GetRDP(void);
 125:./Drivers/STM32F1xx_HAL_Driver/Src/stm32f1xx_hal_flash_ex.c **** static uint8_t           FLASH_OB_GetUser(void);
 126:./Drivers/STM32F1xx_HAL_Driver/Src/stm32f1xx_hal_flash_ex.c **** 
 127:./Drivers/STM32F1xx_HAL_Driver/Src/stm32f1xx_hal_flash_ex.c **** /**
 128:./Drivers/STM32F1xx_HAL_Driver/Src/stm32f1xx_hal_flash_ex.c ****   * @}
 129:./Drivers/STM32F1xx_HAL_Driver/Src/stm32f1xx_hal_flash_ex.c ****   */
 130:./Drivers/STM32F1xx_HAL_Driver/Src/stm32f1xx_hal_flash_ex.c **** 
 131:./Drivers/STM32F1xx_HAL_Driver/Src/stm32f1xx_hal_flash_ex.c **** /* Exported functions ---------------------------------------------------------*/
 132:./Drivers/STM32F1xx_HAL_Driver/Src/stm32f1xx_hal_flash_ex.c **** /** @defgroup FLASHEx_Exported_Functions FLASHEx Exported Functions
 133:./Drivers/STM32F1xx_HAL_Driver/Src/stm32f1xx_hal_flash_ex.c ****   * @{
 134:./Drivers/STM32F1xx_HAL_Driver/Src/stm32f1xx_hal_flash_ex.c ****   */
 135:./Drivers/STM32F1xx_HAL_Driver/Src/stm32f1xx_hal_flash_ex.c ****   
 136:./Drivers/STM32F1xx_HAL_Driver/Src/stm32f1xx_hal_flash_ex.c **** /** @defgroup FLASHEx_Exported_Functions_Group1 FLASHEx Memory Erasing functions
 137:./Drivers/STM32F1xx_HAL_Driver/Src/stm32f1xx_hal_flash_ex.c ****  *  @brief   FLASH Memory Erasing functions
 138:./Drivers/STM32F1xx_HAL_Driver/Src/stm32f1xx_hal_flash_ex.c ****   *
 139:./Drivers/STM32F1xx_HAL_Driver/Src/stm32f1xx_hal_flash_ex.c **** @verbatim   
 140:./Drivers/STM32F1xx_HAL_Driver/Src/stm32f1xx_hal_flash_ex.c ****   ==============================================================================
 141:./Drivers/STM32F1xx_HAL_Driver/Src/stm32f1xx_hal_flash_ex.c ****                 ##### FLASH Erasing Programming functions ##### 
 142:./Drivers/STM32F1xx_HAL_Driver/Src/stm32f1xx_hal_flash_ex.c ****   ==============================================================================
 143:./Drivers/STM32F1xx_HAL_Driver/Src/stm32f1xx_hal_flash_ex.c **** 
 144:./Drivers/STM32F1xx_HAL_Driver/Src/stm32f1xx_hal_flash_ex.c ****     [..] The FLASH Memory Erasing functions, includes the following functions:
 145:./Drivers/STM32F1xx_HAL_Driver/Src/stm32f1xx_hal_flash_ex.c ****     (+) @ref HAL_FLASHEx_Erase: return only when erase has been done
 146:./Drivers/STM32F1xx_HAL_Driver/Src/stm32f1xx_hal_flash_ex.c ****     (+) @ref HAL_FLASHEx_Erase_IT: end of erase is done when @ref HAL_FLASH_EndOfOperationCallback 
 147:./Drivers/STM32F1xx_HAL_Driver/Src/stm32f1xx_hal_flash_ex.c ****         is called with parameter 0xFFFFFFFF
ARM GAS  /tmp/ccpVxzjx.s 			page 4


 148:./Drivers/STM32F1xx_HAL_Driver/Src/stm32f1xx_hal_flash_ex.c **** 
 149:./Drivers/STM32F1xx_HAL_Driver/Src/stm32f1xx_hal_flash_ex.c ****     [..] Any operation of erase should follow these steps:
 150:./Drivers/STM32F1xx_HAL_Driver/Src/stm32f1xx_hal_flash_ex.c ****     (#) Call the @ref HAL_FLASH_Unlock() function to enable the flash control register and 
 151:./Drivers/STM32F1xx_HAL_Driver/Src/stm32f1xx_hal_flash_ex.c ****         program memory access.
 152:./Drivers/STM32F1xx_HAL_Driver/Src/stm32f1xx_hal_flash_ex.c ****     (#) Call the desired function to erase page.
 153:./Drivers/STM32F1xx_HAL_Driver/Src/stm32f1xx_hal_flash_ex.c ****     (#) Call the @ref HAL_FLASH_Lock() to disable the flash program memory access 
 154:./Drivers/STM32F1xx_HAL_Driver/Src/stm32f1xx_hal_flash_ex.c ****        (recommended to protect the FLASH memory against possible unwanted operation).
 155:./Drivers/STM32F1xx_HAL_Driver/Src/stm32f1xx_hal_flash_ex.c **** 
 156:./Drivers/STM32F1xx_HAL_Driver/Src/stm32f1xx_hal_flash_ex.c **** @endverbatim
 157:./Drivers/STM32F1xx_HAL_Driver/Src/stm32f1xx_hal_flash_ex.c ****   * @{
 158:./Drivers/STM32F1xx_HAL_Driver/Src/stm32f1xx_hal_flash_ex.c ****   */
 159:./Drivers/STM32F1xx_HAL_Driver/Src/stm32f1xx_hal_flash_ex.c ****   
 160:./Drivers/STM32F1xx_HAL_Driver/Src/stm32f1xx_hal_flash_ex.c **** 
 161:./Drivers/STM32F1xx_HAL_Driver/Src/stm32f1xx_hal_flash_ex.c **** /**
 162:./Drivers/STM32F1xx_HAL_Driver/Src/stm32f1xx_hal_flash_ex.c ****   * @brief  Perform a mass erase or erase the specified FLASH memory pages
 163:./Drivers/STM32F1xx_HAL_Driver/Src/stm32f1xx_hal_flash_ex.c ****   * @note   To correctly run this function, the @ref HAL_FLASH_Unlock() function
 164:./Drivers/STM32F1xx_HAL_Driver/Src/stm32f1xx_hal_flash_ex.c ****   *         must be called before.
 165:./Drivers/STM32F1xx_HAL_Driver/Src/stm32f1xx_hal_flash_ex.c ****   *         Call the @ref HAL_FLASH_Lock() to disable the flash memory access 
 166:./Drivers/STM32F1xx_HAL_Driver/Src/stm32f1xx_hal_flash_ex.c ****   *         (recommended to protect the FLASH memory against possible unwanted operation)
 167:./Drivers/STM32F1xx_HAL_Driver/Src/stm32f1xx_hal_flash_ex.c ****   * @param[in]  pEraseInit pointer to an FLASH_EraseInitTypeDef structure that
 168:./Drivers/STM32F1xx_HAL_Driver/Src/stm32f1xx_hal_flash_ex.c ****   *         contains the configuration information for the erasing.
 169:./Drivers/STM32F1xx_HAL_Driver/Src/stm32f1xx_hal_flash_ex.c ****   *
 170:./Drivers/STM32F1xx_HAL_Driver/Src/stm32f1xx_hal_flash_ex.c ****   * @param[out]  PageError pointer to variable  that
 171:./Drivers/STM32F1xx_HAL_Driver/Src/stm32f1xx_hal_flash_ex.c ****   *         contains the configuration information on faulty page in case of error
 172:./Drivers/STM32F1xx_HAL_Driver/Src/stm32f1xx_hal_flash_ex.c ****   *         (0xFFFFFFFF means that all the pages have been correctly erased)
 173:./Drivers/STM32F1xx_HAL_Driver/Src/stm32f1xx_hal_flash_ex.c ****   *
 174:./Drivers/STM32F1xx_HAL_Driver/Src/stm32f1xx_hal_flash_ex.c ****   * @retval HAL_StatusTypeDef HAL Status
 175:./Drivers/STM32F1xx_HAL_Driver/Src/stm32f1xx_hal_flash_ex.c ****   */
 176:./Drivers/STM32F1xx_HAL_Driver/Src/stm32f1xx_hal_flash_ex.c **** HAL_StatusTypeDef HAL_FLASHEx_Erase(FLASH_EraseInitTypeDef *pEraseInit, uint32_t *PageError)
 177:./Drivers/STM32F1xx_HAL_Driver/Src/stm32f1xx_hal_flash_ex.c **** {
 178:./Drivers/STM32F1xx_HAL_Driver/Src/stm32f1xx_hal_flash_ex.c ****   HAL_StatusTypeDef status = HAL_ERROR;
 179:./Drivers/STM32F1xx_HAL_Driver/Src/stm32f1xx_hal_flash_ex.c ****   uint32_t address = 0;
 180:./Drivers/STM32F1xx_HAL_Driver/Src/stm32f1xx_hal_flash_ex.c **** 
 181:./Drivers/STM32F1xx_HAL_Driver/Src/stm32f1xx_hal_flash_ex.c ****   /* Process Locked */
 182:./Drivers/STM32F1xx_HAL_Driver/Src/stm32f1xx_hal_flash_ex.c ****   __HAL_LOCK(&pFlash);
 183:./Drivers/STM32F1xx_HAL_Driver/Src/stm32f1xx_hal_flash_ex.c **** 
 184:./Drivers/STM32F1xx_HAL_Driver/Src/stm32f1xx_hal_flash_ex.c ****   /* Check the parameters */
 185:./Drivers/STM32F1xx_HAL_Driver/Src/stm32f1xx_hal_flash_ex.c ****   assert_param(IS_FLASH_TYPEERASE(pEraseInit->TypeErase));
 186:./Drivers/STM32F1xx_HAL_Driver/Src/stm32f1xx_hal_flash_ex.c **** 
 187:./Drivers/STM32F1xx_HAL_Driver/Src/stm32f1xx_hal_flash_ex.c ****   if (pEraseInit->TypeErase == FLASH_TYPEERASE_MASSERASE)
 188:./Drivers/STM32F1xx_HAL_Driver/Src/stm32f1xx_hal_flash_ex.c ****   {
 189:./Drivers/STM32F1xx_HAL_Driver/Src/stm32f1xx_hal_flash_ex.c **** #if defined(FLASH_BANK2_END)
 190:./Drivers/STM32F1xx_HAL_Driver/Src/stm32f1xx_hal_flash_ex.c ****     if (pEraseInit->Banks == FLASH_BANK_BOTH)
 191:./Drivers/STM32F1xx_HAL_Driver/Src/stm32f1xx_hal_flash_ex.c ****     {
 192:./Drivers/STM32F1xx_HAL_Driver/Src/stm32f1xx_hal_flash_ex.c ****       /* Mass Erase requested for Bank1 and Bank2 */
 193:./Drivers/STM32F1xx_HAL_Driver/Src/stm32f1xx_hal_flash_ex.c ****       /* Wait for last operation to be completed */
 194:./Drivers/STM32F1xx_HAL_Driver/Src/stm32f1xx_hal_flash_ex.c ****       if ((FLASH_WaitForLastOperation((uint32_t)FLASH_TIMEOUT_VALUE) == HAL_OK) && \
 195:./Drivers/STM32F1xx_HAL_Driver/Src/stm32f1xx_hal_flash_ex.c ****           (FLASH_WaitForLastOperationBank2((uint32_t)FLASH_TIMEOUT_VALUE) == HAL_OK))
 196:./Drivers/STM32F1xx_HAL_Driver/Src/stm32f1xx_hal_flash_ex.c ****       {
 197:./Drivers/STM32F1xx_HAL_Driver/Src/stm32f1xx_hal_flash_ex.c ****         /*Mass erase to be done*/
 198:./Drivers/STM32F1xx_HAL_Driver/Src/stm32f1xx_hal_flash_ex.c ****         FLASH_MassErase(FLASH_BANK_BOTH);
 199:./Drivers/STM32F1xx_HAL_Driver/Src/stm32f1xx_hal_flash_ex.c ****         
 200:./Drivers/STM32F1xx_HAL_Driver/Src/stm32f1xx_hal_flash_ex.c ****         /* Wait for last operation to be completed */
 201:./Drivers/STM32F1xx_HAL_Driver/Src/stm32f1xx_hal_flash_ex.c ****         if ((FLASH_WaitForLastOperation((uint32_t)FLASH_TIMEOUT_VALUE) == HAL_OK) && \
 202:./Drivers/STM32F1xx_HAL_Driver/Src/stm32f1xx_hal_flash_ex.c ****             (FLASH_WaitForLastOperationBank2((uint32_t)FLASH_TIMEOUT_VALUE) == HAL_OK))
 203:./Drivers/STM32F1xx_HAL_Driver/Src/stm32f1xx_hal_flash_ex.c ****         {
 204:./Drivers/STM32F1xx_HAL_Driver/Src/stm32f1xx_hal_flash_ex.c ****           status = HAL_OK;
ARM GAS  /tmp/ccpVxzjx.s 			page 5


 205:./Drivers/STM32F1xx_HAL_Driver/Src/stm32f1xx_hal_flash_ex.c ****         }
 206:./Drivers/STM32F1xx_HAL_Driver/Src/stm32f1xx_hal_flash_ex.c ****         
 207:./Drivers/STM32F1xx_HAL_Driver/Src/stm32f1xx_hal_flash_ex.c ****         /* If the erase operation is completed, disable the MER Bit */
 208:./Drivers/STM32F1xx_HAL_Driver/Src/stm32f1xx_hal_flash_ex.c ****         CLEAR_BIT(FLASH->CR, FLASH_CR_MER);
 209:./Drivers/STM32F1xx_HAL_Driver/Src/stm32f1xx_hal_flash_ex.c ****         CLEAR_BIT(FLASH->CR2, FLASH_CR2_MER);
 210:./Drivers/STM32F1xx_HAL_Driver/Src/stm32f1xx_hal_flash_ex.c ****       }
 211:./Drivers/STM32F1xx_HAL_Driver/Src/stm32f1xx_hal_flash_ex.c ****     }
 212:./Drivers/STM32F1xx_HAL_Driver/Src/stm32f1xx_hal_flash_ex.c ****     else if (pEraseInit->Banks == FLASH_BANK_2)
 213:./Drivers/STM32F1xx_HAL_Driver/Src/stm32f1xx_hal_flash_ex.c ****     {
 214:./Drivers/STM32F1xx_HAL_Driver/Src/stm32f1xx_hal_flash_ex.c ****       /* Mass Erase requested for Bank2 */
 215:./Drivers/STM32F1xx_HAL_Driver/Src/stm32f1xx_hal_flash_ex.c ****       /* Wait for last operation to be completed */
 216:./Drivers/STM32F1xx_HAL_Driver/Src/stm32f1xx_hal_flash_ex.c ****       if (FLASH_WaitForLastOperationBank2((uint32_t)FLASH_TIMEOUT_VALUE) == HAL_OK)
 217:./Drivers/STM32F1xx_HAL_Driver/Src/stm32f1xx_hal_flash_ex.c ****       {
 218:./Drivers/STM32F1xx_HAL_Driver/Src/stm32f1xx_hal_flash_ex.c ****         /*Mass erase to be done*/
 219:./Drivers/STM32F1xx_HAL_Driver/Src/stm32f1xx_hal_flash_ex.c ****         FLASH_MassErase(FLASH_BANK_2);
 220:./Drivers/STM32F1xx_HAL_Driver/Src/stm32f1xx_hal_flash_ex.c ****         
 221:./Drivers/STM32F1xx_HAL_Driver/Src/stm32f1xx_hal_flash_ex.c ****         /* Wait for last operation to be completed */
 222:./Drivers/STM32F1xx_HAL_Driver/Src/stm32f1xx_hal_flash_ex.c ****         status = FLASH_WaitForLastOperationBank2((uint32_t)FLASH_TIMEOUT_VALUE);
 223:./Drivers/STM32F1xx_HAL_Driver/Src/stm32f1xx_hal_flash_ex.c ****         
 224:./Drivers/STM32F1xx_HAL_Driver/Src/stm32f1xx_hal_flash_ex.c ****         /* If the erase operation is completed, disable the MER Bit */
 225:./Drivers/STM32F1xx_HAL_Driver/Src/stm32f1xx_hal_flash_ex.c ****         CLEAR_BIT(FLASH->CR2, FLASH_CR2_MER);
 226:./Drivers/STM32F1xx_HAL_Driver/Src/stm32f1xx_hal_flash_ex.c ****       }
 227:./Drivers/STM32F1xx_HAL_Driver/Src/stm32f1xx_hal_flash_ex.c ****     }
 228:./Drivers/STM32F1xx_HAL_Driver/Src/stm32f1xx_hal_flash_ex.c ****     else 
 229:./Drivers/STM32F1xx_HAL_Driver/Src/stm32f1xx_hal_flash_ex.c **** #endif /* FLASH_BANK2_END */
 230:./Drivers/STM32F1xx_HAL_Driver/Src/stm32f1xx_hal_flash_ex.c ****     {
 231:./Drivers/STM32F1xx_HAL_Driver/Src/stm32f1xx_hal_flash_ex.c ****       /* Mass Erase requested for Bank1 */
 232:./Drivers/STM32F1xx_HAL_Driver/Src/stm32f1xx_hal_flash_ex.c ****       /* Wait for last operation to be completed */
 233:./Drivers/STM32F1xx_HAL_Driver/Src/stm32f1xx_hal_flash_ex.c ****       if (FLASH_WaitForLastOperation((uint32_t)FLASH_TIMEOUT_VALUE) == HAL_OK)
 234:./Drivers/STM32F1xx_HAL_Driver/Src/stm32f1xx_hal_flash_ex.c ****       {
 235:./Drivers/STM32F1xx_HAL_Driver/Src/stm32f1xx_hal_flash_ex.c ****         /*Mass erase to be done*/
 236:./Drivers/STM32F1xx_HAL_Driver/Src/stm32f1xx_hal_flash_ex.c ****         FLASH_MassErase(FLASH_BANK_1);
 237:./Drivers/STM32F1xx_HAL_Driver/Src/stm32f1xx_hal_flash_ex.c ****         
 238:./Drivers/STM32F1xx_HAL_Driver/Src/stm32f1xx_hal_flash_ex.c ****         /* Wait for last operation to be completed */
 239:./Drivers/STM32F1xx_HAL_Driver/Src/stm32f1xx_hal_flash_ex.c ****         status = FLASH_WaitForLastOperation((uint32_t)FLASH_TIMEOUT_VALUE);
 240:./Drivers/STM32F1xx_HAL_Driver/Src/stm32f1xx_hal_flash_ex.c ****         
 241:./Drivers/STM32F1xx_HAL_Driver/Src/stm32f1xx_hal_flash_ex.c ****         /* If the erase operation is completed, disable the MER Bit */
 242:./Drivers/STM32F1xx_HAL_Driver/Src/stm32f1xx_hal_flash_ex.c ****         CLEAR_BIT(FLASH->CR, FLASH_CR_MER);
 243:./Drivers/STM32F1xx_HAL_Driver/Src/stm32f1xx_hal_flash_ex.c ****       }
 244:./Drivers/STM32F1xx_HAL_Driver/Src/stm32f1xx_hal_flash_ex.c ****     }
 245:./Drivers/STM32F1xx_HAL_Driver/Src/stm32f1xx_hal_flash_ex.c ****   }
 246:./Drivers/STM32F1xx_HAL_Driver/Src/stm32f1xx_hal_flash_ex.c ****   else
 247:./Drivers/STM32F1xx_HAL_Driver/Src/stm32f1xx_hal_flash_ex.c ****   {
 248:./Drivers/STM32F1xx_HAL_Driver/Src/stm32f1xx_hal_flash_ex.c ****     /* Page Erase is requested */
 249:./Drivers/STM32F1xx_HAL_Driver/Src/stm32f1xx_hal_flash_ex.c ****     /* Check the parameters */
 250:./Drivers/STM32F1xx_HAL_Driver/Src/stm32f1xx_hal_flash_ex.c ****     assert_param(IS_FLASH_PROGRAM_ADDRESS(pEraseInit->PageAddress));
 251:./Drivers/STM32F1xx_HAL_Driver/Src/stm32f1xx_hal_flash_ex.c ****     assert_param(IS_FLASH_NB_PAGES(pEraseInit->PageAddress, pEraseInit->NbPages));
 252:./Drivers/STM32F1xx_HAL_Driver/Src/stm32f1xx_hal_flash_ex.c ****     
 253:./Drivers/STM32F1xx_HAL_Driver/Src/stm32f1xx_hal_flash_ex.c **** #if defined(FLASH_BANK2_END)
 254:./Drivers/STM32F1xx_HAL_Driver/Src/stm32f1xx_hal_flash_ex.c ****     /* Page Erase requested on address located on bank2 */
 255:./Drivers/STM32F1xx_HAL_Driver/Src/stm32f1xx_hal_flash_ex.c ****     if(pEraseInit->PageAddress > FLASH_BANK1_END)
 256:./Drivers/STM32F1xx_HAL_Driver/Src/stm32f1xx_hal_flash_ex.c ****     {   
 257:./Drivers/STM32F1xx_HAL_Driver/Src/stm32f1xx_hal_flash_ex.c ****       /* Wait for last operation to be completed */
 258:./Drivers/STM32F1xx_HAL_Driver/Src/stm32f1xx_hal_flash_ex.c ****       if (FLASH_WaitForLastOperationBank2((uint32_t)FLASH_TIMEOUT_VALUE) == HAL_OK)
 259:./Drivers/STM32F1xx_HAL_Driver/Src/stm32f1xx_hal_flash_ex.c ****       {
 260:./Drivers/STM32F1xx_HAL_Driver/Src/stm32f1xx_hal_flash_ex.c ****         /*Initialization of PageError variable*/
 261:./Drivers/STM32F1xx_HAL_Driver/Src/stm32f1xx_hal_flash_ex.c ****         *PageError = 0xFFFFFFFF;
ARM GAS  /tmp/ccpVxzjx.s 			page 6


 262:./Drivers/STM32F1xx_HAL_Driver/Src/stm32f1xx_hal_flash_ex.c ****         
 263:./Drivers/STM32F1xx_HAL_Driver/Src/stm32f1xx_hal_flash_ex.c ****         /* Erase by page by page to be done*/
 264:./Drivers/STM32F1xx_HAL_Driver/Src/stm32f1xx_hal_flash_ex.c ****         for(address = pEraseInit->PageAddress;
 265:./Drivers/STM32F1xx_HAL_Driver/Src/stm32f1xx_hal_flash_ex.c ****             address < (pEraseInit->PageAddress + (pEraseInit->NbPages)*FLASH_PAGE_SIZE);
 266:./Drivers/STM32F1xx_HAL_Driver/Src/stm32f1xx_hal_flash_ex.c ****             address += FLASH_PAGE_SIZE)
 267:./Drivers/STM32F1xx_HAL_Driver/Src/stm32f1xx_hal_flash_ex.c ****         {
 268:./Drivers/STM32F1xx_HAL_Driver/Src/stm32f1xx_hal_flash_ex.c ****           FLASH_PageErase(address);
 269:./Drivers/STM32F1xx_HAL_Driver/Src/stm32f1xx_hal_flash_ex.c ****           
 270:./Drivers/STM32F1xx_HAL_Driver/Src/stm32f1xx_hal_flash_ex.c ****           /* Wait for last operation to be completed */
 271:./Drivers/STM32F1xx_HAL_Driver/Src/stm32f1xx_hal_flash_ex.c ****           status = FLASH_WaitForLastOperationBank2((uint32_t)FLASH_TIMEOUT_VALUE);
 272:./Drivers/STM32F1xx_HAL_Driver/Src/stm32f1xx_hal_flash_ex.c ****           
 273:./Drivers/STM32F1xx_HAL_Driver/Src/stm32f1xx_hal_flash_ex.c ****           /* If the erase operation is completed, disable the PER Bit */
 274:./Drivers/STM32F1xx_HAL_Driver/Src/stm32f1xx_hal_flash_ex.c ****           CLEAR_BIT(FLASH->CR2, FLASH_CR2_PER);
 275:./Drivers/STM32F1xx_HAL_Driver/Src/stm32f1xx_hal_flash_ex.c ****           
 276:./Drivers/STM32F1xx_HAL_Driver/Src/stm32f1xx_hal_flash_ex.c ****           if (status != HAL_OK)
 277:./Drivers/STM32F1xx_HAL_Driver/Src/stm32f1xx_hal_flash_ex.c ****           {
 278:./Drivers/STM32F1xx_HAL_Driver/Src/stm32f1xx_hal_flash_ex.c ****             /* In case of error, stop erase procedure and return the faulty address */
 279:./Drivers/STM32F1xx_HAL_Driver/Src/stm32f1xx_hal_flash_ex.c ****             *PageError = address;
 280:./Drivers/STM32F1xx_HAL_Driver/Src/stm32f1xx_hal_flash_ex.c ****             break;
 281:./Drivers/STM32F1xx_HAL_Driver/Src/stm32f1xx_hal_flash_ex.c ****           }
 282:./Drivers/STM32F1xx_HAL_Driver/Src/stm32f1xx_hal_flash_ex.c ****         }
 283:./Drivers/STM32F1xx_HAL_Driver/Src/stm32f1xx_hal_flash_ex.c ****       }
 284:./Drivers/STM32F1xx_HAL_Driver/Src/stm32f1xx_hal_flash_ex.c ****     }
 285:./Drivers/STM32F1xx_HAL_Driver/Src/stm32f1xx_hal_flash_ex.c ****     else
 286:./Drivers/STM32F1xx_HAL_Driver/Src/stm32f1xx_hal_flash_ex.c **** #endif /* FLASH_BANK2_END */
 287:./Drivers/STM32F1xx_HAL_Driver/Src/stm32f1xx_hal_flash_ex.c ****    {
 288:./Drivers/STM32F1xx_HAL_Driver/Src/stm32f1xx_hal_flash_ex.c ****       /* Page Erase requested on address located on bank1 */
 289:./Drivers/STM32F1xx_HAL_Driver/Src/stm32f1xx_hal_flash_ex.c ****       /* Wait for last operation to be completed */
 290:./Drivers/STM32F1xx_HAL_Driver/Src/stm32f1xx_hal_flash_ex.c ****       if (FLASH_WaitForLastOperation((uint32_t)FLASH_TIMEOUT_VALUE) == HAL_OK)
 291:./Drivers/STM32F1xx_HAL_Driver/Src/stm32f1xx_hal_flash_ex.c ****       {
 292:./Drivers/STM32F1xx_HAL_Driver/Src/stm32f1xx_hal_flash_ex.c ****         /*Initialization of PageError variable*/
 293:./Drivers/STM32F1xx_HAL_Driver/Src/stm32f1xx_hal_flash_ex.c ****         *PageError = 0xFFFFFFFF;
 294:./Drivers/STM32F1xx_HAL_Driver/Src/stm32f1xx_hal_flash_ex.c ****         
 295:./Drivers/STM32F1xx_HAL_Driver/Src/stm32f1xx_hal_flash_ex.c ****         /* Erase page by page to be done*/
 296:./Drivers/STM32F1xx_HAL_Driver/Src/stm32f1xx_hal_flash_ex.c ****         for(address = pEraseInit->PageAddress;
 297:./Drivers/STM32F1xx_HAL_Driver/Src/stm32f1xx_hal_flash_ex.c ****             address < ((pEraseInit->NbPages * FLASH_PAGE_SIZE) + pEraseInit->PageAddress);
 298:./Drivers/STM32F1xx_HAL_Driver/Src/stm32f1xx_hal_flash_ex.c ****             address += FLASH_PAGE_SIZE)
 299:./Drivers/STM32F1xx_HAL_Driver/Src/stm32f1xx_hal_flash_ex.c ****         {
 300:./Drivers/STM32F1xx_HAL_Driver/Src/stm32f1xx_hal_flash_ex.c ****           FLASH_PageErase(address);
 301:./Drivers/STM32F1xx_HAL_Driver/Src/stm32f1xx_hal_flash_ex.c ****           
 302:./Drivers/STM32F1xx_HAL_Driver/Src/stm32f1xx_hal_flash_ex.c ****           /* Wait for last operation to be completed */
 303:./Drivers/STM32F1xx_HAL_Driver/Src/stm32f1xx_hal_flash_ex.c ****           status = FLASH_WaitForLastOperation((uint32_t)FLASH_TIMEOUT_VALUE);
 304:./Drivers/STM32F1xx_HAL_Driver/Src/stm32f1xx_hal_flash_ex.c ****           
 305:./Drivers/STM32F1xx_HAL_Driver/Src/stm32f1xx_hal_flash_ex.c ****           /* If the erase operation is completed, disable the PER Bit */
 306:./Drivers/STM32F1xx_HAL_Driver/Src/stm32f1xx_hal_flash_ex.c ****           CLEAR_BIT(FLASH->CR, FLASH_CR_PER);
 307:./Drivers/STM32F1xx_HAL_Driver/Src/stm32f1xx_hal_flash_ex.c ****           
 308:./Drivers/STM32F1xx_HAL_Driver/Src/stm32f1xx_hal_flash_ex.c ****           if (status != HAL_OK)
 309:./Drivers/STM32F1xx_HAL_Driver/Src/stm32f1xx_hal_flash_ex.c ****           {
 310:./Drivers/STM32F1xx_HAL_Driver/Src/stm32f1xx_hal_flash_ex.c ****             /* In case of error, stop erase procedure and return the faulty address */
 311:./Drivers/STM32F1xx_HAL_Driver/Src/stm32f1xx_hal_flash_ex.c ****             *PageError = address;
 312:./Drivers/STM32F1xx_HAL_Driver/Src/stm32f1xx_hal_flash_ex.c ****             break;
 313:./Drivers/STM32F1xx_HAL_Driver/Src/stm32f1xx_hal_flash_ex.c ****           }
 314:./Drivers/STM32F1xx_HAL_Driver/Src/stm32f1xx_hal_flash_ex.c ****         }
 315:./Drivers/STM32F1xx_HAL_Driver/Src/stm32f1xx_hal_flash_ex.c ****       }
 316:./Drivers/STM32F1xx_HAL_Driver/Src/stm32f1xx_hal_flash_ex.c ****     }
 317:./Drivers/STM32F1xx_HAL_Driver/Src/stm32f1xx_hal_flash_ex.c ****   }
 318:./Drivers/STM32F1xx_HAL_Driver/Src/stm32f1xx_hal_flash_ex.c **** 
ARM GAS  /tmp/ccpVxzjx.s 			page 7


 319:./Drivers/STM32F1xx_HAL_Driver/Src/stm32f1xx_hal_flash_ex.c ****   /* Process Unlocked */
 320:./Drivers/STM32F1xx_HAL_Driver/Src/stm32f1xx_hal_flash_ex.c ****   __HAL_UNLOCK(&pFlash);
 321:./Drivers/STM32F1xx_HAL_Driver/Src/stm32f1xx_hal_flash_ex.c **** 
 322:./Drivers/STM32F1xx_HAL_Driver/Src/stm32f1xx_hal_flash_ex.c ****   return status;
 323:./Drivers/STM32F1xx_HAL_Driver/Src/stm32f1xx_hal_flash_ex.c **** }
 324:./Drivers/STM32F1xx_HAL_Driver/Src/stm32f1xx_hal_flash_ex.c **** 
 325:./Drivers/STM32F1xx_HAL_Driver/Src/stm32f1xx_hal_flash_ex.c **** /**
 326:./Drivers/STM32F1xx_HAL_Driver/Src/stm32f1xx_hal_flash_ex.c ****   * @brief  Perform a mass erase or erase the specified FLASH memory pages with interrupt enabled
 327:./Drivers/STM32F1xx_HAL_Driver/Src/stm32f1xx_hal_flash_ex.c ****   * @note   To correctly run this function, the @ref HAL_FLASH_Unlock() function
 328:./Drivers/STM32F1xx_HAL_Driver/Src/stm32f1xx_hal_flash_ex.c ****   *         must be called before.
 329:./Drivers/STM32F1xx_HAL_Driver/Src/stm32f1xx_hal_flash_ex.c ****   *         Call the @ref HAL_FLASH_Lock() to disable the flash memory access 
 330:./Drivers/STM32F1xx_HAL_Driver/Src/stm32f1xx_hal_flash_ex.c ****   *         (recommended to protect the FLASH memory against possible unwanted operation)
 331:./Drivers/STM32F1xx_HAL_Driver/Src/stm32f1xx_hal_flash_ex.c ****   * @param  pEraseInit pointer to an FLASH_EraseInitTypeDef structure that
 332:./Drivers/STM32F1xx_HAL_Driver/Src/stm32f1xx_hal_flash_ex.c ****   *         contains the configuration information for the erasing.
 333:./Drivers/STM32F1xx_HAL_Driver/Src/stm32f1xx_hal_flash_ex.c ****   *
 334:./Drivers/STM32F1xx_HAL_Driver/Src/stm32f1xx_hal_flash_ex.c ****   * @retval HAL_StatusTypeDef HAL Status
 335:./Drivers/STM32F1xx_HAL_Driver/Src/stm32f1xx_hal_flash_ex.c ****   */
 336:./Drivers/STM32F1xx_HAL_Driver/Src/stm32f1xx_hal_flash_ex.c **** HAL_StatusTypeDef HAL_FLASHEx_Erase_IT(FLASH_EraseInitTypeDef *pEraseInit)
 337:./Drivers/STM32F1xx_HAL_Driver/Src/stm32f1xx_hal_flash_ex.c **** {
 338:./Drivers/STM32F1xx_HAL_Driver/Src/stm32f1xx_hal_flash_ex.c ****   HAL_StatusTypeDef status = HAL_OK;
 339:./Drivers/STM32F1xx_HAL_Driver/Src/stm32f1xx_hal_flash_ex.c **** 
 340:./Drivers/STM32F1xx_HAL_Driver/Src/stm32f1xx_hal_flash_ex.c ****   /* Process Locked */
 341:./Drivers/STM32F1xx_HAL_Driver/Src/stm32f1xx_hal_flash_ex.c ****   __HAL_LOCK(&pFlash);
 342:./Drivers/STM32F1xx_HAL_Driver/Src/stm32f1xx_hal_flash_ex.c **** 
 343:./Drivers/STM32F1xx_HAL_Driver/Src/stm32f1xx_hal_flash_ex.c ****   /* If procedure already ongoing, reject the next one */
 344:./Drivers/STM32F1xx_HAL_Driver/Src/stm32f1xx_hal_flash_ex.c ****   if (pFlash.ProcedureOnGoing != FLASH_PROC_NONE)
 345:./Drivers/STM32F1xx_HAL_Driver/Src/stm32f1xx_hal_flash_ex.c ****   {
 346:./Drivers/STM32F1xx_HAL_Driver/Src/stm32f1xx_hal_flash_ex.c ****     return HAL_ERROR;
 347:./Drivers/STM32F1xx_HAL_Driver/Src/stm32f1xx_hal_flash_ex.c ****   }
 348:./Drivers/STM32F1xx_HAL_Driver/Src/stm32f1xx_hal_flash_ex.c ****   
 349:./Drivers/STM32F1xx_HAL_Driver/Src/stm32f1xx_hal_flash_ex.c ****   /* Check the parameters */
 350:./Drivers/STM32F1xx_HAL_Driver/Src/stm32f1xx_hal_flash_ex.c ****   assert_param(IS_FLASH_TYPEERASE(pEraseInit->TypeErase));
 351:./Drivers/STM32F1xx_HAL_Driver/Src/stm32f1xx_hal_flash_ex.c **** 
 352:./Drivers/STM32F1xx_HAL_Driver/Src/stm32f1xx_hal_flash_ex.c ****   /* Enable End of FLASH Operation and Error source interrupts */
 353:./Drivers/STM32F1xx_HAL_Driver/Src/stm32f1xx_hal_flash_ex.c ****   __HAL_FLASH_ENABLE_IT(FLASH_IT_EOP | FLASH_IT_ERR);
 354:./Drivers/STM32F1xx_HAL_Driver/Src/stm32f1xx_hal_flash_ex.c **** 
 355:./Drivers/STM32F1xx_HAL_Driver/Src/stm32f1xx_hal_flash_ex.c **** #if defined(FLASH_BANK2_END)
 356:./Drivers/STM32F1xx_HAL_Driver/Src/stm32f1xx_hal_flash_ex.c ****   /* Enable End of FLASH Operation and Error source interrupts */
 357:./Drivers/STM32F1xx_HAL_Driver/Src/stm32f1xx_hal_flash_ex.c ****   __HAL_FLASH_ENABLE_IT(FLASH_IT_EOP_BANK2 | FLASH_IT_ERR_BANK2);
 358:./Drivers/STM32F1xx_HAL_Driver/Src/stm32f1xx_hal_flash_ex.c ****   
 359:./Drivers/STM32F1xx_HAL_Driver/Src/stm32f1xx_hal_flash_ex.c **** #endif
 360:./Drivers/STM32F1xx_HAL_Driver/Src/stm32f1xx_hal_flash_ex.c ****   if (pEraseInit->TypeErase == FLASH_TYPEERASE_MASSERASE)
 361:./Drivers/STM32F1xx_HAL_Driver/Src/stm32f1xx_hal_flash_ex.c ****   {
 362:./Drivers/STM32F1xx_HAL_Driver/Src/stm32f1xx_hal_flash_ex.c ****     /*Mass erase to be done*/
 363:./Drivers/STM32F1xx_HAL_Driver/Src/stm32f1xx_hal_flash_ex.c ****     pFlash.ProcedureOnGoing = FLASH_PROC_MASSERASE;
 364:./Drivers/STM32F1xx_HAL_Driver/Src/stm32f1xx_hal_flash_ex.c ****         FLASH_MassErase(pEraseInit->Banks);
 365:./Drivers/STM32F1xx_HAL_Driver/Src/stm32f1xx_hal_flash_ex.c ****   }
 366:./Drivers/STM32F1xx_HAL_Driver/Src/stm32f1xx_hal_flash_ex.c ****   else
 367:./Drivers/STM32F1xx_HAL_Driver/Src/stm32f1xx_hal_flash_ex.c ****   {
 368:./Drivers/STM32F1xx_HAL_Driver/Src/stm32f1xx_hal_flash_ex.c ****     /* Erase by page to be done*/
 369:./Drivers/STM32F1xx_HAL_Driver/Src/stm32f1xx_hal_flash_ex.c **** 
 370:./Drivers/STM32F1xx_HAL_Driver/Src/stm32f1xx_hal_flash_ex.c ****     /* Check the parameters */
 371:./Drivers/STM32F1xx_HAL_Driver/Src/stm32f1xx_hal_flash_ex.c ****     assert_param(IS_FLASH_PROGRAM_ADDRESS(pEraseInit->PageAddress));
 372:./Drivers/STM32F1xx_HAL_Driver/Src/stm32f1xx_hal_flash_ex.c ****     assert_param(IS_FLASH_NB_PAGES(pEraseInit->PageAddress, pEraseInit->NbPages));
 373:./Drivers/STM32F1xx_HAL_Driver/Src/stm32f1xx_hal_flash_ex.c **** 
 374:./Drivers/STM32F1xx_HAL_Driver/Src/stm32f1xx_hal_flash_ex.c ****     pFlash.ProcedureOnGoing = FLASH_PROC_PAGEERASE;
 375:./Drivers/STM32F1xx_HAL_Driver/Src/stm32f1xx_hal_flash_ex.c ****     pFlash.DataRemaining = pEraseInit->NbPages;
ARM GAS  /tmp/ccpVxzjx.s 			page 8


 376:./Drivers/STM32F1xx_HAL_Driver/Src/stm32f1xx_hal_flash_ex.c ****     pFlash.Address = pEraseInit->PageAddress;
 377:./Drivers/STM32F1xx_HAL_Driver/Src/stm32f1xx_hal_flash_ex.c **** 
 378:./Drivers/STM32F1xx_HAL_Driver/Src/stm32f1xx_hal_flash_ex.c ****     /*Erase 1st page and wait for IT*/
 379:./Drivers/STM32F1xx_HAL_Driver/Src/stm32f1xx_hal_flash_ex.c ****     FLASH_PageErase(pEraseInit->PageAddress);
 380:./Drivers/STM32F1xx_HAL_Driver/Src/stm32f1xx_hal_flash_ex.c ****   }
 381:./Drivers/STM32F1xx_HAL_Driver/Src/stm32f1xx_hal_flash_ex.c **** 
 382:./Drivers/STM32F1xx_HAL_Driver/Src/stm32f1xx_hal_flash_ex.c ****   return status;
 383:./Drivers/STM32F1xx_HAL_Driver/Src/stm32f1xx_hal_flash_ex.c **** }
 384:./Drivers/STM32F1xx_HAL_Driver/Src/stm32f1xx_hal_flash_ex.c **** 
 385:./Drivers/STM32F1xx_HAL_Driver/Src/stm32f1xx_hal_flash_ex.c **** /**
 386:./Drivers/STM32F1xx_HAL_Driver/Src/stm32f1xx_hal_flash_ex.c ****   * @}
 387:./Drivers/STM32F1xx_HAL_Driver/Src/stm32f1xx_hal_flash_ex.c ****   */
 388:./Drivers/STM32F1xx_HAL_Driver/Src/stm32f1xx_hal_flash_ex.c **** 
 389:./Drivers/STM32F1xx_HAL_Driver/Src/stm32f1xx_hal_flash_ex.c **** /** @defgroup FLASHEx_Exported_Functions_Group2 Option Bytes Programming functions
 390:./Drivers/STM32F1xx_HAL_Driver/Src/stm32f1xx_hal_flash_ex.c ****  *  @brief   Option Bytes Programming functions
 391:./Drivers/STM32F1xx_HAL_Driver/Src/stm32f1xx_hal_flash_ex.c ****   *
 392:./Drivers/STM32F1xx_HAL_Driver/Src/stm32f1xx_hal_flash_ex.c **** @verbatim   
 393:./Drivers/STM32F1xx_HAL_Driver/Src/stm32f1xx_hal_flash_ex.c ****   ==============================================================================
 394:./Drivers/STM32F1xx_HAL_Driver/Src/stm32f1xx_hal_flash_ex.c ****                 ##### Option Bytes Programming functions ##### 
 395:./Drivers/STM32F1xx_HAL_Driver/Src/stm32f1xx_hal_flash_ex.c ****   ==============================================================================  
 396:./Drivers/STM32F1xx_HAL_Driver/Src/stm32f1xx_hal_flash_ex.c ****     [..]
 397:./Drivers/STM32F1xx_HAL_Driver/Src/stm32f1xx_hal_flash_ex.c ****     This subsection provides a set of functions allowing to control the FLASH 
 398:./Drivers/STM32F1xx_HAL_Driver/Src/stm32f1xx_hal_flash_ex.c ****     option bytes operations.
 399:./Drivers/STM32F1xx_HAL_Driver/Src/stm32f1xx_hal_flash_ex.c **** 
 400:./Drivers/STM32F1xx_HAL_Driver/Src/stm32f1xx_hal_flash_ex.c **** @endverbatim
 401:./Drivers/STM32F1xx_HAL_Driver/Src/stm32f1xx_hal_flash_ex.c ****   * @{
 402:./Drivers/STM32F1xx_HAL_Driver/Src/stm32f1xx_hal_flash_ex.c ****   */
 403:./Drivers/STM32F1xx_HAL_Driver/Src/stm32f1xx_hal_flash_ex.c **** 
 404:./Drivers/STM32F1xx_HAL_Driver/Src/stm32f1xx_hal_flash_ex.c **** /**
 405:./Drivers/STM32F1xx_HAL_Driver/Src/stm32f1xx_hal_flash_ex.c ****   * @brief  Erases the FLASH option bytes.
 406:./Drivers/STM32F1xx_HAL_Driver/Src/stm32f1xx_hal_flash_ex.c ****   * @note   This functions erases all option bytes except the Read protection (RDP).
 407:./Drivers/STM32F1xx_HAL_Driver/Src/stm32f1xx_hal_flash_ex.c ****   *         The function @ref HAL_FLASH_Unlock() should be called before to unlock the FLASH interf
 408:./Drivers/STM32F1xx_HAL_Driver/Src/stm32f1xx_hal_flash_ex.c ****   *         The function @ref HAL_FLASH_OB_Unlock() should be called before to unlock the options b
 409:./Drivers/STM32F1xx_HAL_Driver/Src/stm32f1xx_hal_flash_ex.c ****   *         The function @ref HAL_FLASH_OB_Launch() should be called after to force the reload of t
 410:./Drivers/STM32F1xx_HAL_Driver/Src/stm32f1xx_hal_flash_ex.c ****   *         (system reset will occur)
 411:./Drivers/STM32F1xx_HAL_Driver/Src/stm32f1xx_hal_flash_ex.c ****   * @retval HAL status
 412:./Drivers/STM32F1xx_HAL_Driver/Src/stm32f1xx_hal_flash_ex.c ****   */
 413:./Drivers/STM32F1xx_HAL_Driver/Src/stm32f1xx_hal_flash_ex.c **** 
 414:./Drivers/STM32F1xx_HAL_Driver/Src/stm32f1xx_hal_flash_ex.c **** HAL_StatusTypeDef HAL_FLASHEx_OBErase(void)
 415:./Drivers/STM32F1xx_HAL_Driver/Src/stm32f1xx_hal_flash_ex.c **** {
 416:./Drivers/STM32F1xx_HAL_Driver/Src/stm32f1xx_hal_flash_ex.c ****   uint8_t rdptmp = OB_RDP_LEVEL_0;
 417:./Drivers/STM32F1xx_HAL_Driver/Src/stm32f1xx_hal_flash_ex.c ****   HAL_StatusTypeDef status = HAL_ERROR;
 418:./Drivers/STM32F1xx_HAL_Driver/Src/stm32f1xx_hal_flash_ex.c **** 
 419:./Drivers/STM32F1xx_HAL_Driver/Src/stm32f1xx_hal_flash_ex.c ****   /* Get the actual read protection Option Byte value */
 420:./Drivers/STM32F1xx_HAL_Driver/Src/stm32f1xx_hal_flash_ex.c ****   rdptmp = FLASH_OB_GetRDP();
 421:./Drivers/STM32F1xx_HAL_Driver/Src/stm32f1xx_hal_flash_ex.c **** 
 422:./Drivers/STM32F1xx_HAL_Driver/Src/stm32f1xx_hal_flash_ex.c ****   /* Wait for last operation to be completed */
 423:./Drivers/STM32F1xx_HAL_Driver/Src/stm32f1xx_hal_flash_ex.c ****   status = FLASH_WaitForLastOperation((uint32_t)FLASH_TIMEOUT_VALUE);
 424:./Drivers/STM32F1xx_HAL_Driver/Src/stm32f1xx_hal_flash_ex.c **** 
 425:./Drivers/STM32F1xx_HAL_Driver/Src/stm32f1xx_hal_flash_ex.c ****   if(status == HAL_OK)
 426:./Drivers/STM32F1xx_HAL_Driver/Src/stm32f1xx_hal_flash_ex.c ****   {
 427:./Drivers/STM32F1xx_HAL_Driver/Src/stm32f1xx_hal_flash_ex.c ****     /* Clean the error context */
 428:./Drivers/STM32F1xx_HAL_Driver/Src/stm32f1xx_hal_flash_ex.c ****     pFlash.ErrorCode = HAL_FLASH_ERROR_NONE;
 429:./Drivers/STM32F1xx_HAL_Driver/Src/stm32f1xx_hal_flash_ex.c **** 
 430:./Drivers/STM32F1xx_HAL_Driver/Src/stm32f1xx_hal_flash_ex.c ****     /* If the previous operation is completed, proceed to erase the option bytes */
 431:./Drivers/STM32F1xx_HAL_Driver/Src/stm32f1xx_hal_flash_ex.c ****     SET_BIT(FLASH->CR, FLASH_CR_OPTER);
 432:./Drivers/STM32F1xx_HAL_Driver/Src/stm32f1xx_hal_flash_ex.c ****     SET_BIT(FLASH->CR, FLASH_CR_STRT);
ARM GAS  /tmp/ccpVxzjx.s 			page 9


 433:./Drivers/STM32F1xx_HAL_Driver/Src/stm32f1xx_hal_flash_ex.c **** 
 434:./Drivers/STM32F1xx_HAL_Driver/Src/stm32f1xx_hal_flash_ex.c ****     /* Wait for last operation to be completed */
 435:./Drivers/STM32F1xx_HAL_Driver/Src/stm32f1xx_hal_flash_ex.c ****     status = FLASH_WaitForLastOperation((uint32_t)FLASH_TIMEOUT_VALUE);
 436:./Drivers/STM32F1xx_HAL_Driver/Src/stm32f1xx_hal_flash_ex.c **** 
 437:./Drivers/STM32F1xx_HAL_Driver/Src/stm32f1xx_hal_flash_ex.c ****     /* If the erase operation is completed, disable the OPTER Bit */
 438:./Drivers/STM32F1xx_HAL_Driver/Src/stm32f1xx_hal_flash_ex.c ****     CLEAR_BIT(FLASH->CR, FLASH_CR_OPTER);
 439:./Drivers/STM32F1xx_HAL_Driver/Src/stm32f1xx_hal_flash_ex.c **** 
 440:./Drivers/STM32F1xx_HAL_Driver/Src/stm32f1xx_hal_flash_ex.c ****     if(status == HAL_OK)
 441:./Drivers/STM32F1xx_HAL_Driver/Src/stm32f1xx_hal_flash_ex.c ****     {
 442:./Drivers/STM32F1xx_HAL_Driver/Src/stm32f1xx_hal_flash_ex.c ****       /* Restore the last read protection Option Byte value */
 443:./Drivers/STM32F1xx_HAL_Driver/Src/stm32f1xx_hal_flash_ex.c ****       status = FLASH_OB_RDP_LevelConfig(rdptmp);
 444:./Drivers/STM32F1xx_HAL_Driver/Src/stm32f1xx_hal_flash_ex.c ****     }
 445:./Drivers/STM32F1xx_HAL_Driver/Src/stm32f1xx_hal_flash_ex.c ****   }
 446:./Drivers/STM32F1xx_HAL_Driver/Src/stm32f1xx_hal_flash_ex.c **** 
 447:./Drivers/STM32F1xx_HAL_Driver/Src/stm32f1xx_hal_flash_ex.c ****   /* Return the erase status */
 448:./Drivers/STM32F1xx_HAL_Driver/Src/stm32f1xx_hal_flash_ex.c ****   return status;
 449:./Drivers/STM32F1xx_HAL_Driver/Src/stm32f1xx_hal_flash_ex.c **** }
 450:./Drivers/STM32F1xx_HAL_Driver/Src/stm32f1xx_hal_flash_ex.c **** 
 451:./Drivers/STM32F1xx_HAL_Driver/Src/stm32f1xx_hal_flash_ex.c **** /**
 452:./Drivers/STM32F1xx_HAL_Driver/Src/stm32f1xx_hal_flash_ex.c ****   * @brief  Program option bytes
 453:./Drivers/STM32F1xx_HAL_Driver/Src/stm32f1xx_hal_flash_ex.c ****   * @note   The function @ref HAL_FLASH_Unlock() should be called before to unlock the FLASH interf
 454:./Drivers/STM32F1xx_HAL_Driver/Src/stm32f1xx_hal_flash_ex.c ****   *         The function @ref HAL_FLASH_OB_Unlock() should be called before to unlock the options b
 455:./Drivers/STM32F1xx_HAL_Driver/Src/stm32f1xx_hal_flash_ex.c ****   *         The function @ref HAL_FLASH_OB_Launch() should be called after to force the reload of t
 456:./Drivers/STM32F1xx_HAL_Driver/Src/stm32f1xx_hal_flash_ex.c ****   *         (system reset will occur)
 457:./Drivers/STM32F1xx_HAL_Driver/Src/stm32f1xx_hal_flash_ex.c ****   *
 458:./Drivers/STM32F1xx_HAL_Driver/Src/stm32f1xx_hal_flash_ex.c ****   * @param  pOBInit pointer to an FLASH_OBInitStruct structure that
 459:./Drivers/STM32F1xx_HAL_Driver/Src/stm32f1xx_hal_flash_ex.c ****   *         contains the configuration information for the programming.
 460:./Drivers/STM32F1xx_HAL_Driver/Src/stm32f1xx_hal_flash_ex.c ****   *
 461:./Drivers/STM32F1xx_HAL_Driver/Src/stm32f1xx_hal_flash_ex.c ****   * @retval HAL_StatusTypeDef HAL Status
 462:./Drivers/STM32F1xx_HAL_Driver/Src/stm32f1xx_hal_flash_ex.c ****   */
 463:./Drivers/STM32F1xx_HAL_Driver/Src/stm32f1xx_hal_flash_ex.c **** HAL_StatusTypeDef HAL_FLASHEx_OBProgram(FLASH_OBProgramInitTypeDef *pOBInit)
 464:./Drivers/STM32F1xx_HAL_Driver/Src/stm32f1xx_hal_flash_ex.c **** {
 465:./Drivers/STM32F1xx_HAL_Driver/Src/stm32f1xx_hal_flash_ex.c ****   HAL_StatusTypeDef status = HAL_ERROR;
 466:./Drivers/STM32F1xx_HAL_Driver/Src/stm32f1xx_hal_flash_ex.c **** 
 467:./Drivers/STM32F1xx_HAL_Driver/Src/stm32f1xx_hal_flash_ex.c ****   /* Process Locked */
 468:./Drivers/STM32F1xx_HAL_Driver/Src/stm32f1xx_hal_flash_ex.c ****   __HAL_LOCK(&pFlash);
 469:./Drivers/STM32F1xx_HAL_Driver/Src/stm32f1xx_hal_flash_ex.c **** 
 470:./Drivers/STM32F1xx_HAL_Driver/Src/stm32f1xx_hal_flash_ex.c ****   /* Check the parameters */
 471:./Drivers/STM32F1xx_HAL_Driver/Src/stm32f1xx_hal_flash_ex.c ****   assert_param(IS_OPTIONBYTE(pOBInit->OptionType));
 472:./Drivers/STM32F1xx_HAL_Driver/Src/stm32f1xx_hal_flash_ex.c **** 
 473:./Drivers/STM32F1xx_HAL_Driver/Src/stm32f1xx_hal_flash_ex.c ****   /* Write protection configuration */
 474:./Drivers/STM32F1xx_HAL_Driver/Src/stm32f1xx_hal_flash_ex.c ****   if((pOBInit->OptionType & OPTIONBYTE_WRP) == OPTIONBYTE_WRP)
 475:./Drivers/STM32F1xx_HAL_Driver/Src/stm32f1xx_hal_flash_ex.c ****   {
 476:./Drivers/STM32F1xx_HAL_Driver/Src/stm32f1xx_hal_flash_ex.c ****     assert_param(IS_WRPSTATE(pOBInit->WRPState));
 477:./Drivers/STM32F1xx_HAL_Driver/Src/stm32f1xx_hal_flash_ex.c ****     if (pOBInit->WRPState == OB_WRPSTATE_ENABLE)
 478:./Drivers/STM32F1xx_HAL_Driver/Src/stm32f1xx_hal_flash_ex.c ****     {
 479:./Drivers/STM32F1xx_HAL_Driver/Src/stm32f1xx_hal_flash_ex.c ****       /* Enable of Write protection on the selected page */
 480:./Drivers/STM32F1xx_HAL_Driver/Src/stm32f1xx_hal_flash_ex.c ****       status = FLASH_OB_EnableWRP(pOBInit->WRPPage);
 481:./Drivers/STM32F1xx_HAL_Driver/Src/stm32f1xx_hal_flash_ex.c ****     }
 482:./Drivers/STM32F1xx_HAL_Driver/Src/stm32f1xx_hal_flash_ex.c ****     else
 483:./Drivers/STM32F1xx_HAL_Driver/Src/stm32f1xx_hal_flash_ex.c ****     {
 484:./Drivers/STM32F1xx_HAL_Driver/Src/stm32f1xx_hal_flash_ex.c ****       /* Disable of Write protection on the selected page */
 485:./Drivers/STM32F1xx_HAL_Driver/Src/stm32f1xx_hal_flash_ex.c ****       status = FLASH_OB_DisableWRP(pOBInit->WRPPage);
 486:./Drivers/STM32F1xx_HAL_Driver/Src/stm32f1xx_hal_flash_ex.c ****     }
 487:./Drivers/STM32F1xx_HAL_Driver/Src/stm32f1xx_hal_flash_ex.c ****     if (status != HAL_OK)
 488:./Drivers/STM32F1xx_HAL_Driver/Src/stm32f1xx_hal_flash_ex.c ****     {
 489:./Drivers/STM32F1xx_HAL_Driver/Src/stm32f1xx_hal_flash_ex.c ****       /* Process Unlocked */
ARM GAS  /tmp/ccpVxzjx.s 			page 10


 490:./Drivers/STM32F1xx_HAL_Driver/Src/stm32f1xx_hal_flash_ex.c ****       __HAL_UNLOCK(&pFlash);
 491:./Drivers/STM32F1xx_HAL_Driver/Src/stm32f1xx_hal_flash_ex.c ****       return status;
 492:./Drivers/STM32F1xx_HAL_Driver/Src/stm32f1xx_hal_flash_ex.c ****     }
 493:./Drivers/STM32F1xx_HAL_Driver/Src/stm32f1xx_hal_flash_ex.c ****   }
 494:./Drivers/STM32F1xx_HAL_Driver/Src/stm32f1xx_hal_flash_ex.c **** 
 495:./Drivers/STM32F1xx_HAL_Driver/Src/stm32f1xx_hal_flash_ex.c ****   /* Read protection configuration */
 496:./Drivers/STM32F1xx_HAL_Driver/Src/stm32f1xx_hal_flash_ex.c ****   if((pOBInit->OptionType & OPTIONBYTE_RDP) == OPTIONBYTE_RDP)
 497:./Drivers/STM32F1xx_HAL_Driver/Src/stm32f1xx_hal_flash_ex.c ****   {
 498:./Drivers/STM32F1xx_HAL_Driver/Src/stm32f1xx_hal_flash_ex.c ****     status = FLASH_OB_RDP_LevelConfig(pOBInit->RDPLevel);
 499:./Drivers/STM32F1xx_HAL_Driver/Src/stm32f1xx_hal_flash_ex.c ****     if (status != HAL_OK)
 500:./Drivers/STM32F1xx_HAL_Driver/Src/stm32f1xx_hal_flash_ex.c ****     {
 501:./Drivers/STM32F1xx_HAL_Driver/Src/stm32f1xx_hal_flash_ex.c ****       /* Process Unlocked */
 502:./Drivers/STM32F1xx_HAL_Driver/Src/stm32f1xx_hal_flash_ex.c ****       __HAL_UNLOCK(&pFlash);
 503:./Drivers/STM32F1xx_HAL_Driver/Src/stm32f1xx_hal_flash_ex.c ****       return status;
 504:./Drivers/STM32F1xx_HAL_Driver/Src/stm32f1xx_hal_flash_ex.c ****     }
 505:./Drivers/STM32F1xx_HAL_Driver/Src/stm32f1xx_hal_flash_ex.c ****   }
 506:./Drivers/STM32F1xx_HAL_Driver/Src/stm32f1xx_hal_flash_ex.c **** 
 507:./Drivers/STM32F1xx_HAL_Driver/Src/stm32f1xx_hal_flash_ex.c ****   /* USER configuration */
 508:./Drivers/STM32F1xx_HAL_Driver/Src/stm32f1xx_hal_flash_ex.c ****   if((pOBInit->OptionType & OPTIONBYTE_USER) == OPTIONBYTE_USER)
 509:./Drivers/STM32F1xx_HAL_Driver/Src/stm32f1xx_hal_flash_ex.c ****   {
 510:./Drivers/STM32F1xx_HAL_Driver/Src/stm32f1xx_hal_flash_ex.c ****     status = FLASH_OB_UserConfig(pOBInit->USERConfig);
 511:./Drivers/STM32F1xx_HAL_Driver/Src/stm32f1xx_hal_flash_ex.c ****     if (status != HAL_OK)
 512:./Drivers/STM32F1xx_HAL_Driver/Src/stm32f1xx_hal_flash_ex.c ****     {
 513:./Drivers/STM32F1xx_HAL_Driver/Src/stm32f1xx_hal_flash_ex.c ****       /* Process Unlocked */
 514:./Drivers/STM32F1xx_HAL_Driver/Src/stm32f1xx_hal_flash_ex.c ****       __HAL_UNLOCK(&pFlash);
 515:./Drivers/STM32F1xx_HAL_Driver/Src/stm32f1xx_hal_flash_ex.c ****       return status;
 516:./Drivers/STM32F1xx_HAL_Driver/Src/stm32f1xx_hal_flash_ex.c ****     }
 517:./Drivers/STM32F1xx_HAL_Driver/Src/stm32f1xx_hal_flash_ex.c ****   }
 518:./Drivers/STM32F1xx_HAL_Driver/Src/stm32f1xx_hal_flash_ex.c **** 
 519:./Drivers/STM32F1xx_HAL_Driver/Src/stm32f1xx_hal_flash_ex.c ****   /* DATA configuration*/
 520:./Drivers/STM32F1xx_HAL_Driver/Src/stm32f1xx_hal_flash_ex.c ****   if((pOBInit->OptionType & OPTIONBYTE_DATA) == OPTIONBYTE_DATA)
 521:./Drivers/STM32F1xx_HAL_Driver/Src/stm32f1xx_hal_flash_ex.c ****   {
 522:./Drivers/STM32F1xx_HAL_Driver/Src/stm32f1xx_hal_flash_ex.c ****     status = FLASH_OB_ProgramData(pOBInit->DATAAddress, pOBInit->DATAData);
 523:./Drivers/STM32F1xx_HAL_Driver/Src/stm32f1xx_hal_flash_ex.c ****     if (status != HAL_OK)
 524:./Drivers/STM32F1xx_HAL_Driver/Src/stm32f1xx_hal_flash_ex.c ****     {
 525:./Drivers/STM32F1xx_HAL_Driver/Src/stm32f1xx_hal_flash_ex.c ****       /* Process Unlocked */
 526:./Drivers/STM32F1xx_HAL_Driver/Src/stm32f1xx_hal_flash_ex.c ****       __HAL_UNLOCK(&pFlash);
 527:./Drivers/STM32F1xx_HAL_Driver/Src/stm32f1xx_hal_flash_ex.c ****       return status;
 528:./Drivers/STM32F1xx_HAL_Driver/Src/stm32f1xx_hal_flash_ex.c ****     }
 529:./Drivers/STM32F1xx_HAL_Driver/Src/stm32f1xx_hal_flash_ex.c ****   }
 530:./Drivers/STM32F1xx_HAL_Driver/Src/stm32f1xx_hal_flash_ex.c **** 
 531:./Drivers/STM32F1xx_HAL_Driver/Src/stm32f1xx_hal_flash_ex.c ****   /* Process Unlocked */
 532:./Drivers/STM32F1xx_HAL_Driver/Src/stm32f1xx_hal_flash_ex.c ****   __HAL_UNLOCK(&pFlash);
 533:./Drivers/STM32F1xx_HAL_Driver/Src/stm32f1xx_hal_flash_ex.c **** 
 534:./Drivers/STM32F1xx_HAL_Driver/Src/stm32f1xx_hal_flash_ex.c ****   return status;
 535:./Drivers/STM32F1xx_HAL_Driver/Src/stm32f1xx_hal_flash_ex.c **** }
 536:./Drivers/STM32F1xx_HAL_Driver/Src/stm32f1xx_hal_flash_ex.c **** 
 537:./Drivers/STM32F1xx_HAL_Driver/Src/stm32f1xx_hal_flash_ex.c **** /**
 538:./Drivers/STM32F1xx_HAL_Driver/Src/stm32f1xx_hal_flash_ex.c ****   * @brief  Get the Option byte configuration
 539:./Drivers/STM32F1xx_HAL_Driver/Src/stm32f1xx_hal_flash_ex.c ****   * @param  pOBInit pointer to an FLASH_OBInitStruct structure that
 540:./Drivers/STM32F1xx_HAL_Driver/Src/stm32f1xx_hal_flash_ex.c ****   *         contains the configuration information for the programming.
 541:./Drivers/STM32F1xx_HAL_Driver/Src/stm32f1xx_hal_flash_ex.c ****   *
 542:./Drivers/STM32F1xx_HAL_Driver/Src/stm32f1xx_hal_flash_ex.c ****   * @retval None
 543:./Drivers/STM32F1xx_HAL_Driver/Src/stm32f1xx_hal_flash_ex.c ****   */
 544:./Drivers/STM32F1xx_HAL_Driver/Src/stm32f1xx_hal_flash_ex.c **** void HAL_FLASHEx_OBGetConfig(FLASH_OBProgramInitTypeDef *pOBInit)
 545:./Drivers/STM32F1xx_HAL_Driver/Src/stm32f1xx_hal_flash_ex.c **** {
 546:./Drivers/STM32F1xx_HAL_Driver/Src/stm32f1xx_hal_flash_ex.c ****   pOBInit->OptionType = OPTIONBYTE_WRP | OPTIONBYTE_RDP | OPTIONBYTE_USER;
ARM GAS  /tmp/ccpVxzjx.s 			page 11


 547:./Drivers/STM32F1xx_HAL_Driver/Src/stm32f1xx_hal_flash_ex.c **** 
 548:./Drivers/STM32F1xx_HAL_Driver/Src/stm32f1xx_hal_flash_ex.c ****   /*Get WRP*/
 549:./Drivers/STM32F1xx_HAL_Driver/Src/stm32f1xx_hal_flash_ex.c ****   pOBInit->WRPPage = FLASH_OB_GetWRP();
 550:./Drivers/STM32F1xx_HAL_Driver/Src/stm32f1xx_hal_flash_ex.c **** 
 551:./Drivers/STM32F1xx_HAL_Driver/Src/stm32f1xx_hal_flash_ex.c ****   /*Get RDP Level*/
 552:./Drivers/STM32F1xx_HAL_Driver/Src/stm32f1xx_hal_flash_ex.c ****   pOBInit->RDPLevel = FLASH_OB_GetRDP();
 553:./Drivers/STM32F1xx_HAL_Driver/Src/stm32f1xx_hal_flash_ex.c **** 
 554:./Drivers/STM32F1xx_HAL_Driver/Src/stm32f1xx_hal_flash_ex.c ****   /*Get USER*/
 555:./Drivers/STM32F1xx_HAL_Driver/Src/stm32f1xx_hal_flash_ex.c ****   pOBInit->USERConfig = FLASH_OB_GetUser();
 556:./Drivers/STM32F1xx_HAL_Driver/Src/stm32f1xx_hal_flash_ex.c **** }
 557:./Drivers/STM32F1xx_HAL_Driver/Src/stm32f1xx_hal_flash_ex.c **** 
 558:./Drivers/STM32F1xx_HAL_Driver/Src/stm32f1xx_hal_flash_ex.c **** /**
 559:./Drivers/STM32F1xx_HAL_Driver/Src/stm32f1xx_hal_flash_ex.c ****   * @brief  Get the Option byte user data
 560:./Drivers/STM32F1xx_HAL_Driver/Src/stm32f1xx_hal_flash_ex.c ****   * @param  DATAAdress Address of the option byte DATA
 561:./Drivers/STM32F1xx_HAL_Driver/Src/stm32f1xx_hal_flash_ex.c ****   *          This parameter can be one of the following values:
 562:./Drivers/STM32F1xx_HAL_Driver/Src/stm32f1xx_hal_flash_ex.c ****   *            @arg @ref OB_DATA_ADDRESS_DATA0
 563:./Drivers/STM32F1xx_HAL_Driver/Src/stm32f1xx_hal_flash_ex.c ****   *            @arg @ref OB_DATA_ADDRESS_DATA1
 564:./Drivers/STM32F1xx_HAL_Driver/Src/stm32f1xx_hal_flash_ex.c ****   * @retval Value programmed in USER data
 565:./Drivers/STM32F1xx_HAL_Driver/Src/stm32f1xx_hal_flash_ex.c ****   */
 566:./Drivers/STM32F1xx_HAL_Driver/Src/stm32f1xx_hal_flash_ex.c **** uint32_t HAL_FLASHEx_OBGetUserData(uint32_t DATAAdress)
 567:./Drivers/STM32F1xx_HAL_Driver/Src/stm32f1xx_hal_flash_ex.c **** {
 568:./Drivers/STM32F1xx_HAL_Driver/Src/stm32f1xx_hal_flash_ex.c ****   uint32_t value = 0;
 569:./Drivers/STM32F1xx_HAL_Driver/Src/stm32f1xx_hal_flash_ex.c ****   
 570:./Drivers/STM32F1xx_HAL_Driver/Src/stm32f1xx_hal_flash_ex.c ****   if (DATAAdress == OB_DATA_ADDRESS_DATA0)
 571:./Drivers/STM32F1xx_HAL_Driver/Src/stm32f1xx_hal_flash_ex.c ****   {
 572:./Drivers/STM32F1xx_HAL_Driver/Src/stm32f1xx_hal_flash_ex.c ****     /* Get value programmed in OB USER Data0 */
 573:./Drivers/STM32F1xx_HAL_Driver/Src/stm32f1xx_hal_flash_ex.c ****     value = READ_BIT(FLASH->OBR, FLASH_OBR_DATA0) >> FLASH_POSITION_OB_USERDATA0_BIT;
 574:./Drivers/STM32F1xx_HAL_Driver/Src/stm32f1xx_hal_flash_ex.c ****   }
 575:./Drivers/STM32F1xx_HAL_Driver/Src/stm32f1xx_hal_flash_ex.c ****   else
 576:./Drivers/STM32F1xx_HAL_Driver/Src/stm32f1xx_hal_flash_ex.c ****   {
 577:./Drivers/STM32F1xx_HAL_Driver/Src/stm32f1xx_hal_flash_ex.c ****     /* Get value programmed in OB USER Data1 */
 578:./Drivers/STM32F1xx_HAL_Driver/Src/stm32f1xx_hal_flash_ex.c ****     value = READ_BIT(FLASH->OBR, FLASH_OBR_DATA1) >> FLASH_POSITION_OB_USERDATA1_BIT;
 579:./Drivers/STM32F1xx_HAL_Driver/Src/stm32f1xx_hal_flash_ex.c ****   }
 580:./Drivers/STM32F1xx_HAL_Driver/Src/stm32f1xx_hal_flash_ex.c ****   
 581:./Drivers/STM32F1xx_HAL_Driver/Src/stm32f1xx_hal_flash_ex.c ****   return value;
 582:./Drivers/STM32F1xx_HAL_Driver/Src/stm32f1xx_hal_flash_ex.c **** }
 583:./Drivers/STM32F1xx_HAL_Driver/Src/stm32f1xx_hal_flash_ex.c **** 
 584:./Drivers/STM32F1xx_HAL_Driver/Src/stm32f1xx_hal_flash_ex.c **** /**
 585:./Drivers/STM32F1xx_HAL_Driver/Src/stm32f1xx_hal_flash_ex.c ****   * @}
 586:./Drivers/STM32F1xx_HAL_Driver/Src/stm32f1xx_hal_flash_ex.c ****   */
 587:./Drivers/STM32F1xx_HAL_Driver/Src/stm32f1xx_hal_flash_ex.c **** 
 588:./Drivers/STM32F1xx_HAL_Driver/Src/stm32f1xx_hal_flash_ex.c **** /**
 589:./Drivers/STM32F1xx_HAL_Driver/Src/stm32f1xx_hal_flash_ex.c ****   * @}
 590:./Drivers/STM32F1xx_HAL_Driver/Src/stm32f1xx_hal_flash_ex.c ****   */
 591:./Drivers/STM32F1xx_HAL_Driver/Src/stm32f1xx_hal_flash_ex.c **** 
 592:./Drivers/STM32F1xx_HAL_Driver/Src/stm32f1xx_hal_flash_ex.c **** /** @addtogroup FLASHEx_Private_Functions
 593:./Drivers/STM32F1xx_HAL_Driver/Src/stm32f1xx_hal_flash_ex.c ****  * @{
 594:./Drivers/STM32F1xx_HAL_Driver/Src/stm32f1xx_hal_flash_ex.c ****  */
 595:./Drivers/STM32F1xx_HAL_Driver/Src/stm32f1xx_hal_flash_ex.c **** 
 596:./Drivers/STM32F1xx_HAL_Driver/Src/stm32f1xx_hal_flash_ex.c **** /**
 597:./Drivers/STM32F1xx_HAL_Driver/Src/stm32f1xx_hal_flash_ex.c ****   * @brief  Full erase of FLASH memory Bank 
 598:./Drivers/STM32F1xx_HAL_Driver/Src/stm32f1xx_hal_flash_ex.c ****   * @param  Banks Banks to be erased
 599:./Drivers/STM32F1xx_HAL_Driver/Src/stm32f1xx_hal_flash_ex.c ****   *          This parameter can be one of the following values:
 600:./Drivers/STM32F1xx_HAL_Driver/Src/stm32f1xx_hal_flash_ex.c ****   *            @arg @ref FLASH_BANK_1 Bank1 to be erased
 601:./Drivers/STM32F1xx_HAL_Driver/Src/stm32f1xx_hal_flash_ex.c ****   @if STM32F101xG
 602:./Drivers/STM32F1xx_HAL_Driver/Src/stm32f1xx_hal_flash_ex.c ****   *            @arg @ref FLASH_BANK_2 Bank2 to be erased
 603:./Drivers/STM32F1xx_HAL_Driver/Src/stm32f1xx_hal_flash_ex.c ****   *            @arg @ref FLASH_BANK_BOTH Bank1 and Bank2 to be erased
ARM GAS  /tmp/ccpVxzjx.s 			page 12


 604:./Drivers/STM32F1xx_HAL_Driver/Src/stm32f1xx_hal_flash_ex.c ****   @endif
 605:./Drivers/STM32F1xx_HAL_Driver/Src/stm32f1xx_hal_flash_ex.c ****   @if STM32F103xG
 606:./Drivers/STM32F1xx_HAL_Driver/Src/stm32f1xx_hal_flash_ex.c ****   *            @arg @ref FLASH_BANK_2 Bank2 to be erased
 607:./Drivers/STM32F1xx_HAL_Driver/Src/stm32f1xx_hal_flash_ex.c ****   *            @arg @ref FLASH_BANK_BOTH Bank1 and Bank2 to be erased
 608:./Drivers/STM32F1xx_HAL_Driver/Src/stm32f1xx_hal_flash_ex.c ****   @endif
 609:./Drivers/STM32F1xx_HAL_Driver/Src/stm32f1xx_hal_flash_ex.c ****   *
 610:./Drivers/STM32F1xx_HAL_Driver/Src/stm32f1xx_hal_flash_ex.c ****   * @retval None
 611:./Drivers/STM32F1xx_HAL_Driver/Src/stm32f1xx_hal_flash_ex.c ****   */
 612:./Drivers/STM32F1xx_HAL_Driver/Src/stm32f1xx_hal_flash_ex.c **** static void FLASH_MassErase(uint32_t Banks)
 613:./Drivers/STM32F1xx_HAL_Driver/Src/stm32f1xx_hal_flash_ex.c **** {
  26              		.loc 1 613 0
  27              		.cfi_startproc
  28              		@ args = 0, pretend = 0, frame = 0
  29              		@ frame_needed = 0, uses_anonymous_args = 0
  30              		@ link register save eliminated.
  31              	.LVL0:
 614:./Drivers/STM32F1xx_HAL_Driver/Src/stm32f1xx_hal_flash_ex.c ****   /* Check the parameters */
 615:./Drivers/STM32F1xx_HAL_Driver/Src/stm32f1xx_hal_flash_ex.c ****   assert_param(IS_FLASH_BANK(Banks));
 616:./Drivers/STM32F1xx_HAL_Driver/Src/stm32f1xx_hal_flash_ex.c **** 
 617:./Drivers/STM32F1xx_HAL_Driver/Src/stm32f1xx_hal_flash_ex.c ****   /* Clean the error context */
 618:./Drivers/STM32F1xx_HAL_Driver/Src/stm32f1xx_hal_flash_ex.c ****   pFlash.ErrorCode = HAL_FLASH_ERROR_NONE;
  32              		.loc 1 618 0
  33 0000 0022     		movs	r2, #0
  34 0002 064B     		ldr	r3, .L2
  35 0004 DA61     		str	r2, [r3, #28]
 619:./Drivers/STM32F1xx_HAL_Driver/Src/stm32f1xx_hal_flash_ex.c **** 
 620:./Drivers/STM32F1xx_HAL_Driver/Src/stm32f1xx_hal_flash_ex.c **** #if defined(FLASH_BANK2_END)
 621:./Drivers/STM32F1xx_HAL_Driver/Src/stm32f1xx_hal_flash_ex.c ****   if(Banks == FLASH_BANK_BOTH)
 622:./Drivers/STM32F1xx_HAL_Driver/Src/stm32f1xx_hal_flash_ex.c ****   {
 623:./Drivers/STM32F1xx_HAL_Driver/Src/stm32f1xx_hal_flash_ex.c ****     /* bank1 & bank2 will be erased*/
 624:./Drivers/STM32F1xx_HAL_Driver/Src/stm32f1xx_hal_flash_ex.c ****     SET_BIT(FLASH->CR, FLASH_CR_MER);
 625:./Drivers/STM32F1xx_HAL_Driver/Src/stm32f1xx_hal_flash_ex.c ****     SET_BIT(FLASH->CR2, FLASH_CR2_MER);
 626:./Drivers/STM32F1xx_HAL_Driver/Src/stm32f1xx_hal_flash_ex.c ****     SET_BIT(FLASH->CR, FLASH_CR_STRT);
 627:./Drivers/STM32F1xx_HAL_Driver/Src/stm32f1xx_hal_flash_ex.c ****     SET_BIT(FLASH->CR2, FLASH_CR2_STRT);
 628:./Drivers/STM32F1xx_HAL_Driver/Src/stm32f1xx_hal_flash_ex.c ****   }
 629:./Drivers/STM32F1xx_HAL_Driver/Src/stm32f1xx_hal_flash_ex.c ****   else if(Banks == FLASH_BANK_2)
 630:./Drivers/STM32F1xx_HAL_Driver/Src/stm32f1xx_hal_flash_ex.c ****   {
 631:./Drivers/STM32F1xx_HAL_Driver/Src/stm32f1xx_hal_flash_ex.c ****     /*Only bank2 will be erased*/
 632:./Drivers/STM32F1xx_HAL_Driver/Src/stm32f1xx_hal_flash_ex.c ****     SET_BIT(FLASH->CR2, FLASH_CR2_MER);
 633:./Drivers/STM32F1xx_HAL_Driver/Src/stm32f1xx_hal_flash_ex.c ****     SET_BIT(FLASH->CR2, FLASH_CR2_STRT);
 634:./Drivers/STM32F1xx_HAL_Driver/Src/stm32f1xx_hal_flash_ex.c ****   }
 635:./Drivers/STM32F1xx_HAL_Driver/Src/stm32f1xx_hal_flash_ex.c ****   else
 636:./Drivers/STM32F1xx_HAL_Driver/Src/stm32f1xx_hal_flash_ex.c ****   {
 637:./Drivers/STM32F1xx_HAL_Driver/Src/stm32f1xx_hal_flash_ex.c **** #endif /* FLASH_BANK2_END */
 638:./Drivers/STM32F1xx_HAL_Driver/Src/stm32f1xx_hal_flash_ex.c ****     /* Only bank1 will be erased*/
 639:./Drivers/STM32F1xx_HAL_Driver/Src/stm32f1xx_hal_flash_ex.c ****     SET_BIT(FLASH->CR, FLASH_CR_MER);
  36              		.loc 1 639 0
  37 0006 064B     		ldr	r3, .L2+4
  38 0008 1A69     		ldr	r2, [r3, #16]
  39 000a 42F00402 		orr	r2, r2, #4
  40 000e 1A61     		str	r2, [r3, #16]
 640:./Drivers/STM32F1xx_HAL_Driver/Src/stm32f1xx_hal_flash_ex.c ****     SET_BIT(FLASH->CR, FLASH_CR_STRT);
  41              		.loc 1 640 0
  42 0010 1A69     		ldr	r2, [r3, #16]
  43 0012 42F04002 		orr	r2, r2, #64
  44 0016 1A61     		str	r2, [r3, #16]
  45 0018 7047     		bx	lr
ARM GAS  /tmp/ccpVxzjx.s 			page 13


  46              	.L3:
  47 001a 00BF     		.align	2
  48              	.L2:
  49 001c 00000000 		.word	pFlash
  50 0020 00200240 		.word	1073881088
  51              		.cfi_endproc
  52              	.LFE69:
  54              		.section	.text.FLASH_OB_GetWRP,"ax",%progbits
  55              		.align	2
  56              		.thumb
  57              		.thumb_func
  59              	FLASH_OB_GetWRP:
  60              	.LFB75:
 641:./Drivers/STM32F1xx_HAL_Driver/Src/stm32f1xx_hal_flash_ex.c **** #if defined(FLASH_BANK2_END)
 642:./Drivers/STM32F1xx_HAL_Driver/Src/stm32f1xx_hal_flash_ex.c ****   }
 643:./Drivers/STM32F1xx_HAL_Driver/Src/stm32f1xx_hal_flash_ex.c **** #endif /* FLASH_BANK2_END */
 644:./Drivers/STM32F1xx_HAL_Driver/Src/stm32f1xx_hal_flash_ex.c **** }
 645:./Drivers/STM32F1xx_HAL_Driver/Src/stm32f1xx_hal_flash_ex.c **** 
 646:./Drivers/STM32F1xx_HAL_Driver/Src/stm32f1xx_hal_flash_ex.c **** /**
 647:./Drivers/STM32F1xx_HAL_Driver/Src/stm32f1xx_hal_flash_ex.c ****   * @brief  Enable the write protection of the desired pages
 648:./Drivers/STM32F1xx_HAL_Driver/Src/stm32f1xx_hal_flash_ex.c ****   * @note   An option byte erase is done automatically in this function. 
 649:./Drivers/STM32F1xx_HAL_Driver/Src/stm32f1xx_hal_flash_ex.c ****   * @note   When the memory read protection level is selected (RDP level = 1), 
 650:./Drivers/STM32F1xx_HAL_Driver/Src/stm32f1xx_hal_flash_ex.c ****   *         it is not possible to program or erase the flash page i if
 651:./Drivers/STM32F1xx_HAL_Driver/Src/stm32f1xx_hal_flash_ex.c ****   *         debug features are connected or boot code is executed in RAM, even if nWRPi = 1 
 652:./Drivers/STM32F1xx_HAL_Driver/Src/stm32f1xx_hal_flash_ex.c ****   * 
 653:./Drivers/STM32F1xx_HAL_Driver/Src/stm32f1xx_hal_flash_ex.c ****   * @param  WriteProtectPage specifies the page(s) to be write protected.
 654:./Drivers/STM32F1xx_HAL_Driver/Src/stm32f1xx_hal_flash_ex.c ****   *         The value of this parameter depend on device used within the same series 
 655:./Drivers/STM32F1xx_HAL_Driver/Src/stm32f1xx_hal_flash_ex.c ****   * @retval HAL status 
 656:./Drivers/STM32F1xx_HAL_Driver/Src/stm32f1xx_hal_flash_ex.c ****   */
 657:./Drivers/STM32F1xx_HAL_Driver/Src/stm32f1xx_hal_flash_ex.c **** static HAL_StatusTypeDef FLASH_OB_EnableWRP(uint32_t WriteProtectPage)
 658:./Drivers/STM32F1xx_HAL_Driver/Src/stm32f1xx_hal_flash_ex.c **** {
 659:./Drivers/STM32F1xx_HAL_Driver/Src/stm32f1xx_hal_flash_ex.c ****   HAL_StatusTypeDef status = HAL_OK;
 660:./Drivers/STM32F1xx_HAL_Driver/Src/stm32f1xx_hal_flash_ex.c ****   uint16_t WRP0_Data = 0xFFFF;
 661:./Drivers/STM32F1xx_HAL_Driver/Src/stm32f1xx_hal_flash_ex.c **** #if defined(FLASH_WRP1_WRP1)
 662:./Drivers/STM32F1xx_HAL_Driver/Src/stm32f1xx_hal_flash_ex.c ****   uint16_t WRP1_Data = 0xFFFF;
 663:./Drivers/STM32F1xx_HAL_Driver/Src/stm32f1xx_hal_flash_ex.c **** #endif /* FLASH_WRP1_WRP1 */
 664:./Drivers/STM32F1xx_HAL_Driver/Src/stm32f1xx_hal_flash_ex.c **** #if defined(FLASH_WRP2_WRP2)
 665:./Drivers/STM32F1xx_HAL_Driver/Src/stm32f1xx_hal_flash_ex.c ****   uint16_t WRP2_Data = 0xFFFF;
 666:./Drivers/STM32F1xx_HAL_Driver/Src/stm32f1xx_hal_flash_ex.c **** #endif /* FLASH_WRP2_WRP2 */
 667:./Drivers/STM32F1xx_HAL_Driver/Src/stm32f1xx_hal_flash_ex.c **** #if defined(FLASH_WRP3_WRP3)
 668:./Drivers/STM32F1xx_HAL_Driver/Src/stm32f1xx_hal_flash_ex.c ****   uint16_t WRP3_Data = 0xFFFF;
 669:./Drivers/STM32F1xx_HAL_Driver/Src/stm32f1xx_hal_flash_ex.c **** #endif /* FLASH_WRP3_WRP3 */
 670:./Drivers/STM32F1xx_HAL_Driver/Src/stm32f1xx_hal_flash_ex.c ****   
 671:./Drivers/STM32F1xx_HAL_Driver/Src/stm32f1xx_hal_flash_ex.c ****   /* Check the parameters */
 672:./Drivers/STM32F1xx_HAL_Driver/Src/stm32f1xx_hal_flash_ex.c ****   assert_param(IS_OB_WRP(WriteProtectPage));
 673:./Drivers/STM32F1xx_HAL_Driver/Src/stm32f1xx_hal_flash_ex.c ****     
 674:./Drivers/STM32F1xx_HAL_Driver/Src/stm32f1xx_hal_flash_ex.c ****   /* Get current write protected pages and the new pages to be protected ******/
 675:./Drivers/STM32F1xx_HAL_Driver/Src/stm32f1xx_hal_flash_ex.c ****   WriteProtectPage = (uint32_t)(~((~FLASH_OB_GetWRP()) | WriteProtectPage));
 676:./Drivers/STM32F1xx_HAL_Driver/Src/stm32f1xx_hal_flash_ex.c ****   
 677:./Drivers/STM32F1xx_HAL_Driver/Src/stm32f1xx_hal_flash_ex.c **** #if defined(OB_WRP_PAGES0TO15MASK)
 678:./Drivers/STM32F1xx_HAL_Driver/Src/stm32f1xx_hal_flash_ex.c ****   WRP0_Data = (uint16_t)(WriteProtectPage & OB_WRP_PAGES0TO15MASK);
 679:./Drivers/STM32F1xx_HAL_Driver/Src/stm32f1xx_hal_flash_ex.c **** #elif defined(OB_WRP_PAGES0TO31MASK)
 680:./Drivers/STM32F1xx_HAL_Driver/Src/stm32f1xx_hal_flash_ex.c ****   WRP0_Data = (uint16_t)(WriteProtectPage & OB_WRP_PAGES0TO31MASK);
 681:./Drivers/STM32F1xx_HAL_Driver/Src/stm32f1xx_hal_flash_ex.c **** #endif /* OB_WRP_PAGES0TO31MASK */
 682:./Drivers/STM32F1xx_HAL_Driver/Src/stm32f1xx_hal_flash_ex.c ****   
 683:./Drivers/STM32F1xx_HAL_Driver/Src/stm32f1xx_hal_flash_ex.c **** #if defined(OB_WRP_PAGES16TO31MASK)
 684:./Drivers/STM32F1xx_HAL_Driver/Src/stm32f1xx_hal_flash_ex.c ****   WRP1_Data = (uint16_t)((WriteProtectPage & OB_WRP_PAGES16TO31MASK) >> 8);
ARM GAS  /tmp/ccpVxzjx.s 			page 14


 685:./Drivers/STM32F1xx_HAL_Driver/Src/stm32f1xx_hal_flash_ex.c **** #elif defined(OB_WRP_PAGES32TO63MASK)
 686:./Drivers/STM32F1xx_HAL_Driver/Src/stm32f1xx_hal_flash_ex.c ****   WRP1_Data = (uint16_t)((WriteProtectPage & OB_WRP_PAGES32TO63MASK) >> 8);
 687:./Drivers/STM32F1xx_HAL_Driver/Src/stm32f1xx_hal_flash_ex.c **** #endif /* OB_WRP_PAGES32TO63MASK */
 688:./Drivers/STM32F1xx_HAL_Driver/Src/stm32f1xx_hal_flash_ex.c ****  
 689:./Drivers/STM32F1xx_HAL_Driver/Src/stm32f1xx_hal_flash_ex.c **** #if defined(OB_WRP_PAGES64TO95MASK)
 690:./Drivers/STM32F1xx_HAL_Driver/Src/stm32f1xx_hal_flash_ex.c ****   WRP2_Data = (uint16_t)((WriteProtectPage & OB_WRP_PAGES64TO95MASK) >> 16);
 691:./Drivers/STM32F1xx_HAL_Driver/Src/stm32f1xx_hal_flash_ex.c **** #endif /* OB_WRP_PAGES64TO95MASK */
 692:./Drivers/STM32F1xx_HAL_Driver/Src/stm32f1xx_hal_flash_ex.c **** #if defined(OB_WRP_PAGES32TO47MASK)
 693:./Drivers/STM32F1xx_HAL_Driver/Src/stm32f1xx_hal_flash_ex.c ****   WRP2_Data = (uint16_t)((WriteProtectPage & OB_WRP_PAGES32TO47MASK) >> 16);
 694:./Drivers/STM32F1xx_HAL_Driver/Src/stm32f1xx_hal_flash_ex.c **** #endif /* OB_WRP_PAGES32TO47MASK */
 695:./Drivers/STM32F1xx_HAL_Driver/Src/stm32f1xx_hal_flash_ex.c **** 
 696:./Drivers/STM32F1xx_HAL_Driver/Src/stm32f1xx_hal_flash_ex.c **** #if defined(OB_WRP_PAGES96TO127MASK)
 697:./Drivers/STM32F1xx_HAL_Driver/Src/stm32f1xx_hal_flash_ex.c ****   WRP3_Data = (uint16_t)((WriteProtectPage & OB_WRP_PAGES96TO127MASK) >> 24); 
 698:./Drivers/STM32F1xx_HAL_Driver/Src/stm32f1xx_hal_flash_ex.c **** #elif defined(OB_WRP_PAGES48TO255MASK)
 699:./Drivers/STM32F1xx_HAL_Driver/Src/stm32f1xx_hal_flash_ex.c ****   WRP3_Data = (uint16_t)((WriteProtectPage & OB_WRP_PAGES48TO255MASK) >> 24); 
 700:./Drivers/STM32F1xx_HAL_Driver/Src/stm32f1xx_hal_flash_ex.c **** #elif defined(OB_WRP_PAGES48TO511MASK)
 701:./Drivers/STM32F1xx_HAL_Driver/Src/stm32f1xx_hal_flash_ex.c ****   WRP3_Data = (uint16_t)((WriteProtectPage & OB_WRP_PAGES48TO511MASK) >> 24); 
 702:./Drivers/STM32F1xx_HAL_Driver/Src/stm32f1xx_hal_flash_ex.c **** #elif defined(OB_WRP_PAGES48TO127MASK)
 703:./Drivers/STM32F1xx_HAL_Driver/Src/stm32f1xx_hal_flash_ex.c ****   WRP3_Data = (uint16_t)((WriteProtectPage & OB_WRP_PAGES48TO127MASK) >> 24); 
 704:./Drivers/STM32F1xx_HAL_Driver/Src/stm32f1xx_hal_flash_ex.c **** #endif /* OB_WRP_PAGES96TO127MASK */
 705:./Drivers/STM32F1xx_HAL_Driver/Src/stm32f1xx_hal_flash_ex.c ****   
 706:./Drivers/STM32F1xx_HAL_Driver/Src/stm32f1xx_hal_flash_ex.c ****   /* Wait for last operation to be completed */
 707:./Drivers/STM32F1xx_HAL_Driver/Src/stm32f1xx_hal_flash_ex.c ****   status = FLASH_WaitForLastOperation((uint32_t)FLASH_TIMEOUT_VALUE);
 708:./Drivers/STM32F1xx_HAL_Driver/Src/stm32f1xx_hal_flash_ex.c **** 
 709:./Drivers/STM32F1xx_HAL_Driver/Src/stm32f1xx_hal_flash_ex.c ****   if(status == HAL_OK)
 710:./Drivers/STM32F1xx_HAL_Driver/Src/stm32f1xx_hal_flash_ex.c ****   { 
 711:./Drivers/STM32F1xx_HAL_Driver/Src/stm32f1xx_hal_flash_ex.c ****     /* Clean the error context */
 712:./Drivers/STM32F1xx_HAL_Driver/Src/stm32f1xx_hal_flash_ex.c ****     pFlash.ErrorCode = HAL_FLASH_ERROR_NONE;
 713:./Drivers/STM32F1xx_HAL_Driver/Src/stm32f1xx_hal_flash_ex.c **** 
 714:./Drivers/STM32F1xx_HAL_Driver/Src/stm32f1xx_hal_flash_ex.c ****     /* To be able to write again option byte, need to perform a option byte erase */
 715:./Drivers/STM32F1xx_HAL_Driver/Src/stm32f1xx_hal_flash_ex.c ****     status = HAL_FLASHEx_OBErase();
 716:./Drivers/STM32F1xx_HAL_Driver/Src/stm32f1xx_hal_flash_ex.c ****     if (status == HAL_OK)  
 717:./Drivers/STM32F1xx_HAL_Driver/Src/stm32f1xx_hal_flash_ex.c ****     {
 718:./Drivers/STM32F1xx_HAL_Driver/Src/stm32f1xx_hal_flash_ex.c ****       /* Enable write protection */
 719:./Drivers/STM32F1xx_HAL_Driver/Src/stm32f1xx_hal_flash_ex.c ****       SET_BIT(FLASH->CR, FLASH_CR_OPTPG);
 720:./Drivers/STM32F1xx_HAL_Driver/Src/stm32f1xx_hal_flash_ex.c **** 
 721:./Drivers/STM32F1xx_HAL_Driver/Src/stm32f1xx_hal_flash_ex.c **** #if defined(FLASH_WRP0_WRP0)
 722:./Drivers/STM32F1xx_HAL_Driver/Src/stm32f1xx_hal_flash_ex.c ****       if(WRP0_Data != 0xFF)
 723:./Drivers/STM32F1xx_HAL_Driver/Src/stm32f1xx_hal_flash_ex.c ****       {
 724:./Drivers/STM32F1xx_HAL_Driver/Src/stm32f1xx_hal_flash_ex.c ****         OB->WRP0 &= WRP0_Data;
 725:./Drivers/STM32F1xx_HAL_Driver/Src/stm32f1xx_hal_flash_ex.c ****         
 726:./Drivers/STM32F1xx_HAL_Driver/Src/stm32f1xx_hal_flash_ex.c ****         /* Wait for last operation to be completed */
 727:./Drivers/STM32F1xx_HAL_Driver/Src/stm32f1xx_hal_flash_ex.c ****         status = FLASH_WaitForLastOperation((uint32_t)FLASH_TIMEOUT_VALUE);
 728:./Drivers/STM32F1xx_HAL_Driver/Src/stm32f1xx_hal_flash_ex.c ****       }
 729:./Drivers/STM32F1xx_HAL_Driver/Src/stm32f1xx_hal_flash_ex.c **** #endif /* FLASH_WRP0_WRP0 */
 730:./Drivers/STM32F1xx_HAL_Driver/Src/stm32f1xx_hal_flash_ex.c **** 
 731:./Drivers/STM32F1xx_HAL_Driver/Src/stm32f1xx_hal_flash_ex.c **** #if defined(FLASH_WRP1_WRP1)
 732:./Drivers/STM32F1xx_HAL_Driver/Src/stm32f1xx_hal_flash_ex.c ****       if((status == HAL_OK) && (WRP1_Data != 0xFF))
 733:./Drivers/STM32F1xx_HAL_Driver/Src/stm32f1xx_hal_flash_ex.c ****       {
 734:./Drivers/STM32F1xx_HAL_Driver/Src/stm32f1xx_hal_flash_ex.c ****         OB->WRP1 &= WRP1_Data;
 735:./Drivers/STM32F1xx_HAL_Driver/Src/stm32f1xx_hal_flash_ex.c ****         
 736:./Drivers/STM32F1xx_HAL_Driver/Src/stm32f1xx_hal_flash_ex.c ****         /* Wait for last operation to be completed */
 737:./Drivers/STM32F1xx_HAL_Driver/Src/stm32f1xx_hal_flash_ex.c ****         status = FLASH_WaitForLastOperation((uint32_t)FLASH_TIMEOUT_VALUE);
 738:./Drivers/STM32F1xx_HAL_Driver/Src/stm32f1xx_hal_flash_ex.c ****       }
 739:./Drivers/STM32F1xx_HAL_Driver/Src/stm32f1xx_hal_flash_ex.c **** #endif /* FLASH_WRP1_WRP1 */
 740:./Drivers/STM32F1xx_HAL_Driver/Src/stm32f1xx_hal_flash_ex.c **** 
 741:./Drivers/STM32F1xx_HAL_Driver/Src/stm32f1xx_hal_flash_ex.c **** #if defined(FLASH_WRP2_WRP2)
ARM GAS  /tmp/ccpVxzjx.s 			page 15


 742:./Drivers/STM32F1xx_HAL_Driver/Src/stm32f1xx_hal_flash_ex.c ****       if((status == HAL_OK) && (WRP2_Data != 0xFF))
 743:./Drivers/STM32F1xx_HAL_Driver/Src/stm32f1xx_hal_flash_ex.c ****       {
 744:./Drivers/STM32F1xx_HAL_Driver/Src/stm32f1xx_hal_flash_ex.c ****         OB->WRP2 &= WRP2_Data;
 745:./Drivers/STM32F1xx_HAL_Driver/Src/stm32f1xx_hal_flash_ex.c ****         
 746:./Drivers/STM32F1xx_HAL_Driver/Src/stm32f1xx_hal_flash_ex.c ****         /* Wait for last operation to be completed */
 747:./Drivers/STM32F1xx_HAL_Driver/Src/stm32f1xx_hal_flash_ex.c ****         status = FLASH_WaitForLastOperation((uint32_t)FLASH_TIMEOUT_VALUE);
 748:./Drivers/STM32F1xx_HAL_Driver/Src/stm32f1xx_hal_flash_ex.c ****       }
 749:./Drivers/STM32F1xx_HAL_Driver/Src/stm32f1xx_hal_flash_ex.c **** #endif /* FLASH_WRP2_WRP2 */
 750:./Drivers/STM32F1xx_HAL_Driver/Src/stm32f1xx_hal_flash_ex.c **** 
 751:./Drivers/STM32F1xx_HAL_Driver/Src/stm32f1xx_hal_flash_ex.c **** #if defined(FLASH_WRP3_WRP3)
 752:./Drivers/STM32F1xx_HAL_Driver/Src/stm32f1xx_hal_flash_ex.c ****       if((status == HAL_OK) && (WRP3_Data != 0xFF))
 753:./Drivers/STM32F1xx_HAL_Driver/Src/stm32f1xx_hal_flash_ex.c ****       {
 754:./Drivers/STM32F1xx_HAL_Driver/Src/stm32f1xx_hal_flash_ex.c ****         OB->WRP3 &= WRP3_Data;
 755:./Drivers/STM32F1xx_HAL_Driver/Src/stm32f1xx_hal_flash_ex.c ****         
 756:./Drivers/STM32F1xx_HAL_Driver/Src/stm32f1xx_hal_flash_ex.c ****         /* Wait for last operation to be completed */
 757:./Drivers/STM32F1xx_HAL_Driver/Src/stm32f1xx_hal_flash_ex.c ****         status = FLASH_WaitForLastOperation((uint32_t)FLASH_TIMEOUT_VALUE);
 758:./Drivers/STM32F1xx_HAL_Driver/Src/stm32f1xx_hal_flash_ex.c ****       }
 759:./Drivers/STM32F1xx_HAL_Driver/Src/stm32f1xx_hal_flash_ex.c **** #endif /* FLASH_WRP3_WRP3 */
 760:./Drivers/STM32F1xx_HAL_Driver/Src/stm32f1xx_hal_flash_ex.c **** 
 761:./Drivers/STM32F1xx_HAL_Driver/Src/stm32f1xx_hal_flash_ex.c ****       /* if the program operation is completed, disable the OPTPG Bit */
 762:./Drivers/STM32F1xx_HAL_Driver/Src/stm32f1xx_hal_flash_ex.c ****       CLEAR_BIT(FLASH->CR, FLASH_CR_OPTPG);
 763:./Drivers/STM32F1xx_HAL_Driver/Src/stm32f1xx_hal_flash_ex.c ****     }
 764:./Drivers/STM32F1xx_HAL_Driver/Src/stm32f1xx_hal_flash_ex.c ****   }
 765:./Drivers/STM32F1xx_HAL_Driver/Src/stm32f1xx_hal_flash_ex.c ****   
 766:./Drivers/STM32F1xx_HAL_Driver/Src/stm32f1xx_hal_flash_ex.c ****   return status;
 767:./Drivers/STM32F1xx_HAL_Driver/Src/stm32f1xx_hal_flash_ex.c **** }
 768:./Drivers/STM32F1xx_HAL_Driver/Src/stm32f1xx_hal_flash_ex.c **** 
 769:./Drivers/STM32F1xx_HAL_Driver/Src/stm32f1xx_hal_flash_ex.c **** /**
 770:./Drivers/STM32F1xx_HAL_Driver/Src/stm32f1xx_hal_flash_ex.c ****   * @brief  Disable the write protection of the desired pages
 771:./Drivers/STM32F1xx_HAL_Driver/Src/stm32f1xx_hal_flash_ex.c ****   * @note   An option byte erase is done automatically in this function. 
 772:./Drivers/STM32F1xx_HAL_Driver/Src/stm32f1xx_hal_flash_ex.c ****   * @note   When the memory read protection level is selected (RDP level = 1), 
 773:./Drivers/STM32F1xx_HAL_Driver/Src/stm32f1xx_hal_flash_ex.c ****   *         it is not possible to program or erase the flash page i if   
 774:./Drivers/STM32F1xx_HAL_Driver/Src/stm32f1xx_hal_flash_ex.c ****   *         debug features are connected or boot code is executed in RAM, even if nWRPi = 1 
 775:./Drivers/STM32F1xx_HAL_Driver/Src/stm32f1xx_hal_flash_ex.c ****   * 
 776:./Drivers/STM32F1xx_HAL_Driver/Src/stm32f1xx_hal_flash_ex.c ****   * @param  WriteProtectPage specifies the page(s) to be write unprotected.
 777:./Drivers/STM32F1xx_HAL_Driver/Src/stm32f1xx_hal_flash_ex.c ****   *         The value of this parameter depend on device used within the same series 
 778:./Drivers/STM32F1xx_HAL_Driver/Src/stm32f1xx_hal_flash_ex.c ****   * @retval HAL status 
 779:./Drivers/STM32F1xx_HAL_Driver/Src/stm32f1xx_hal_flash_ex.c ****   */
 780:./Drivers/STM32F1xx_HAL_Driver/Src/stm32f1xx_hal_flash_ex.c **** static HAL_StatusTypeDef FLASH_OB_DisableWRP(uint32_t WriteProtectPage)
 781:./Drivers/STM32F1xx_HAL_Driver/Src/stm32f1xx_hal_flash_ex.c **** {
 782:./Drivers/STM32F1xx_HAL_Driver/Src/stm32f1xx_hal_flash_ex.c ****   HAL_StatusTypeDef status = HAL_OK;
 783:./Drivers/STM32F1xx_HAL_Driver/Src/stm32f1xx_hal_flash_ex.c ****   uint16_t WRP0_Data = 0xFFFF;
 784:./Drivers/STM32F1xx_HAL_Driver/Src/stm32f1xx_hal_flash_ex.c **** #if defined(FLASH_WRP1_WRP1)
 785:./Drivers/STM32F1xx_HAL_Driver/Src/stm32f1xx_hal_flash_ex.c ****   uint16_t WRP1_Data = 0xFFFF;
 786:./Drivers/STM32F1xx_HAL_Driver/Src/stm32f1xx_hal_flash_ex.c **** #endif /* FLASH_WRP1_WRP1 */
 787:./Drivers/STM32F1xx_HAL_Driver/Src/stm32f1xx_hal_flash_ex.c **** #if defined(FLASH_WRP2_WRP2)
 788:./Drivers/STM32F1xx_HAL_Driver/Src/stm32f1xx_hal_flash_ex.c ****   uint16_t WRP2_Data = 0xFFFF;
 789:./Drivers/STM32F1xx_HAL_Driver/Src/stm32f1xx_hal_flash_ex.c **** #endif /* FLASH_WRP2_WRP2 */
 790:./Drivers/STM32F1xx_HAL_Driver/Src/stm32f1xx_hal_flash_ex.c **** #if defined(FLASH_WRP3_WRP3)
 791:./Drivers/STM32F1xx_HAL_Driver/Src/stm32f1xx_hal_flash_ex.c ****   uint16_t WRP3_Data = 0xFFFF;
 792:./Drivers/STM32F1xx_HAL_Driver/Src/stm32f1xx_hal_flash_ex.c **** #endif /* FLASH_WRP3_WRP3 */
 793:./Drivers/STM32F1xx_HAL_Driver/Src/stm32f1xx_hal_flash_ex.c ****   
 794:./Drivers/STM32F1xx_HAL_Driver/Src/stm32f1xx_hal_flash_ex.c ****   /* Check the parameters */
 795:./Drivers/STM32F1xx_HAL_Driver/Src/stm32f1xx_hal_flash_ex.c ****   assert_param(IS_OB_WRP(WriteProtectPage));
 796:./Drivers/STM32F1xx_HAL_Driver/Src/stm32f1xx_hal_flash_ex.c **** 
 797:./Drivers/STM32F1xx_HAL_Driver/Src/stm32f1xx_hal_flash_ex.c ****   /* Get current write protected pages and the new pages to be unprotected ******/
 798:./Drivers/STM32F1xx_HAL_Driver/Src/stm32f1xx_hal_flash_ex.c ****   WriteProtectPage = (FLASH_OB_GetWRP() | WriteProtectPage);
ARM GAS  /tmp/ccpVxzjx.s 			page 16


 799:./Drivers/STM32F1xx_HAL_Driver/Src/stm32f1xx_hal_flash_ex.c **** 
 800:./Drivers/STM32F1xx_HAL_Driver/Src/stm32f1xx_hal_flash_ex.c **** #if defined(OB_WRP_PAGES0TO15MASK)
 801:./Drivers/STM32F1xx_HAL_Driver/Src/stm32f1xx_hal_flash_ex.c ****   WRP0_Data = (uint16_t)(WriteProtectPage & OB_WRP_PAGES0TO15MASK);
 802:./Drivers/STM32F1xx_HAL_Driver/Src/stm32f1xx_hal_flash_ex.c **** #elif defined(OB_WRP_PAGES0TO31MASK)
 803:./Drivers/STM32F1xx_HAL_Driver/Src/stm32f1xx_hal_flash_ex.c ****   WRP0_Data = (uint16_t)(WriteProtectPage & OB_WRP_PAGES0TO31MASK);
 804:./Drivers/STM32F1xx_HAL_Driver/Src/stm32f1xx_hal_flash_ex.c **** #endif /* OB_WRP_PAGES0TO31MASK */
 805:./Drivers/STM32F1xx_HAL_Driver/Src/stm32f1xx_hal_flash_ex.c ****   
 806:./Drivers/STM32F1xx_HAL_Driver/Src/stm32f1xx_hal_flash_ex.c **** #if defined(OB_WRP_PAGES16TO31MASK)
 807:./Drivers/STM32F1xx_HAL_Driver/Src/stm32f1xx_hal_flash_ex.c ****   WRP1_Data = (uint16_t)((WriteProtectPage & OB_WRP_PAGES16TO31MASK) >> 8);
 808:./Drivers/STM32F1xx_HAL_Driver/Src/stm32f1xx_hal_flash_ex.c **** #elif defined(OB_WRP_PAGES32TO63MASK)
 809:./Drivers/STM32F1xx_HAL_Driver/Src/stm32f1xx_hal_flash_ex.c ****   WRP1_Data = (uint16_t)((WriteProtectPage & OB_WRP_PAGES32TO63MASK) >> 8);
 810:./Drivers/STM32F1xx_HAL_Driver/Src/stm32f1xx_hal_flash_ex.c **** #endif /* OB_WRP_PAGES32TO63MASK */
 811:./Drivers/STM32F1xx_HAL_Driver/Src/stm32f1xx_hal_flash_ex.c ****  
 812:./Drivers/STM32F1xx_HAL_Driver/Src/stm32f1xx_hal_flash_ex.c **** #if defined(OB_WRP_PAGES64TO95MASK)
 813:./Drivers/STM32F1xx_HAL_Driver/Src/stm32f1xx_hal_flash_ex.c ****   WRP2_Data = (uint16_t)((WriteProtectPage & OB_WRP_PAGES64TO95MASK) >> 16);
 814:./Drivers/STM32F1xx_HAL_Driver/Src/stm32f1xx_hal_flash_ex.c **** #endif /* OB_WRP_PAGES64TO95MASK */
 815:./Drivers/STM32F1xx_HAL_Driver/Src/stm32f1xx_hal_flash_ex.c **** #if defined(OB_WRP_PAGES32TO47MASK)
 816:./Drivers/STM32F1xx_HAL_Driver/Src/stm32f1xx_hal_flash_ex.c ****   WRP2_Data = (uint16_t)((WriteProtectPage & OB_WRP_PAGES32TO47MASK) >> 16);
 817:./Drivers/STM32F1xx_HAL_Driver/Src/stm32f1xx_hal_flash_ex.c **** #endif /* OB_WRP_PAGES32TO47MASK */
 818:./Drivers/STM32F1xx_HAL_Driver/Src/stm32f1xx_hal_flash_ex.c **** 
 819:./Drivers/STM32F1xx_HAL_Driver/Src/stm32f1xx_hal_flash_ex.c **** #if defined(OB_WRP_PAGES96TO127MASK)
 820:./Drivers/STM32F1xx_HAL_Driver/Src/stm32f1xx_hal_flash_ex.c ****   WRP3_Data = (uint16_t)((WriteProtectPage & OB_WRP_PAGES96TO127MASK) >> 24); 
 821:./Drivers/STM32F1xx_HAL_Driver/Src/stm32f1xx_hal_flash_ex.c **** #elif defined(OB_WRP_PAGES48TO255MASK)
 822:./Drivers/STM32F1xx_HAL_Driver/Src/stm32f1xx_hal_flash_ex.c ****   WRP3_Data = (uint16_t)((WriteProtectPage & OB_WRP_PAGES48TO255MASK) >> 24); 
 823:./Drivers/STM32F1xx_HAL_Driver/Src/stm32f1xx_hal_flash_ex.c **** #elif defined(OB_WRP_PAGES48TO511MASK)
 824:./Drivers/STM32F1xx_HAL_Driver/Src/stm32f1xx_hal_flash_ex.c ****   WRP3_Data = (uint16_t)((WriteProtectPage & OB_WRP_PAGES48TO511MASK) >> 24); 
 825:./Drivers/STM32F1xx_HAL_Driver/Src/stm32f1xx_hal_flash_ex.c **** #elif defined(OB_WRP_PAGES48TO127MASK)
 826:./Drivers/STM32F1xx_HAL_Driver/Src/stm32f1xx_hal_flash_ex.c ****   WRP3_Data = (uint16_t)((WriteProtectPage & OB_WRP_PAGES48TO127MASK) >> 24); 
 827:./Drivers/STM32F1xx_HAL_Driver/Src/stm32f1xx_hal_flash_ex.c **** #endif /* OB_WRP_PAGES96TO127MASK */
 828:./Drivers/STM32F1xx_HAL_Driver/Src/stm32f1xx_hal_flash_ex.c **** 
 829:./Drivers/STM32F1xx_HAL_Driver/Src/stm32f1xx_hal_flash_ex.c ****     
 830:./Drivers/STM32F1xx_HAL_Driver/Src/stm32f1xx_hal_flash_ex.c ****   /* Wait for last operation to be completed */
 831:./Drivers/STM32F1xx_HAL_Driver/Src/stm32f1xx_hal_flash_ex.c ****   status = FLASH_WaitForLastOperation((uint32_t)FLASH_TIMEOUT_VALUE);
 832:./Drivers/STM32F1xx_HAL_Driver/Src/stm32f1xx_hal_flash_ex.c **** 
 833:./Drivers/STM32F1xx_HAL_Driver/Src/stm32f1xx_hal_flash_ex.c ****   if(status == HAL_OK)
 834:./Drivers/STM32F1xx_HAL_Driver/Src/stm32f1xx_hal_flash_ex.c ****   { 
 835:./Drivers/STM32F1xx_HAL_Driver/Src/stm32f1xx_hal_flash_ex.c ****     /* Clean the error context */
 836:./Drivers/STM32F1xx_HAL_Driver/Src/stm32f1xx_hal_flash_ex.c ****     pFlash.ErrorCode = HAL_FLASH_ERROR_NONE;
 837:./Drivers/STM32F1xx_HAL_Driver/Src/stm32f1xx_hal_flash_ex.c **** 
 838:./Drivers/STM32F1xx_HAL_Driver/Src/stm32f1xx_hal_flash_ex.c ****     /* To be able to write again option byte, need to perform a option byte erase */
 839:./Drivers/STM32F1xx_HAL_Driver/Src/stm32f1xx_hal_flash_ex.c ****     status = HAL_FLASHEx_OBErase();
 840:./Drivers/STM32F1xx_HAL_Driver/Src/stm32f1xx_hal_flash_ex.c ****     if (status == HAL_OK)  
 841:./Drivers/STM32F1xx_HAL_Driver/Src/stm32f1xx_hal_flash_ex.c ****     {
 842:./Drivers/STM32F1xx_HAL_Driver/Src/stm32f1xx_hal_flash_ex.c ****       SET_BIT(FLASH->CR, FLASH_CR_OPTPG);
 843:./Drivers/STM32F1xx_HAL_Driver/Src/stm32f1xx_hal_flash_ex.c **** 
 844:./Drivers/STM32F1xx_HAL_Driver/Src/stm32f1xx_hal_flash_ex.c **** #if defined(FLASH_WRP0_WRP0)
 845:./Drivers/STM32F1xx_HAL_Driver/Src/stm32f1xx_hal_flash_ex.c ****       if(WRP0_Data != 0xFF)
 846:./Drivers/STM32F1xx_HAL_Driver/Src/stm32f1xx_hal_flash_ex.c ****       {
 847:./Drivers/STM32F1xx_HAL_Driver/Src/stm32f1xx_hal_flash_ex.c ****         OB->WRP0 |= WRP0_Data;
 848:./Drivers/STM32F1xx_HAL_Driver/Src/stm32f1xx_hal_flash_ex.c ****         
 849:./Drivers/STM32F1xx_HAL_Driver/Src/stm32f1xx_hal_flash_ex.c ****         /* Wait for last operation to be completed */
 850:./Drivers/STM32F1xx_HAL_Driver/Src/stm32f1xx_hal_flash_ex.c ****         status = FLASH_WaitForLastOperation((uint32_t)FLASH_TIMEOUT_VALUE);
 851:./Drivers/STM32F1xx_HAL_Driver/Src/stm32f1xx_hal_flash_ex.c ****       }
 852:./Drivers/STM32F1xx_HAL_Driver/Src/stm32f1xx_hal_flash_ex.c **** #endif /* FLASH_WRP0_WRP0 */
 853:./Drivers/STM32F1xx_HAL_Driver/Src/stm32f1xx_hal_flash_ex.c **** 
 854:./Drivers/STM32F1xx_HAL_Driver/Src/stm32f1xx_hal_flash_ex.c **** #if defined(FLASH_WRP1_WRP1)
 855:./Drivers/STM32F1xx_HAL_Driver/Src/stm32f1xx_hal_flash_ex.c ****       if((status == HAL_OK) && (WRP1_Data != 0xFF))
ARM GAS  /tmp/ccpVxzjx.s 			page 17


 856:./Drivers/STM32F1xx_HAL_Driver/Src/stm32f1xx_hal_flash_ex.c ****       {
 857:./Drivers/STM32F1xx_HAL_Driver/Src/stm32f1xx_hal_flash_ex.c ****         OB->WRP1 |= WRP1_Data;
 858:./Drivers/STM32F1xx_HAL_Driver/Src/stm32f1xx_hal_flash_ex.c ****         
 859:./Drivers/STM32F1xx_HAL_Driver/Src/stm32f1xx_hal_flash_ex.c ****         /* Wait for last operation to be completed */
 860:./Drivers/STM32F1xx_HAL_Driver/Src/stm32f1xx_hal_flash_ex.c ****         status = FLASH_WaitForLastOperation((uint32_t)FLASH_TIMEOUT_VALUE);
 861:./Drivers/STM32F1xx_HAL_Driver/Src/stm32f1xx_hal_flash_ex.c ****       }
 862:./Drivers/STM32F1xx_HAL_Driver/Src/stm32f1xx_hal_flash_ex.c **** #endif /* FLASH_WRP1_WRP1 */
 863:./Drivers/STM32F1xx_HAL_Driver/Src/stm32f1xx_hal_flash_ex.c **** 
 864:./Drivers/STM32F1xx_HAL_Driver/Src/stm32f1xx_hal_flash_ex.c **** #if defined(FLASH_WRP2_WRP2)
 865:./Drivers/STM32F1xx_HAL_Driver/Src/stm32f1xx_hal_flash_ex.c ****       if((status == HAL_OK) && (WRP2_Data != 0xFF))
 866:./Drivers/STM32F1xx_HAL_Driver/Src/stm32f1xx_hal_flash_ex.c ****       {
 867:./Drivers/STM32F1xx_HAL_Driver/Src/stm32f1xx_hal_flash_ex.c ****         OB->WRP2 |= WRP2_Data;
 868:./Drivers/STM32F1xx_HAL_Driver/Src/stm32f1xx_hal_flash_ex.c ****         
 869:./Drivers/STM32F1xx_HAL_Driver/Src/stm32f1xx_hal_flash_ex.c ****         /* Wait for last operation to be completed */
 870:./Drivers/STM32F1xx_HAL_Driver/Src/stm32f1xx_hal_flash_ex.c ****         status = FLASH_WaitForLastOperation((uint32_t)FLASH_TIMEOUT_VALUE);
 871:./Drivers/STM32F1xx_HAL_Driver/Src/stm32f1xx_hal_flash_ex.c ****       }
 872:./Drivers/STM32F1xx_HAL_Driver/Src/stm32f1xx_hal_flash_ex.c **** #endif /* FLASH_WRP2_WRP2 */
 873:./Drivers/STM32F1xx_HAL_Driver/Src/stm32f1xx_hal_flash_ex.c **** 
 874:./Drivers/STM32F1xx_HAL_Driver/Src/stm32f1xx_hal_flash_ex.c **** #if defined(FLASH_WRP3_WRP3)
 875:./Drivers/STM32F1xx_HAL_Driver/Src/stm32f1xx_hal_flash_ex.c ****       if((status == HAL_OK) && (WRP3_Data != 0xFF))
 876:./Drivers/STM32F1xx_HAL_Driver/Src/stm32f1xx_hal_flash_ex.c ****       {
 877:./Drivers/STM32F1xx_HAL_Driver/Src/stm32f1xx_hal_flash_ex.c ****         OB->WRP3 |= WRP3_Data;
 878:./Drivers/STM32F1xx_HAL_Driver/Src/stm32f1xx_hal_flash_ex.c ****         
 879:./Drivers/STM32F1xx_HAL_Driver/Src/stm32f1xx_hal_flash_ex.c ****         /* Wait for last operation to be completed */
 880:./Drivers/STM32F1xx_HAL_Driver/Src/stm32f1xx_hal_flash_ex.c ****         status = FLASH_WaitForLastOperation((uint32_t)FLASH_TIMEOUT_VALUE);
 881:./Drivers/STM32F1xx_HAL_Driver/Src/stm32f1xx_hal_flash_ex.c ****       }
 882:./Drivers/STM32F1xx_HAL_Driver/Src/stm32f1xx_hal_flash_ex.c **** #endif /* FLASH_WRP3_WRP3 */
 883:./Drivers/STM32F1xx_HAL_Driver/Src/stm32f1xx_hal_flash_ex.c **** 
 884:./Drivers/STM32F1xx_HAL_Driver/Src/stm32f1xx_hal_flash_ex.c ****       /* if the program operation is completed, disable the OPTPG Bit */
 885:./Drivers/STM32F1xx_HAL_Driver/Src/stm32f1xx_hal_flash_ex.c ****       CLEAR_BIT(FLASH->CR, FLASH_CR_OPTPG);
 886:./Drivers/STM32F1xx_HAL_Driver/Src/stm32f1xx_hal_flash_ex.c ****     }
 887:./Drivers/STM32F1xx_HAL_Driver/Src/stm32f1xx_hal_flash_ex.c ****   }
 888:./Drivers/STM32F1xx_HAL_Driver/Src/stm32f1xx_hal_flash_ex.c ****   return status;
 889:./Drivers/STM32F1xx_HAL_Driver/Src/stm32f1xx_hal_flash_ex.c **** }
 890:./Drivers/STM32F1xx_HAL_Driver/Src/stm32f1xx_hal_flash_ex.c **** 
 891:./Drivers/STM32F1xx_HAL_Driver/Src/stm32f1xx_hal_flash_ex.c **** /**
 892:./Drivers/STM32F1xx_HAL_Driver/Src/stm32f1xx_hal_flash_ex.c ****   * @brief  Set the read protection level.
 893:./Drivers/STM32F1xx_HAL_Driver/Src/stm32f1xx_hal_flash_ex.c ****   * @param  ReadProtectLevel specifies the read protection level.
 894:./Drivers/STM32F1xx_HAL_Driver/Src/stm32f1xx_hal_flash_ex.c ****   *         This parameter can be one of the following values:
 895:./Drivers/STM32F1xx_HAL_Driver/Src/stm32f1xx_hal_flash_ex.c ****   *            @arg @ref OB_RDP_LEVEL_0 No protection
 896:./Drivers/STM32F1xx_HAL_Driver/Src/stm32f1xx_hal_flash_ex.c ****   *            @arg @ref OB_RDP_LEVEL_1 Read protection of the memory
 897:./Drivers/STM32F1xx_HAL_Driver/Src/stm32f1xx_hal_flash_ex.c ****   * @retval HAL status
 898:./Drivers/STM32F1xx_HAL_Driver/Src/stm32f1xx_hal_flash_ex.c ****   */
 899:./Drivers/STM32F1xx_HAL_Driver/Src/stm32f1xx_hal_flash_ex.c **** static HAL_StatusTypeDef FLASH_OB_RDP_LevelConfig(uint8_t ReadProtectLevel)
 900:./Drivers/STM32F1xx_HAL_Driver/Src/stm32f1xx_hal_flash_ex.c **** {
 901:./Drivers/STM32F1xx_HAL_Driver/Src/stm32f1xx_hal_flash_ex.c ****   HAL_StatusTypeDef status = HAL_OK;
 902:./Drivers/STM32F1xx_HAL_Driver/Src/stm32f1xx_hal_flash_ex.c ****   
 903:./Drivers/STM32F1xx_HAL_Driver/Src/stm32f1xx_hal_flash_ex.c ****   /* Check the parameters */
 904:./Drivers/STM32F1xx_HAL_Driver/Src/stm32f1xx_hal_flash_ex.c ****   assert_param(IS_OB_RDP_LEVEL(ReadProtectLevel));
 905:./Drivers/STM32F1xx_HAL_Driver/Src/stm32f1xx_hal_flash_ex.c ****   
 906:./Drivers/STM32F1xx_HAL_Driver/Src/stm32f1xx_hal_flash_ex.c ****   /* Wait for last operation to be completed */
 907:./Drivers/STM32F1xx_HAL_Driver/Src/stm32f1xx_hal_flash_ex.c ****   status = FLASH_WaitForLastOperation((uint32_t)FLASH_TIMEOUT_VALUE);
 908:./Drivers/STM32F1xx_HAL_Driver/Src/stm32f1xx_hal_flash_ex.c ****   
 909:./Drivers/STM32F1xx_HAL_Driver/Src/stm32f1xx_hal_flash_ex.c ****   if(status == HAL_OK)
 910:./Drivers/STM32F1xx_HAL_Driver/Src/stm32f1xx_hal_flash_ex.c ****   { 
 911:./Drivers/STM32F1xx_HAL_Driver/Src/stm32f1xx_hal_flash_ex.c ****     /* Clean the error context */
 912:./Drivers/STM32F1xx_HAL_Driver/Src/stm32f1xx_hal_flash_ex.c ****     pFlash.ErrorCode = HAL_FLASH_ERROR_NONE;
ARM GAS  /tmp/ccpVxzjx.s 			page 18


 913:./Drivers/STM32F1xx_HAL_Driver/Src/stm32f1xx_hal_flash_ex.c ****     
 914:./Drivers/STM32F1xx_HAL_Driver/Src/stm32f1xx_hal_flash_ex.c ****     /* If the previous operation is completed, proceed to erase the option bytes */
 915:./Drivers/STM32F1xx_HAL_Driver/Src/stm32f1xx_hal_flash_ex.c ****     SET_BIT(FLASH->CR, FLASH_CR_OPTER);
 916:./Drivers/STM32F1xx_HAL_Driver/Src/stm32f1xx_hal_flash_ex.c ****     SET_BIT(FLASH->CR, FLASH_CR_STRT);
 917:./Drivers/STM32F1xx_HAL_Driver/Src/stm32f1xx_hal_flash_ex.c **** 
 918:./Drivers/STM32F1xx_HAL_Driver/Src/stm32f1xx_hal_flash_ex.c ****     /* Wait for last operation to be completed */
 919:./Drivers/STM32F1xx_HAL_Driver/Src/stm32f1xx_hal_flash_ex.c ****     status = FLASH_WaitForLastOperation((uint32_t)FLASH_TIMEOUT_VALUE);
 920:./Drivers/STM32F1xx_HAL_Driver/Src/stm32f1xx_hal_flash_ex.c **** 
 921:./Drivers/STM32F1xx_HAL_Driver/Src/stm32f1xx_hal_flash_ex.c ****     /* If the erase operation is completed, disable the OPTER Bit */
 922:./Drivers/STM32F1xx_HAL_Driver/Src/stm32f1xx_hal_flash_ex.c ****     CLEAR_BIT(FLASH->CR, FLASH_CR_OPTER);
 923:./Drivers/STM32F1xx_HAL_Driver/Src/stm32f1xx_hal_flash_ex.c **** 
 924:./Drivers/STM32F1xx_HAL_Driver/Src/stm32f1xx_hal_flash_ex.c ****     if(status == HAL_OK)
 925:./Drivers/STM32F1xx_HAL_Driver/Src/stm32f1xx_hal_flash_ex.c ****     {
 926:./Drivers/STM32F1xx_HAL_Driver/Src/stm32f1xx_hal_flash_ex.c ****       /* Enable the Option Bytes Programming operation */
 927:./Drivers/STM32F1xx_HAL_Driver/Src/stm32f1xx_hal_flash_ex.c ****       SET_BIT(FLASH->CR, FLASH_CR_OPTPG);
 928:./Drivers/STM32F1xx_HAL_Driver/Src/stm32f1xx_hal_flash_ex.c ****       
 929:./Drivers/STM32F1xx_HAL_Driver/Src/stm32f1xx_hal_flash_ex.c ****       WRITE_REG(OB->RDP, ReadProtectLevel);
 930:./Drivers/STM32F1xx_HAL_Driver/Src/stm32f1xx_hal_flash_ex.c ****       
 931:./Drivers/STM32F1xx_HAL_Driver/Src/stm32f1xx_hal_flash_ex.c ****       /* Wait for last operation to be completed */
 932:./Drivers/STM32F1xx_HAL_Driver/Src/stm32f1xx_hal_flash_ex.c ****       status = FLASH_WaitForLastOperation((uint32_t)FLASH_TIMEOUT_VALUE); 
 933:./Drivers/STM32F1xx_HAL_Driver/Src/stm32f1xx_hal_flash_ex.c ****       
 934:./Drivers/STM32F1xx_HAL_Driver/Src/stm32f1xx_hal_flash_ex.c ****       /* if the program operation is completed, disable the OPTPG Bit */
 935:./Drivers/STM32F1xx_HAL_Driver/Src/stm32f1xx_hal_flash_ex.c ****       CLEAR_BIT(FLASH->CR, FLASH_CR_OPTPG);
 936:./Drivers/STM32F1xx_HAL_Driver/Src/stm32f1xx_hal_flash_ex.c ****     }
 937:./Drivers/STM32F1xx_HAL_Driver/Src/stm32f1xx_hal_flash_ex.c ****   }
 938:./Drivers/STM32F1xx_HAL_Driver/Src/stm32f1xx_hal_flash_ex.c ****   
 939:./Drivers/STM32F1xx_HAL_Driver/Src/stm32f1xx_hal_flash_ex.c ****   return status;
 940:./Drivers/STM32F1xx_HAL_Driver/Src/stm32f1xx_hal_flash_ex.c **** }
 941:./Drivers/STM32F1xx_HAL_Driver/Src/stm32f1xx_hal_flash_ex.c **** 
 942:./Drivers/STM32F1xx_HAL_Driver/Src/stm32f1xx_hal_flash_ex.c **** /**
 943:./Drivers/STM32F1xx_HAL_Driver/Src/stm32f1xx_hal_flash_ex.c ****   * @brief  Program the FLASH User Option Byte.    
 944:./Drivers/STM32F1xx_HAL_Driver/Src/stm32f1xx_hal_flash_ex.c ****   * @note   Programming of the OB should be performed only after an erase (otherwise PGERR occurs)
 945:./Drivers/STM32F1xx_HAL_Driver/Src/stm32f1xx_hal_flash_ex.c ****   * @param  UserConfig The FLASH User Option Bytes values FLASH_OBR_IWDG_SW(Bit2), 
 946:./Drivers/STM32F1xx_HAL_Driver/Src/stm32f1xx_hal_flash_ex.c ****   *         FLASH_OBR_nRST_STOP(Bit3),FLASH_OBR_nRST_STDBY(Bit4).
 947:./Drivers/STM32F1xx_HAL_Driver/Src/stm32f1xx_hal_flash_ex.c ****   *         And BFBF2(Bit5) for STM32F101xG and STM32F103xG . 
 948:./Drivers/STM32F1xx_HAL_Driver/Src/stm32f1xx_hal_flash_ex.c ****   * @retval HAL status
 949:./Drivers/STM32F1xx_HAL_Driver/Src/stm32f1xx_hal_flash_ex.c ****   */
 950:./Drivers/STM32F1xx_HAL_Driver/Src/stm32f1xx_hal_flash_ex.c **** static HAL_StatusTypeDef FLASH_OB_UserConfig(uint8_t UserConfig)
 951:./Drivers/STM32F1xx_HAL_Driver/Src/stm32f1xx_hal_flash_ex.c **** {
 952:./Drivers/STM32F1xx_HAL_Driver/Src/stm32f1xx_hal_flash_ex.c ****   HAL_StatusTypeDef status = HAL_OK;
 953:./Drivers/STM32F1xx_HAL_Driver/Src/stm32f1xx_hal_flash_ex.c **** 
 954:./Drivers/STM32F1xx_HAL_Driver/Src/stm32f1xx_hal_flash_ex.c ****   /* Check the parameters */
 955:./Drivers/STM32F1xx_HAL_Driver/Src/stm32f1xx_hal_flash_ex.c ****   assert_param(IS_OB_IWDG_SOURCE((UserConfig&OB_IWDG_SW)));
 956:./Drivers/STM32F1xx_HAL_Driver/Src/stm32f1xx_hal_flash_ex.c ****   assert_param(IS_OB_STOP_SOURCE((UserConfig&OB_STOP_NO_RST)));
 957:./Drivers/STM32F1xx_HAL_Driver/Src/stm32f1xx_hal_flash_ex.c ****   assert_param(IS_OB_STDBY_SOURCE((UserConfig&OB_STDBY_NO_RST)));
 958:./Drivers/STM32F1xx_HAL_Driver/Src/stm32f1xx_hal_flash_ex.c **** #if defined(FLASH_BANK2_END)
 959:./Drivers/STM32F1xx_HAL_Driver/Src/stm32f1xx_hal_flash_ex.c ****   assert_param(IS_OB_BOOT1((UserConfig&OB_BOOT1_SET)));
 960:./Drivers/STM32F1xx_HAL_Driver/Src/stm32f1xx_hal_flash_ex.c **** #endif /* FLASH_BANK2_END */
 961:./Drivers/STM32F1xx_HAL_Driver/Src/stm32f1xx_hal_flash_ex.c **** 
 962:./Drivers/STM32F1xx_HAL_Driver/Src/stm32f1xx_hal_flash_ex.c ****   /* Wait for last operation to be completed */
 963:./Drivers/STM32F1xx_HAL_Driver/Src/stm32f1xx_hal_flash_ex.c ****   status = FLASH_WaitForLastOperation((uint32_t)FLASH_TIMEOUT_VALUE);
 964:./Drivers/STM32F1xx_HAL_Driver/Src/stm32f1xx_hal_flash_ex.c ****   
 965:./Drivers/STM32F1xx_HAL_Driver/Src/stm32f1xx_hal_flash_ex.c ****   if(status == HAL_OK)
 966:./Drivers/STM32F1xx_HAL_Driver/Src/stm32f1xx_hal_flash_ex.c ****   {     
 967:./Drivers/STM32F1xx_HAL_Driver/Src/stm32f1xx_hal_flash_ex.c ****     /* Clean the error context */
 968:./Drivers/STM32F1xx_HAL_Driver/Src/stm32f1xx_hal_flash_ex.c ****     pFlash.ErrorCode = HAL_FLASH_ERROR_NONE;
 969:./Drivers/STM32F1xx_HAL_Driver/Src/stm32f1xx_hal_flash_ex.c **** 
ARM GAS  /tmp/ccpVxzjx.s 			page 19


 970:./Drivers/STM32F1xx_HAL_Driver/Src/stm32f1xx_hal_flash_ex.c ****     /* Enable the Option Bytes Programming operation */
 971:./Drivers/STM32F1xx_HAL_Driver/Src/stm32f1xx_hal_flash_ex.c ****     SET_BIT(FLASH->CR, FLASH_CR_OPTPG); 
 972:./Drivers/STM32F1xx_HAL_Driver/Src/stm32f1xx_hal_flash_ex.c ****  
 973:./Drivers/STM32F1xx_HAL_Driver/Src/stm32f1xx_hal_flash_ex.c **** #if defined(FLASH_BANK2_END)
 974:./Drivers/STM32F1xx_HAL_Driver/Src/stm32f1xx_hal_flash_ex.c ****     OB->USER = (UserConfig | 0xF0);
 975:./Drivers/STM32F1xx_HAL_Driver/Src/stm32f1xx_hal_flash_ex.c **** #else
 976:./Drivers/STM32F1xx_HAL_Driver/Src/stm32f1xx_hal_flash_ex.c ****     OB->USER = (UserConfig | 0x88);
 977:./Drivers/STM32F1xx_HAL_Driver/Src/stm32f1xx_hal_flash_ex.c **** #endif /* FLASH_BANK2_END */
 978:./Drivers/STM32F1xx_HAL_Driver/Src/stm32f1xx_hal_flash_ex.c **** 
 979:./Drivers/STM32F1xx_HAL_Driver/Src/stm32f1xx_hal_flash_ex.c ****     /* Wait for last operation to be completed */
 980:./Drivers/STM32F1xx_HAL_Driver/Src/stm32f1xx_hal_flash_ex.c ****     status = FLASH_WaitForLastOperation((uint32_t)FLASH_TIMEOUT_VALUE);
 981:./Drivers/STM32F1xx_HAL_Driver/Src/stm32f1xx_hal_flash_ex.c **** 
 982:./Drivers/STM32F1xx_HAL_Driver/Src/stm32f1xx_hal_flash_ex.c ****     /* if the program operation is completed, disable the OPTPG Bit */
 983:./Drivers/STM32F1xx_HAL_Driver/Src/stm32f1xx_hal_flash_ex.c ****     CLEAR_BIT(FLASH->CR, FLASH_CR_OPTPG);
 984:./Drivers/STM32F1xx_HAL_Driver/Src/stm32f1xx_hal_flash_ex.c ****   }
 985:./Drivers/STM32F1xx_HAL_Driver/Src/stm32f1xx_hal_flash_ex.c ****   
 986:./Drivers/STM32F1xx_HAL_Driver/Src/stm32f1xx_hal_flash_ex.c ****   return status; 
 987:./Drivers/STM32F1xx_HAL_Driver/Src/stm32f1xx_hal_flash_ex.c **** }
 988:./Drivers/STM32F1xx_HAL_Driver/Src/stm32f1xx_hal_flash_ex.c **** 
 989:./Drivers/STM32F1xx_HAL_Driver/Src/stm32f1xx_hal_flash_ex.c **** /**
 990:./Drivers/STM32F1xx_HAL_Driver/Src/stm32f1xx_hal_flash_ex.c ****   * @brief  Programs a half word at a specified Option Byte Data address.
 991:./Drivers/STM32F1xx_HAL_Driver/Src/stm32f1xx_hal_flash_ex.c ****   * @note   The function @ref HAL_FLASH_Unlock() should be called before to unlock the FLASH interf
 992:./Drivers/STM32F1xx_HAL_Driver/Src/stm32f1xx_hal_flash_ex.c ****   *         The function @ref HAL_FLASH_OB_Unlock() should be called before to unlock the options b
 993:./Drivers/STM32F1xx_HAL_Driver/Src/stm32f1xx_hal_flash_ex.c ****   *         The function @ref HAL_FLASH_OB_Launch() should be called after to force the reload of t
 994:./Drivers/STM32F1xx_HAL_Driver/Src/stm32f1xx_hal_flash_ex.c ****   *         (system reset will occur)
 995:./Drivers/STM32F1xx_HAL_Driver/Src/stm32f1xx_hal_flash_ex.c ****   *         Programming of the OB should be performed only after an erase (otherwise PGERR occurs)
 996:./Drivers/STM32F1xx_HAL_Driver/Src/stm32f1xx_hal_flash_ex.c ****   * @param  Address specifies the address to be programmed.
 997:./Drivers/STM32F1xx_HAL_Driver/Src/stm32f1xx_hal_flash_ex.c ****   *         This parameter can be 0x1FFFF804 or 0x1FFFF806. 
 998:./Drivers/STM32F1xx_HAL_Driver/Src/stm32f1xx_hal_flash_ex.c ****   * @param  Data specifies the data to be programmed.
 999:./Drivers/STM32F1xx_HAL_Driver/Src/stm32f1xx_hal_flash_ex.c ****   * @retval HAL status
1000:./Drivers/STM32F1xx_HAL_Driver/Src/stm32f1xx_hal_flash_ex.c ****   */
1001:./Drivers/STM32F1xx_HAL_Driver/Src/stm32f1xx_hal_flash_ex.c **** static HAL_StatusTypeDef FLASH_OB_ProgramData(uint32_t Address, uint8_t Data)
1002:./Drivers/STM32F1xx_HAL_Driver/Src/stm32f1xx_hal_flash_ex.c **** {
1003:./Drivers/STM32F1xx_HAL_Driver/Src/stm32f1xx_hal_flash_ex.c ****   HAL_StatusTypeDef status = HAL_ERROR;
1004:./Drivers/STM32F1xx_HAL_Driver/Src/stm32f1xx_hal_flash_ex.c ****   
1005:./Drivers/STM32F1xx_HAL_Driver/Src/stm32f1xx_hal_flash_ex.c ****   /* Check the parameters */
1006:./Drivers/STM32F1xx_HAL_Driver/Src/stm32f1xx_hal_flash_ex.c ****   assert_param(IS_OB_DATA_ADDRESS(Address));
1007:./Drivers/STM32F1xx_HAL_Driver/Src/stm32f1xx_hal_flash_ex.c ****   
1008:./Drivers/STM32F1xx_HAL_Driver/Src/stm32f1xx_hal_flash_ex.c ****   /* Wait for last operation to be completed */
1009:./Drivers/STM32F1xx_HAL_Driver/Src/stm32f1xx_hal_flash_ex.c ****   status = FLASH_WaitForLastOperation((uint32_t)FLASH_TIMEOUT_VALUE);
1010:./Drivers/STM32F1xx_HAL_Driver/Src/stm32f1xx_hal_flash_ex.c ****   
1011:./Drivers/STM32F1xx_HAL_Driver/Src/stm32f1xx_hal_flash_ex.c ****   if(status == HAL_OK)
1012:./Drivers/STM32F1xx_HAL_Driver/Src/stm32f1xx_hal_flash_ex.c ****   {
1013:./Drivers/STM32F1xx_HAL_Driver/Src/stm32f1xx_hal_flash_ex.c ****     /* Clean the error context */
1014:./Drivers/STM32F1xx_HAL_Driver/Src/stm32f1xx_hal_flash_ex.c ****     pFlash.ErrorCode = HAL_FLASH_ERROR_NONE;
1015:./Drivers/STM32F1xx_HAL_Driver/Src/stm32f1xx_hal_flash_ex.c **** 
1016:./Drivers/STM32F1xx_HAL_Driver/Src/stm32f1xx_hal_flash_ex.c ****     /* Enables the Option Bytes Programming operation */
1017:./Drivers/STM32F1xx_HAL_Driver/Src/stm32f1xx_hal_flash_ex.c ****     SET_BIT(FLASH->CR, FLASH_CR_OPTPG); 
1018:./Drivers/STM32F1xx_HAL_Driver/Src/stm32f1xx_hal_flash_ex.c ****     *(__IO uint16_t*)Address = Data;
1019:./Drivers/STM32F1xx_HAL_Driver/Src/stm32f1xx_hal_flash_ex.c ****     
1020:./Drivers/STM32F1xx_HAL_Driver/Src/stm32f1xx_hal_flash_ex.c ****     /* Wait for last operation to be completed */
1021:./Drivers/STM32F1xx_HAL_Driver/Src/stm32f1xx_hal_flash_ex.c ****     status = FLASH_WaitForLastOperation((uint32_t)FLASH_TIMEOUT_VALUE);
1022:./Drivers/STM32F1xx_HAL_Driver/Src/stm32f1xx_hal_flash_ex.c ****     
1023:./Drivers/STM32F1xx_HAL_Driver/Src/stm32f1xx_hal_flash_ex.c ****     /* If the program operation is completed, disable the OPTPG Bit */
1024:./Drivers/STM32F1xx_HAL_Driver/Src/stm32f1xx_hal_flash_ex.c ****     CLEAR_BIT(FLASH->CR, FLASH_CR_OPTPG);
1025:./Drivers/STM32F1xx_HAL_Driver/Src/stm32f1xx_hal_flash_ex.c ****   }
1026:./Drivers/STM32F1xx_HAL_Driver/Src/stm32f1xx_hal_flash_ex.c ****   /* Return the Option Byte Data Program Status */
ARM GAS  /tmp/ccpVxzjx.s 			page 20


1027:./Drivers/STM32F1xx_HAL_Driver/Src/stm32f1xx_hal_flash_ex.c ****   return status;
1028:./Drivers/STM32F1xx_HAL_Driver/Src/stm32f1xx_hal_flash_ex.c **** }
1029:./Drivers/STM32F1xx_HAL_Driver/Src/stm32f1xx_hal_flash_ex.c **** 
1030:./Drivers/STM32F1xx_HAL_Driver/Src/stm32f1xx_hal_flash_ex.c **** /**
1031:./Drivers/STM32F1xx_HAL_Driver/Src/stm32f1xx_hal_flash_ex.c ****   * @brief  Return the FLASH Write Protection Option Bytes value.
1032:./Drivers/STM32F1xx_HAL_Driver/Src/stm32f1xx_hal_flash_ex.c ****   * @retval The FLASH Write Protection Option Bytes value
1033:./Drivers/STM32F1xx_HAL_Driver/Src/stm32f1xx_hal_flash_ex.c ****   */
1034:./Drivers/STM32F1xx_HAL_Driver/Src/stm32f1xx_hal_flash_ex.c **** static uint32_t FLASH_OB_GetWRP(void)
1035:./Drivers/STM32F1xx_HAL_Driver/Src/stm32f1xx_hal_flash_ex.c **** {
  61              		.loc 1 1035 0
  62              		.cfi_startproc
  63              		@ args = 0, pretend = 0, frame = 0
  64              		@ frame_needed = 0, uses_anonymous_args = 0
  65              		@ link register save eliminated.
1036:./Drivers/STM32F1xx_HAL_Driver/Src/stm32f1xx_hal_flash_ex.c ****   /* Return the FLASH write protection Register value */
1037:./Drivers/STM32F1xx_HAL_Driver/Src/stm32f1xx_hal_flash_ex.c ****   return (uint32_t)(READ_REG(FLASH->WRPR));
  66              		.loc 1 1037 0
  67 0000 014B     		ldr	r3, .L5
  68 0002 186A     		ldr	r0, [r3, #32]
1038:./Drivers/STM32F1xx_HAL_Driver/Src/stm32f1xx_hal_flash_ex.c **** }
  69              		.loc 1 1038 0
  70 0004 7047     		bx	lr
  71              	.L6:
  72 0006 00BF     		.align	2
  73              	.L5:
  74 0008 00200240 		.word	1073881088
  75              		.cfi_endproc
  76              	.LFE75:
  78              		.section	.text.FLASH_OB_GetRDP,"ax",%progbits
  79              		.align	2
  80              		.thumb
  81              		.thumb_func
  83              	FLASH_OB_GetRDP:
  84              	.LFB76:
1039:./Drivers/STM32F1xx_HAL_Driver/Src/stm32f1xx_hal_flash_ex.c **** 
1040:./Drivers/STM32F1xx_HAL_Driver/Src/stm32f1xx_hal_flash_ex.c **** /**
1041:./Drivers/STM32F1xx_HAL_Driver/Src/stm32f1xx_hal_flash_ex.c ****   * @brief  Returns the FLASH Read Protection level.
1042:./Drivers/STM32F1xx_HAL_Driver/Src/stm32f1xx_hal_flash_ex.c ****   * @retval FLASH ReadOut Protection Status:
1043:./Drivers/STM32F1xx_HAL_Driver/Src/stm32f1xx_hal_flash_ex.c ****   *         This parameter can be one of the following values:
1044:./Drivers/STM32F1xx_HAL_Driver/Src/stm32f1xx_hal_flash_ex.c ****   *            @arg @ref OB_RDP_LEVEL_0 No protection
1045:./Drivers/STM32F1xx_HAL_Driver/Src/stm32f1xx_hal_flash_ex.c ****   *            @arg @ref OB_RDP_LEVEL_1 Read protection of the memory
1046:./Drivers/STM32F1xx_HAL_Driver/Src/stm32f1xx_hal_flash_ex.c ****   */
1047:./Drivers/STM32F1xx_HAL_Driver/Src/stm32f1xx_hal_flash_ex.c **** static uint32_t FLASH_OB_GetRDP(void)
1048:./Drivers/STM32F1xx_HAL_Driver/Src/stm32f1xx_hal_flash_ex.c **** {
  85              		.loc 1 1048 0
  86              		.cfi_startproc
  87              		@ args = 0, pretend = 0, frame = 0
  88              		@ frame_needed = 0, uses_anonymous_args = 0
  89              		@ link register save eliminated.
  90              	.LVL1:
1049:./Drivers/STM32F1xx_HAL_Driver/Src/stm32f1xx_hal_flash_ex.c ****   uint32_t readstatus = OB_RDP_LEVEL_0;
1050:./Drivers/STM32F1xx_HAL_Driver/Src/stm32f1xx_hal_flash_ex.c ****   uint32_t tmp_reg = 0;
1051:./Drivers/STM32F1xx_HAL_Driver/Src/stm32f1xx_hal_flash_ex.c ****   
1052:./Drivers/STM32F1xx_HAL_Driver/Src/stm32f1xx_hal_flash_ex.c ****   /* Read RDP level bits */
1053:./Drivers/STM32F1xx_HAL_Driver/Src/stm32f1xx_hal_flash_ex.c ****   tmp_reg = READ_BIT(FLASH->OBR, FLASH_OBR_RDPRT);
  91              		.loc 1 1053 0
  92 0000 044B     		ldr	r3, .L10
ARM GAS  /tmp/ccpVxzjx.s 			page 21


  93 0002 DB69     		ldr	r3, [r3, #28]
  94              	.LVL2:
1054:./Drivers/STM32F1xx_HAL_Driver/Src/stm32f1xx_hal_flash_ex.c **** 
1055:./Drivers/STM32F1xx_HAL_Driver/Src/stm32f1xx_hal_flash_ex.c ****   if (tmp_reg == FLASH_OBR_RDPRT)
  95              		.loc 1 1055 0
  96 0004 13F0020F 		tst	r3, #2
  97 0008 01D0     		beq	.L9
1056:./Drivers/STM32F1xx_HAL_Driver/Src/stm32f1xx_hal_flash_ex.c ****   {
1057:./Drivers/STM32F1xx_HAL_Driver/Src/stm32f1xx_hal_flash_ex.c ****     readstatus = OB_RDP_LEVEL_1;
  98              		.loc 1 1057 0
  99 000a 0020     		movs	r0, #0
 100 000c 7047     		bx	lr
 101              	.L9:
1058:./Drivers/STM32F1xx_HAL_Driver/Src/stm32f1xx_hal_flash_ex.c ****   }
1059:./Drivers/STM32F1xx_HAL_Driver/Src/stm32f1xx_hal_flash_ex.c ****   else 
1060:./Drivers/STM32F1xx_HAL_Driver/Src/stm32f1xx_hal_flash_ex.c ****   {
1061:./Drivers/STM32F1xx_HAL_Driver/Src/stm32f1xx_hal_flash_ex.c ****     readstatus = OB_RDP_LEVEL_0;
 102              		.loc 1 1061 0
 103 000e A520     		movs	r0, #165
 104              	.LVL3:
1062:./Drivers/STM32F1xx_HAL_Driver/Src/stm32f1xx_hal_flash_ex.c ****   }
1063:./Drivers/STM32F1xx_HAL_Driver/Src/stm32f1xx_hal_flash_ex.c **** 
1064:./Drivers/STM32F1xx_HAL_Driver/Src/stm32f1xx_hal_flash_ex.c ****   return readstatus;
1065:./Drivers/STM32F1xx_HAL_Driver/Src/stm32f1xx_hal_flash_ex.c **** }
 105              		.loc 1 1065 0
 106 0010 7047     		bx	lr
 107              	.L11:
 108 0012 00BF     		.align	2
 109              	.L10:
 110 0014 00200240 		.word	1073881088
 111              		.cfi_endproc
 112              	.LFE76:
 114              		.section	.text.FLASH_OB_RDP_LevelConfig,"ax",%progbits
 115              		.align	2
 116              		.thumb
 117              		.thumb_func
 119              	FLASH_OB_RDP_LevelConfig:
 120              	.LFB72:
 900:./Drivers/STM32F1xx_HAL_Driver/Src/stm32f1xx_hal_flash_ex.c ****   HAL_StatusTypeDef status = HAL_OK;
 121              		.loc 1 900 0
 122              		.cfi_startproc
 123              		@ args = 0, pretend = 0, frame = 0
 124              		@ frame_needed = 0, uses_anonymous_args = 0
 125              	.LVL4:
 126 0000 38B5     		push	{r3, r4, r5, lr}
 127              	.LCFI0:
 128              		.cfi_def_cfa_offset 16
 129              		.cfi_offset 3, -16
 130              		.cfi_offset 4, -12
 131              		.cfi_offset 5, -8
 132              		.cfi_offset 14, -4
 133 0002 0546     		mov	r5, r0
 134              	.LVL5:
 907:./Drivers/STM32F1xx_HAL_Driver/Src/stm32f1xx_hal_flash_ex.c ****   
 135              		.loc 1 907 0
 136 0004 4CF25030 		movw	r0, #50000
 137              	.LVL6:
ARM GAS  /tmp/ccpVxzjx.s 			page 22


 138 0008 FFF7FEFF 		bl	FLASH_WaitForLastOperation
 139              	.LVL7:
 909:./Drivers/STM32F1xx_HAL_Driver/Src/stm32f1xx_hal_flash_ex.c ****   { 
 140              		.loc 1 909 0
 141 000c 0346     		mov	r3, r0
 142 000e 28BB     		cbnz	r0, .L13
 912:./Drivers/STM32F1xx_HAL_Driver/Src/stm32f1xx_hal_flash_ex.c ****     
 143              		.loc 1 912 0
 144 0010 0022     		movs	r2, #0
 145 0012 134B     		ldr	r3, .L15
 146 0014 DA61     		str	r2, [r3, #28]
 915:./Drivers/STM32F1xx_HAL_Driver/Src/stm32f1xx_hal_flash_ex.c ****     SET_BIT(FLASH->CR, FLASH_CR_STRT);
 147              		.loc 1 915 0
 148 0016 134C     		ldr	r4, .L15+4
 149 0018 2369     		ldr	r3, [r4, #16]
 150 001a 43F02003 		orr	r3, r3, #32
 151 001e 2361     		str	r3, [r4, #16]
 916:./Drivers/STM32F1xx_HAL_Driver/Src/stm32f1xx_hal_flash_ex.c **** 
 152              		.loc 1 916 0
 153 0020 2369     		ldr	r3, [r4, #16]
 154 0022 43F04003 		orr	r3, r3, #64
 155 0026 2361     		str	r3, [r4, #16]
 919:./Drivers/STM32F1xx_HAL_Driver/Src/stm32f1xx_hal_flash_ex.c **** 
 156              		.loc 1 919 0
 157 0028 4CF25030 		movw	r0, #50000
 158              	.LVL8:
 159 002c FFF7FEFF 		bl	FLASH_WaitForLastOperation
 160              	.LVL9:
 922:./Drivers/STM32F1xx_HAL_Driver/Src/stm32f1xx_hal_flash_ex.c **** 
 161              		.loc 1 922 0
 162 0030 2369     		ldr	r3, [r4, #16]
 163 0032 23F02003 		bic	r3, r3, #32
 164 0036 2361     		str	r3, [r4, #16]
 924:./Drivers/STM32F1xx_HAL_Driver/Src/stm32f1xx_hal_flash_ex.c ****     {
 165              		.loc 1 924 0
 166 0038 0346     		mov	r3, r0
 167 003a 78B9     		cbnz	r0, .L13
 927:./Drivers/STM32F1xx_HAL_Driver/Src/stm32f1xx_hal_flash_ex.c ****       
 168              		.loc 1 927 0
 169 003c 2369     		ldr	r3, [r4, #16]
 170 003e 43F01003 		orr	r3, r3, #16
 171 0042 2361     		str	r3, [r4, #16]
 929:./Drivers/STM32F1xx_HAL_Driver/Src/stm32f1xx_hal_flash_ex.c ****       
 172              		.loc 1 929 0
 173 0044 ADB2     		uxth	r5, r5
 174 0046 084B     		ldr	r3, .L15+8
 175 0048 1D80     		strh	r5, [r3]	@ movhi
 932:./Drivers/STM32F1xx_HAL_Driver/Src/stm32f1xx_hal_flash_ex.c ****       
 176              		.loc 1 932 0
 177 004a 4CF25030 		movw	r0, #50000
 178              	.LVL10:
 179 004e FFF7FEFF 		bl	FLASH_WaitForLastOperation
 180              	.LVL11:
 181 0052 0346     		mov	r3, r0
 182              	.LVL12:
 935:./Drivers/STM32F1xx_HAL_Driver/Src/stm32f1xx_hal_flash_ex.c ****     }
 183              		.loc 1 935 0
ARM GAS  /tmp/ccpVxzjx.s 			page 23


 184 0054 2269     		ldr	r2, [r4, #16]
 185 0056 22F01002 		bic	r2, r2, #16
 186 005a 2261     		str	r2, [r4, #16]
 187              	.LVL13:
 188              	.L13:
 940:./Drivers/STM32F1xx_HAL_Driver/Src/stm32f1xx_hal_flash_ex.c **** 
 189              		.loc 1 940 0
 190 005c 1846     		mov	r0, r3
 191 005e 38BD     		pop	{r3, r4, r5, pc}
 192              	.LVL14:
 193              	.L16:
 194              		.align	2
 195              	.L15:
 196 0060 00000000 		.word	pFlash
 197 0064 00200240 		.word	1073881088
 198 0068 00F8FF1F 		.word	536868864
 199              		.cfi_endproc
 200              	.LFE72:
 202              		.section	.text.FLASH_OB_UserConfig,"ax",%progbits
 203              		.align	2
 204              		.thumb
 205              		.thumb_func
 207              	FLASH_OB_UserConfig:
 208              	.LFB73:
 951:./Drivers/STM32F1xx_HAL_Driver/Src/stm32f1xx_hal_flash_ex.c ****   HAL_StatusTypeDef status = HAL_OK;
 209              		.loc 1 951 0
 210              		.cfi_startproc
 211              		@ args = 0, pretend = 0, frame = 0
 212              		@ frame_needed = 0, uses_anonymous_args = 0
 213              	.LVL15:
 214 0000 38B5     		push	{r3, r4, r5, lr}
 215              	.LCFI1:
 216              		.cfi_def_cfa_offset 16
 217              		.cfi_offset 3, -16
 218              		.cfi_offset 4, -12
 219              		.cfi_offset 5, -8
 220              		.cfi_offset 14, -4
 221 0002 0446     		mov	r4, r0
 222              	.LVL16:
 963:./Drivers/STM32F1xx_HAL_Driver/Src/stm32f1xx_hal_flash_ex.c ****   
 223              		.loc 1 963 0
 224 0004 4CF25030 		movw	r0, #50000
 225              	.LVL17:
 226 0008 FFF7FEFF 		bl	FLASH_WaitForLastOperation
 227              	.LVL18:
 965:./Drivers/STM32F1xx_HAL_Driver/Src/stm32f1xx_hal_flash_ex.c ****   {     
 228              		.loc 1 965 0
 229 000c 0346     		mov	r3, r0
 230 000e A0B9     		cbnz	r0, .L18
 968:./Drivers/STM32F1xx_HAL_Driver/Src/stm32f1xx_hal_flash_ex.c **** 
 231              		.loc 1 968 0
 232 0010 0022     		movs	r2, #0
 233 0012 0B4B     		ldr	r3, .L20
 234 0014 DA61     		str	r2, [r3, #28]
 971:./Drivers/STM32F1xx_HAL_Driver/Src/stm32f1xx_hal_flash_ex.c ****  
 235              		.loc 1 971 0
 236 0016 0B4D     		ldr	r5, .L20+4
ARM GAS  /tmp/ccpVxzjx.s 			page 24


 237 0018 2B69     		ldr	r3, [r5, #16]
 238 001a 43F01003 		orr	r3, r3, #16
 239 001e 2B61     		str	r3, [r5, #16]
 976:./Drivers/STM32F1xx_HAL_Driver/Src/stm32f1xx_hal_flash_ex.c **** #endif /* FLASH_BANK2_END */
 240              		.loc 1 976 0
 241 0020 44F08804 		orr	r4, r4, #136
 242 0024 084B     		ldr	r3, .L20+8
 243 0026 5C80     		strh	r4, [r3, #2]	@ movhi
 980:./Drivers/STM32F1xx_HAL_Driver/Src/stm32f1xx_hal_flash_ex.c **** 
 244              		.loc 1 980 0
 245 0028 4CF25030 		movw	r0, #50000
 246              	.LVL19:
 247 002c FFF7FEFF 		bl	FLASH_WaitForLastOperation
 248              	.LVL20:
 249 0030 0346     		mov	r3, r0
 250              	.LVL21:
 983:./Drivers/STM32F1xx_HAL_Driver/Src/stm32f1xx_hal_flash_ex.c ****   }
 251              		.loc 1 983 0
 252 0032 2A69     		ldr	r2, [r5, #16]
 253 0034 22F01002 		bic	r2, r2, #16
 254 0038 2A61     		str	r2, [r5, #16]
 255              	.LVL22:
 256              	.L18:
 987:./Drivers/STM32F1xx_HAL_Driver/Src/stm32f1xx_hal_flash_ex.c **** 
 257              		.loc 1 987 0
 258 003a 1846     		mov	r0, r3
 259 003c 38BD     		pop	{r3, r4, r5, pc}
 260              	.LVL23:
 261              	.L21:
 262 003e 00BF     		.align	2
 263              	.L20:
 264 0040 00000000 		.word	pFlash
 265 0044 00200240 		.word	1073881088
 266 0048 00F8FF1F 		.word	536868864
 267              		.cfi_endproc
 268              	.LFE73:
 270              		.section	.text.FLASH_OB_ProgramData,"ax",%progbits
 271              		.align	2
 272              		.thumb
 273              		.thumb_func
 275              	FLASH_OB_ProgramData:
 276              	.LFB74:
1002:./Drivers/STM32F1xx_HAL_Driver/Src/stm32f1xx_hal_flash_ex.c ****   HAL_StatusTypeDef status = HAL_ERROR;
 277              		.loc 1 1002 0
 278              		.cfi_startproc
 279              		@ args = 0, pretend = 0, frame = 0
 280              		@ frame_needed = 0, uses_anonymous_args = 0
 281              	.LVL24:
 282 0000 70B5     		push	{r4, r5, r6, lr}
 283              	.LCFI2:
 284              		.cfi_def_cfa_offset 16
 285              		.cfi_offset 4, -16
 286              		.cfi_offset 5, -12
 287              		.cfi_offset 6, -8
 288              		.cfi_offset 14, -4
 289 0002 0646     		mov	r6, r0
 290 0004 0C46     		mov	r4, r1
ARM GAS  /tmp/ccpVxzjx.s 			page 25


 291              	.LVL25:
1009:./Drivers/STM32F1xx_HAL_Driver/Src/stm32f1xx_hal_flash_ex.c ****   
 292              		.loc 1 1009 0
 293 0006 4CF25030 		movw	r0, #50000
 294              	.LVL26:
 295 000a FFF7FEFF 		bl	FLASH_WaitForLastOperation
 296              	.LVL27:
1011:./Drivers/STM32F1xx_HAL_Driver/Src/stm32f1xx_hal_flash_ex.c ****   {
 297              		.loc 1 1011 0
 298 000e 0346     		mov	r3, r0
 299 0010 90B9     		cbnz	r0, .L23
1014:./Drivers/STM32F1xx_HAL_Driver/Src/stm32f1xx_hal_flash_ex.c **** 
 300              		.loc 1 1014 0
 301 0012 0022     		movs	r2, #0
 302 0014 094B     		ldr	r3, .L25
 303 0016 DA61     		str	r2, [r3, #28]
1017:./Drivers/STM32F1xx_HAL_Driver/Src/stm32f1xx_hal_flash_ex.c ****     *(__IO uint16_t*)Address = Data;
 304              		.loc 1 1017 0
 305 0018 094D     		ldr	r5, .L25+4
 306 001a 2B69     		ldr	r3, [r5, #16]
 307 001c 43F01003 		orr	r3, r3, #16
 308 0020 2B61     		str	r3, [r5, #16]
1018:./Drivers/STM32F1xx_HAL_Driver/Src/stm32f1xx_hal_flash_ex.c ****     
 309              		.loc 1 1018 0
 310 0022 A4B2     		uxth	r4, r4
 311 0024 3480     		strh	r4, [r6]	@ movhi
1021:./Drivers/STM32F1xx_HAL_Driver/Src/stm32f1xx_hal_flash_ex.c ****     
 312              		.loc 1 1021 0
 313 0026 4CF25030 		movw	r0, #50000
 314              	.LVL28:
 315 002a FFF7FEFF 		bl	FLASH_WaitForLastOperation
 316              	.LVL29:
 317 002e 0346     		mov	r3, r0
 318              	.LVL30:
1024:./Drivers/STM32F1xx_HAL_Driver/Src/stm32f1xx_hal_flash_ex.c ****   }
 319              		.loc 1 1024 0
 320 0030 2A69     		ldr	r2, [r5, #16]
 321 0032 22F01002 		bic	r2, r2, #16
 322 0036 2A61     		str	r2, [r5, #16]
 323              	.LVL31:
 324              	.L23:
1028:./Drivers/STM32F1xx_HAL_Driver/Src/stm32f1xx_hal_flash_ex.c **** 
 325              		.loc 1 1028 0
 326 0038 1846     		mov	r0, r3
 327 003a 70BD     		pop	{r4, r5, r6, pc}
 328              	.LVL32:
 329              	.L26:
 330              		.align	2
 331              	.L25:
 332 003c 00000000 		.word	pFlash
 333 0040 00200240 		.word	1073881088
 334              		.cfi_endproc
 335              	.LFE74:
 337              		.section	.text.FLASH_OB_GetUser,"ax",%progbits
 338              		.align	2
 339              		.thumb
 340              		.thumb_func
ARM GAS  /tmp/ccpVxzjx.s 			page 26


 342              	FLASH_OB_GetUser:
 343              	.LFB77:
1066:./Drivers/STM32F1xx_HAL_Driver/Src/stm32f1xx_hal_flash_ex.c **** 
1067:./Drivers/STM32F1xx_HAL_Driver/Src/stm32f1xx_hal_flash_ex.c **** /**
1068:./Drivers/STM32F1xx_HAL_Driver/Src/stm32f1xx_hal_flash_ex.c ****   * @brief  Return the FLASH User Option Byte value.
1069:./Drivers/STM32F1xx_HAL_Driver/Src/stm32f1xx_hal_flash_ex.c ****   * @retval The FLASH User Option Bytes values: FLASH_OBR_IWDG_SW(Bit2), 
1070:./Drivers/STM32F1xx_HAL_Driver/Src/stm32f1xx_hal_flash_ex.c ****   *         FLASH_OBR_nRST_STOP(Bit3),FLASH_OBR_nRST_STDBY(Bit4).
1071:./Drivers/STM32F1xx_HAL_Driver/Src/stm32f1xx_hal_flash_ex.c ****   *         And FLASH_OBR_BFB2(Bit5) for STM32F101xG and STM32F103xG . 
1072:./Drivers/STM32F1xx_HAL_Driver/Src/stm32f1xx_hal_flash_ex.c ****   */
1073:./Drivers/STM32F1xx_HAL_Driver/Src/stm32f1xx_hal_flash_ex.c **** static uint8_t FLASH_OB_GetUser(void)
1074:./Drivers/STM32F1xx_HAL_Driver/Src/stm32f1xx_hal_flash_ex.c **** {
 344              		.loc 1 1074 0
 345              		.cfi_startproc
 346              		@ args = 0, pretend = 0, frame = 0
 347              		@ frame_needed = 0, uses_anonymous_args = 0
 348              		@ link register save eliminated.
1075:./Drivers/STM32F1xx_HAL_Driver/Src/stm32f1xx_hal_flash_ex.c ****   /* Return the User Option Byte */
1076:./Drivers/STM32F1xx_HAL_Driver/Src/stm32f1xx_hal_flash_ex.c ****   return (uint8_t)((READ_REG(FLASH->OBR) & FLASH_OBR_USER) >> FLASH_POSITION_IWDGSW_BIT);
 349              		.loc 1 1076 0
 350 0000 054B     		ldr	r3, .L28
 351 0002 D869     		ldr	r0, [r3, #28]
 352 0004 00F01C00 		and	r0, r0, #28
 353              	.LVL33:
 354              	.LBB8:
 355              	.LBB9:
 356              		.file 2 "./Drivers/CMSIS/Include/cmsis_gcc.h"
   1:./Drivers/CMSIS/Include/cmsis_gcc.h **** /**************************************************************************//**
   2:./Drivers/CMSIS/Include/cmsis_gcc.h ****  * @file     cmsis_gcc.h
   3:./Drivers/CMSIS/Include/cmsis_gcc.h ****  * @brief    CMSIS Cortex-M Core Function/Instruction Header File
   4:./Drivers/CMSIS/Include/cmsis_gcc.h ****  * @version  V4.30
   5:./Drivers/CMSIS/Include/cmsis_gcc.h ****  * @date     20. October 2015
   6:./Drivers/CMSIS/Include/cmsis_gcc.h ****  ******************************************************************************/
   7:./Drivers/CMSIS/Include/cmsis_gcc.h **** /* Copyright (c) 2009 - 2015 ARM LIMITED
   8:./Drivers/CMSIS/Include/cmsis_gcc.h **** 
   9:./Drivers/CMSIS/Include/cmsis_gcc.h ****    All rights reserved.
  10:./Drivers/CMSIS/Include/cmsis_gcc.h ****    Redistribution and use in source and binary forms, with or without
  11:./Drivers/CMSIS/Include/cmsis_gcc.h ****    modification, are permitted provided that the following conditions are met:
  12:./Drivers/CMSIS/Include/cmsis_gcc.h ****    - Redistributions of source code must retain the above copyright
  13:./Drivers/CMSIS/Include/cmsis_gcc.h ****      notice, this list of conditions and the following disclaimer.
  14:./Drivers/CMSIS/Include/cmsis_gcc.h ****    - Redistributions in binary form must reproduce the above copyright
  15:./Drivers/CMSIS/Include/cmsis_gcc.h ****      notice, this list of conditions and the following disclaimer in the
  16:./Drivers/CMSIS/Include/cmsis_gcc.h ****      documentation and/or other materials provided with the distribution.
  17:./Drivers/CMSIS/Include/cmsis_gcc.h ****    - Neither the name of ARM nor the names of its contributors may be used
  18:./Drivers/CMSIS/Include/cmsis_gcc.h ****      to endorse or promote products derived from this software without
  19:./Drivers/CMSIS/Include/cmsis_gcc.h ****      specific prior written permission.
  20:./Drivers/CMSIS/Include/cmsis_gcc.h ****    *
  21:./Drivers/CMSIS/Include/cmsis_gcc.h ****    THIS SOFTWARE IS PROVIDED BY THE COPYRIGHT HOLDERS AND CONTRIBUTORS "AS IS"
  22:./Drivers/CMSIS/Include/cmsis_gcc.h ****    AND ANY EXPRESS OR IMPLIED WARRANTIES, INCLUDING, BUT NOT LIMITED TO, THE
  23:./Drivers/CMSIS/Include/cmsis_gcc.h ****    IMPLIED WARRANTIES OF MERCHANTABILITY AND FITNESS FOR A PARTICULAR PURPOSE
  24:./Drivers/CMSIS/Include/cmsis_gcc.h ****    ARE DISCLAIMED. IN NO EVENT SHALL COPYRIGHT HOLDERS AND CONTRIBUTORS BE
  25:./Drivers/CMSIS/Include/cmsis_gcc.h ****    LIABLE FOR ANY DIRECT, INDIRECT, INCIDENTAL, SPECIAL, EXEMPLARY, OR
  26:./Drivers/CMSIS/Include/cmsis_gcc.h ****    CONSEQUENTIAL DAMAGES (INCLUDING, BUT NOT LIMITED TO, PROCUREMENT OF
  27:./Drivers/CMSIS/Include/cmsis_gcc.h ****    SUBSTITUTE GOODS OR SERVICES; LOSS OF USE, DATA, OR PROFITS; OR BUSINESS
  28:./Drivers/CMSIS/Include/cmsis_gcc.h ****    INTERRUPTION) HOWEVER CAUSED AND ON ANY THEORY OF LIABILITY, WHETHER IN
  29:./Drivers/CMSIS/Include/cmsis_gcc.h ****    CONTRACT, STRICT LIABILITY, OR TORT (INCLUDING NEGLIGENCE OR OTHERWISE)
  30:./Drivers/CMSIS/Include/cmsis_gcc.h ****    ARISING IN ANY WAY OUT OF THE USE OF THIS SOFTWARE, EVEN IF ADVISED OF THE
  31:./Drivers/CMSIS/Include/cmsis_gcc.h ****    POSSIBILITY OF SUCH DAMAGE.
ARM GAS  /tmp/ccpVxzjx.s 			page 27


  32:./Drivers/CMSIS/Include/cmsis_gcc.h ****    ---------------------------------------------------------------------------*/
  33:./Drivers/CMSIS/Include/cmsis_gcc.h **** 
  34:./Drivers/CMSIS/Include/cmsis_gcc.h **** 
  35:./Drivers/CMSIS/Include/cmsis_gcc.h **** #ifndef __CMSIS_GCC_H
  36:./Drivers/CMSIS/Include/cmsis_gcc.h **** #define __CMSIS_GCC_H
  37:./Drivers/CMSIS/Include/cmsis_gcc.h **** 
  38:./Drivers/CMSIS/Include/cmsis_gcc.h **** /* ignore some GCC warnings */
  39:./Drivers/CMSIS/Include/cmsis_gcc.h **** #if defined ( __GNUC__ )
  40:./Drivers/CMSIS/Include/cmsis_gcc.h **** #pragma GCC diagnostic push
  41:./Drivers/CMSIS/Include/cmsis_gcc.h **** #pragma GCC diagnostic ignored "-Wsign-conversion"
  42:./Drivers/CMSIS/Include/cmsis_gcc.h **** #pragma GCC diagnostic ignored "-Wconversion"
  43:./Drivers/CMSIS/Include/cmsis_gcc.h **** #pragma GCC diagnostic ignored "-Wunused-parameter"
  44:./Drivers/CMSIS/Include/cmsis_gcc.h **** #endif
  45:./Drivers/CMSIS/Include/cmsis_gcc.h **** 
  46:./Drivers/CMSIS/Include/cmsis_gcc.h **** 
  47:./Drivers/CMSIS/Include/cmsis_gcc.h **** /* ###########################  Core Function Access  ########################### */
  48:./Drivers/CMSIS/Include/cmsis_gcc.h **** /** \ingroup  CMSIS_Core_FunctionInterface
  49:./Drivers/CMSIS/Include/cmsis_gcc.h ****     \defgroup CMSIS_Core_RegAccFunctions CMSIS Core Register Access Functions
  50:./Drivers/CMSIS/Include/cmsis_gcc.h ****   @{
  51:./Drivers/CMSIS/Include/cmsis_gcc.h ****  */
  52:./Drivers/CMSIS/Include/cmsis_gcc.h **** 
  53:./Drivers/CMSIS/Include/cmsis_gcc.h **** /**
  54:./Drivers/CMSIS/Include/cmsis_gcc.h ****   \brief   Enable IRQ Interrupts
  55:./Drivers/CMSIS/Include/cmsis_gcc.h ****   \details Enables IRQ interrupts by clearing the I-bit in the CPSR.
  56:./Drivers/CMSIS/Include/cmsis_gcc.h ****            Can only be executed in Privileged modes.
  57:./Drivers/CMSIS/Include/cmsis_gcc.h ****  */
  58:./Drivers/CMSIS/Include/cmsis_gcc.h **** __attribute__( ( always_inline ) ) __STATIC_INLINE void __enable_irq(void)
  59:./Drivers/CMSIS/Include/cmsis_gcc.h **** {
  60:./Drivers/CMSIS/Include/cmsis_gcc.h ****   __ASM volatile ("cpsie i" : : : "memory");
  61:./Drivers/CMSIS/Include/cmsis_gcc.h **** }
  62:./Drivers/CMSIS/Include/cmsis_gcc.h **** 
  63:./Drivers/CMSIS/Include/cmsis_gcc.h **** 
  64:./Drivers/CMSIS/Include/cmsis_gcc.h **** /**
  65:./Drivers/CMSIS/Include/cmsis_gcc.h ****   \brief   Disable IRQ Interrupts
  66:./Drivers/CMSIS/Include/cmsis_gcc.h ****   \details Disables IRQ interrupts by setting the I-bit in the CPSR.
  67:./Drivers/CMSIS/Include/cmsis_gcc.h ****   Can only be executed in Privileged modes.
  68:./Drivers/CMSIS/Include/cmsis_gcc.h ****  */
  69:./Drivers/CMSIS/Include/cmsis_gcc.h **** __attribute__( ( always_inline ) ) __STATIC_INLINE void __disable_irq(void)
  70:./Drivers/CMSIS/Include/cmsis_gcc.h **** {
  71:./Drivers/CMSIS/Include/cmsis_gcc.h ****   __ASM volatile ("cpsid i" : : : "memory");
  72:./Drivers/CMSIS/Include/cmsis_gcc.h **** }
  73:./Drivers/CMSIS/Include/cmsis_gcc.h **** 
  74:./Drivers/CMSIS/Include/cmsis_gcc.h **** 
  75:./Drivers/CMSIS/Include/cmsis_gcc.h **** /**
  76:./Drivers/CMSIS/Include/cmsis_gcc.h ****   \brief   Get Control Register
  77:./Drivers/CMSIS/Include/cmsis_gcc.h ****   \details Returns the content of the Control Register.
  78:./Drivers/CMSIS/Include/cmsis_gcc.h ****   \return               Control Register value
  79:./Drivers/CMSIS/Include/cmsis_gcc.h ****  */
  80:./Drivers/CMSIS/Include/cmsis_gcc.h **** __attribute__( ( always_inline ) ) __STATIC_INLINE uint32_t __get_CONTROL(void)
  81:./Drivers/CMSIS/Include/cmsis_gcc.h **** {
  82:./Drivers/CMSIS/Include/cmsis_gcc.h ****   uint32_t result;
  83:./Drivers/CMSIS/Include/cmsis_gcc.h **** 
  84:./Drivers/CMSIS/Include/cmsis_gcc.h ****   __ASM volatile ("MRS %0, control" : "=r" (result) );
  85:./Drivers/CMSIS/Include/cmsis_gcc.h ****   return(result);
  86:./Drivers/CMSIS/Include/cmsis_gcc.h **** }
  87:./Drivers/CMSIS/Include/cmsis_gcc.h **** 
  88:./Drivers/CMSIS/Include/cmsis_gcc.h **** 
ARM GAS  /tmp/ccpVxzjx.s 			page 28


  89:./Drivers/CMSIS/Include/cmsis_gcc.h **** /**
  90:./Drivers/CMSIS/Include/cmsis_gcc.h ****   \brief   Set Control Register
  91:./Drivers/CMSIS/Include/cmsis_gcc.h ****   \details Writes the given value to the Control Register.
  92:./Drivers/CMSIS/Include/cmsis_gcc.h ****   \param [in]    control  Control Register value to set
  93:./Drivers/CMSIS/Include/cmsis_gcc.h ****  */
  94:./Drivers/CMSIS/Include/cmsis_gcc.h **** __attribute__( ( always_inline ) ) __STATIC_INLINE void __set_CONTROL(uint32_t control)
  95:./Drivers/CMSIS/Include/cmsis_gcc.h **** {
  96:./Drivers/CMSIS/Include/cmsis_gcc.h ****   __ASM volatile ("MSR control, %0" : : "r" (control) : "memory");
  97:./Drivers/CMSIS/Include/cmsis_gcc.h **** }
  98:./Drivers/CMSIS/Include/cmsis_gcc.h **** 
  99:./Drivers/CMSIS/Include/cmsis_gcc.h **** 
 100:./Drivers/CMSIS/Include/cmsis_gcc.h **** /**
 101:./Drivers/CMSIS/Include/cmsis_gcc.h ****   \brief   Get IPSR Register
 102:./Drivers/CMSIS/Include/cmsis_gcc.h ****   \details Returns the content of the IPSR Register.
 103:./Drivers/CMSIS/Include/cmsis_gcc.h ****   \return               IPSR Register value
 104:./Drivers/CMSIS/Include/cmsis_gcc.h ****  */
 105:./Drivers/CMSIS/Include/cmsis_gcc.h **** __attribute__( ( always_inline ) ) __STATIC_INLINE uint32_t __get_IPSR(void)
 106:./Drivers/CMSIS/Include/cmsis_gcc.h **** {
 107:./Drivers/CMSIS/Include/cmsis_gcc.h ****   uint32_t result;
 108:./Drivers/CMSIS/Include/cmsis_gcc.h **** 
 109:./Drivers/CMSIS/Include/cmsis_gcc.h ****   __ASM volatile ("MRS %0, ipsr" : "=r" (result) );
 110:./Drivers/CMSIS/Include/cmsis_gcc.h ****   return(result);
 111:./Drivers/CMSIS/Include/cmsis_gcc.h **** }
 112:./Drivers/CMSIS/Include/cmsis_gcc.h **** 
 113:./Drivers/CMSIS/Include/cmsis_gcc.h **** 
 114:./Drivers/CMSIS/Include/cmsis_gcc.h **** /**
 115:./Drivers/CMSIS/Include/cmsis_gcc.h ****   \brief   Get APSR Register
 116:./Drivers/CMSIS/Include/cmsis_gcc.h ****   \details Returns the content of the APSR Register.
 117:./Drivers/CMSIS/Include/cmsis_gcc.h ****   \return               APSR Register value
 118:./Drivers/CMSIS/Include/cmsis_gcc.h ****  */
 119:./Drivers/CMSIS/Include/cmsis_gcc.h **** __attribute__( ( always_inline ) ) __STATIC_INLINE uint32_t __get_APSR(void)
 120:./Drivers/CMSIS/Include/cmsis_gcc.h **** {
 121:./Drivers/CMSIS/Include/cmsis_gcc.h ****   uint32_t result;
 122:./Drivers/CMSIS/Include/cmsis_gcc.h **** 
 123:./Drivers/CMSIS/Include/cmsis_gcc.h ****   __ASM volatile ("MRS %0, apsr" : "=r" (result) );
 124:./Drivers/CMSIS/Include/cmsis_gcc.h ****   return(result);
 125:./Drivers/CMSIS/Include/cmsis_gcc.h **** }
 126:./Drivers/CMSIS/Include/cmsis_gcc.h **** 
 127:./Drivers/CMSIS/Include/cmsis_gcc.h **** 
 128:./Drivers/CMSIS/Include/cmsis_gcc.h **** /**
 129:./Drivers/CMSIS/Include/cmsis_gcc.h ****   \brief   Get xPSR Register
 130:./Drivers/CMSIS/Include/cmsis_gcc.h ****   \details Returns the content of the xPSR Register.
 131:./Drivers/CMSIS/Include/cmsis_gcc.h **** 
 132:./Drivers/CMSIS/Include/cmsis_gcc.h ****     \return               xPSR Register value
 133:./Drivers/CMSIS/Include/cmsis_gcc.h ****  */
 134:./Drivers/CMSIS/Include/cmsis_gcc.h **** __attribute__( ( always_inline ) ) __STATIC_INLINE uint32_t __get_xPSR(void)
 135:./Drivers/CMSIS/Include/cmsis_gcc.h **** {
 136:./Drivers/CMSIS/Include/cmsis_gcc.h ****   uint32_t result;
 137:./Drivers/CMSIS/Include/cmsis_gcc.h **** 
 138:./Drivers/CMSIS/Include/cmsis_gcc.h ****   __ASM volatile ("MRS %0, xpsr" : "=r" (result) );
 139:./Drivers/CMSIS/Include/cmsis_gcc.h ****   return(result);
 140:./Drivers/CMSIS/Include/cmsis_gcc.h **** }
 141:./Drivers/CMSIS/Include/cmsis_gcc.h **** 
 142:./Drivers/CMSIS/Include/cmsis_gcc.h **** 
 143:./Drivers/CMSIS/Include/cmsis_gcc.h **** /**
 144:./Drivers/CMSIS/Include/cmsis_gcc.h ****   \brief   Get Process Stack Pointer
 145:./Drivers/CMSIS/Include/cmsis_gcc.h ****   \details Returns the current value of the Process Stack Pointer (PSP).
ARM GAS  /tmp/ccpVxzjx.s 			page 29


 146:./Drivers/CMSIS/Include/cmsis_gcc.h ****   \return               PSP Register value
 147:./Drivers/CMSIS/Include/cmsis_gcc.h ****  */
 148:./Drivers/CMSIS/Include/cmsis_gcc.h **** __attribute__( ( always_inline ) ) __STATIC_INLINE uint32_t __get_PSP(void)
 149:./Drivers/CMSIS/Include/cmsis_gcc.h **** {
 150:./Drivers/CMSIS/Include/cmsis_gcc.h ****   register uint32_t result;
 151:./Drivers/CMSIS/Include/cmsis_gcc.h **** 
 152:./Drivers/CMSIS/Include/cmsis_gcc.h ****   __ASM volatile ("MRS %0, psp\n"  : "=r" (result) );
 153:./Drivers/CMSIS/Include/cmsis_gcc.h ****   return(result);
 154:./Drivers/CMSIS/Include/cmsis_gcc.h **** }
 155:./Drivers/CMSIS/Include/cmsis_gcc.h **** 
 156:./Drivers/CMSIS/Include/cmsis_gcc.h **** 
 157:./Drivers/CMSIS/Include/cmsis_gcc.h **** /**
 158:./Drivers/CMSIS/Include/cmsis_gcc.h ****   \brief   Set Process Stack Pointer
 159:./Drivers/CMSIS/Include/cmsis_gcc.h ****   \details Assigns the given value to the Process Stack Pointer (PSP).
 160:./Drivers/CMSIS/Include/cmsis_gcc.h ****   \param [in]    topOfProcStack  Process Stack Pointer value to set
 161:./Drivers/CMSIS/Include/cmsis_gcc.h ****  */
 162:./Drivers/CMSIS/Include/cmsis_gcc.h **** __attribute__( ( always_inline ) ) __STATIC_INLINE void __set_PSP(uint32_t topOfProcStack)
 163:./Drivers/CMSIS/Include/cmsis_gcc.h **** {
 164:./Drivers/CMSIS/Include/cmsis_gcc.h ****   __ASM volatile ("MSR psp, %0\n" : : "r" (topOfProcStack) : "sp");
 165:./Drivers/CMSIS/Include/cmsis_gcc.h **** }
 166:./Drivers/CMSIS/Include/cmsis_gcc.h **** 
 167:./Drivers/CMSIS/Include/cmsis_gcc.h **** 
 168:./Drivers/CMSIS/Include/cmsis_gcc.h **** /**
 169:./Drivers/CMSIS/Include/cmsis_gcc.h ****   \brief   Get Main Stack Pointer
 170:./Drivers/CMSIS/Include/cmsis_gcc.h ****   \details Returns the current value of the Main Stack Pointer (MSP).
 171:./Drivers/CMSIS/Include/cmsis_gcc.h ****   \return               MSP Register value
 172:./Drivers/CMSIS/Include/cmsis_gcc.h ****  */
 173:./Drivers/CMSIS/Include/cmsis_gcc.h **** __attribute__( ( always_inline ) ) __STATIC_INLINE uint32_t __get_MSP(void)
 174:./Drivers/CMSIS/Include/cmsis_gcc.h **** {
 175:./Drivers/CMSIS/Include/cmsis_gcc.h ****   register uint32_t result;
 176:./Drivers/CMSIS/Include/cmsis_gcc.h **** 
 177:./Drivers/CMSIS/Include/cmsis_gcc.h ****   __ASM volatile ("MRS %0, msp\n" : "=r" (result) );
 178:./Drivers/CMSIS/Include/cmsis_gcc.h ****   return(result);
 179:./Drivers/CMSIS/Include/cmsis_gcc.h **** }
 180:./Drivers/CMSIS/Include/cmsis_gcc.h **** 
 181:./Drivers/CMSIS/Include/cmsis_gcc.h **** 
 182:./Drivers/CMSIS/Include/cmsis_gcc.h **** /**
 183:./Drivers/CMSIS/Include/cmsis_gcc.h ****   \brief   Set Main Stack Pointer
 184:./Drivers/CMSIS/Include/cmsis_gcc.h ****   \details Assigns the given value to the Main Stack Pointer (MSP).
 185:./Drivers/CMSIS/Include/cmsis_gcc.h **** 
 186:./Drivers/CMSIS/Include/cmsis_gcc.h ****     \param [in]    topOfMainStack  Main Stack Pointer value to set
 187:./Drivers/CMSIS/Include/cmsis_gcc.h ****  */
 188:./Drivers/CMSIS/Include/cmsis_gcc.h **** __attribute__( ( always_inline ) ) __STATIC_INLINE void __set_MSP(uint32_t topOfMainStack)
 189:./Drivers/CMSIS/Include/cmsis_gcc.h **** {
 190:./Drivers/CMSIS/Include/cmsis_gcc.h ****   __ASM volatile ("MSR msp, %0\n" : : "r" (topOfMainStack) : "sp");
 191:./Drivers/CMSIS/Include/cmsis_gcc.h **** }
 192:./Drivers/CMSIS/Include/cmsis_gcc.h **** 
 193:./Drivers/CMSIS/Include/cmsis_gcc.h **** 
 194:./Drivers/CMSIS/Include/cmsis_gcc.h **** /**
 195:./Drivers/CMSIS/Include/cmsis_gcc.h ****   \brief   Get Priority Mask
 196:./Drivers/CMSIS/Include/cmsis_gcc.h ****   \details Returns the current state of the priority mask bit from the Priority Mask Register.
 197:./Drivers/CMSIS/Include/cmsis_gcc.h ****   \return               Priority Mask value
 198:./Drivers/CMSIS/Include/cmsis_gcc.h ****  */
 199:./Drivers/CMSIS/Include/cmsis_gcc.h **** __attribute__( ( always_inline ) ) __STATIC_INLINE uint32_t __get_PRIMASK(void)
 200:./Drivers/CMSIS/Include/cmsis_gcc.h **** {
 201:./Drivers/CMSIS/Include/cmsis_gcc.h ****   uint32_t result;
 202:./Drivers/CMSIS/Include/cmsis_gcc.h **** 
ARM GAS  /tmp/ccpVxzjx.s 			page 30


 203:./Drivers/CMSIS/Include/cmsis_gcc.h ****   __ASM volatile ("MRS %0, primask" : "=r" (result) );
 204:./Drivers/CMSIS/Include/cmsis_gcc.h ****   return(result);
 205:./Drivers/CMSIS/Include/cmsis_gcc.h **** }
 206:./Drivers/CMSIS/Include/cmsis_gcc.h **** 
 207:./Drivers/CMSIS/Include/cmsis_gcc.h **** 
 208:./Drivers/CMSIS/Include/cmsis_gcc.h **** /**
 209:./Drivers/CMSIS/Include/cmsis_gcc.h ****   \brief   Set Priority Mask
 210:./Drivers/CMSIS/Include/cmsis_gcc.h ****   \details Assigns the given value to the Priority Mask Register.
 211:./Drivers/CMSIS/Include/cmsis_gcc.h ****   \param [in]    priMask  Priority Mask
 212:./Drivers/CMSIS/Include/cmsis_gcc.h ****  */
 213:./Drivers/CMSIS/Include/cmsis_gcc.h **** __attribute__( ( always_inline ) ) __STATIC_INLINE void __set_PRIMASK(uint32_t priMask)
 214:./Drivers/CMSIS/Include/cmsis_gcc.h **** {
 215:./Drivers/CMSIS/Include/cmsis_gcc.h ****   __ASM volatile ("MSR primask, %0" : : "r" (priMask) : "memory");
 216:./Drivers/CMSIS/Include/cmsis_gcc.h **** }
 217:./Drivers/CMSIS/Include/cmsis_gcc.h **** 
 218:./Drivers/CMSIS/Include/cmsis_gcc.h **** 
 219:./Drivers/CMSIS/Include/cmsis_gcc.h **** #if       (__CORTEX_M >= 0x03U)
 220:./Drivers/CMSIS/Include/cmsis_gcc.h **** 
 221:./Drivers/CMSIS/Include/cmsis_gcc.h **** /**
 222:./Drivers/CMSIS/Include/cmsis_gcc.h ****   \brief   Enable FIQ
 223:./Drivers/CMSIS/Include/cmsis_gcc.h ****   \details Enables FIQ interrupts by clearing the F-bit in the CPSR.
 224:./Drivers/CMSIS/Include/cmsis_gcc.h ****            Can only be executed in Privileged modes.
 225:./Drivers/CMSIS/Include/cmsis_gcc.h ****  */
 226:./Drivers/CMSIS/Include/cmsis_gcc.h **** __attribute__( ( always_inline ) ) __STATIC_INLINE void __enable_fault_irq(void)
 227:./Drivers/CMSIS/Include/cmsis_gcc.h **** {
 228:./Drivers/CMSIS/Include/cmsis_gcc.h ****   __ASM volatile ("cpsie f" : : : "memory");
 229:./Drivers/CMSIS/Include/cmsis_gcc.h **** }
 230:./Drivers/CMSIS/Include/cmsis_gcc.h **** 
 231:./Drivers/CMSIS/Include/cmsis_gcc.h **** 
 232:./Drivers/CMSIS/Include/cmsis_gcc.h **** /**
 233:./Drivers/CMSIS/Include/cmsis_gcc.h ****   \brief   Disable FIQ
 234:./Drivers/CMSIS/Include/cmsis_gcc.h ****   \details Disables FIQ interrupts by setting the F-bit in the CPSR.
 235:./Drivers/CMSIS/Include/cmsis_gcc.h ****            Can only be executed in Privileged modes.
 236:./Drivers/CMSIS/Include/cmsis_gcc.h ****  */
 237:./Drivers/CMSIS/Include/cmsis_gcc.h **** __attribute__( ( always_inline ) ) __STATIC_INLINE void __disable_fault_irq(void)
 238:./Drivers/CMSIS/Include/cmsis_gcc.h **** {
 239:./Drivers/CMSIS/Include/cmsis_gcc.h ****   __ASM volatile ("cpsid f" : : : "memory");
 240:./Drivers/CMSIS/Include/cmsis_gcc.h **** }
 241:./Drivers/CMSIS/Include/cmsis_gcc.h **** 
 242:./Drivers/CMSIS/Include/cmsis_gcc.h **** 
 243:./Drivers/CMSIS/Include/cmsis_gcc.h **** /**
 244:./Drivers/CMSIS/Include/cmsis_gcc.h ****   \brief   Get Base Priority
 245:./Drivers/CMSIS/Include/cmsis_gcc.h ****   \details Returns the current value of the Base Priority register.
 246:./Drivers/CMSIS/Include/cmsis_gcc.h ****   \return               Base Priority register value
 247:./Drivers/CMSIS/Include/cmsis_gcc.h ****  */
 248:./Drivers/CMSIS/Include/cmsis_gcc.h **** __attribute__( ( always_inline ) ) __STATIC_INLINE uint32_t __get_BASEPRI(void)
 249:./Drivers/CMSIS/Include/cmsis_gcc.h **** {
 250:./Drivers/CMSIS/Include/cmsis_gcc.h ****   uint32_t result;
 251:./Drivers/CMSIS/Include/cmsis_gcc.h **** 
 252:./Drivers/CMSIS/Include/cmsis_gcc.h ****   __ASM volatile ("MRS %0, basepri" : "=r" (result) );
 253:./Drivers/CMSIS/Include/cmsis_gcc.h ****   return(result);
 254:./Drivers/CMSIS/Include/cmsis_gcc.h **** }
 255:./Drivers/CMSIS/Include/cmsis_gcc.h **** 
 256:./Drivers/CMSIS/Include/cmsis_gcc.h **** 
 257:./Drivers/CMSIS/Include/cmsis_gcc.h **** /**
 258:./Drivers/CMSIS/Include/cmsis_gcc.h ****   \brief   Set Base Priority
 259:./Drivers/CMSIS/Include/cmsis_gcc.h ****   \details Assigns the given value to the Base Priority register.
ARM GAS  /tmp/ccpVxzjx.s 			page 31


 260:./Drivers/CMSIS/Include/cmsis_gcc.h ****   \param [in]    basePri  Base Priority value to set
 261:./Drivers/CMSIS/Include/cmsis_gcc.h ****  */
 262:./Drivers/CMSIS/Include/cmsis_gcc.h **** __attribute__( ( always_inline ) ) __STATIC_INLINE void __set_BASEPRI(uint32_t value)
 263:./Drivers/CMSIS/Include/cmsis_gcc.h **** {
 264:./Drivers/CMSIS/Include/cmsis_gcc.h ****   __ASM volatile ("MSR basepri, %0" : : "r" (value) : "memory");
 265:./Drivers/CMSIS/Include/cmsis_gcc.h **** }
 266:./Drivers/CMSIS/Include/cmsis_gcc.h **** 
 267:./Drivers/CMSIS/Include/cmsis_gcc.h **** 
 268:./Drivers/CMSIS/Include/cmsis_gcc.h **** /**
 269:./Drivers/CMSIS/Include/cmsis_gcc.h ****   \brief   Set Base Priority with condition
 270:./Drivers/CMSIS/Include/cmsis_gcc.h ****   \details Assigns the given value to the Base Priority register only if BASEPRI masking is disable
 271:./Drivers/CMSIS/Include/cmsis_gcc.h ****            or the new value increases the BASEPRI priority level.
 272:./Drivers/CMSIS/Include/cmsis_gcc.h ****   \param [in]    basePri  Base Priority value to set
 273:./Drivers/CMSIS/Include/cmsis_gcc.h ****  */
 274:./Drivers/CMSIS/Include/cmsis_gcc.h **** __attribute__( ( always_inline ) ) __STATIC_INLINE void __set_BASEPRI_MAX(uint32_t value)
 275:./Drivers/CMSIS/Include/cmsis_gcc.h **** {
 276:./Drivers/CMSIS/Include/cmsis_gcc.h ****   __ASM volatile ("MSR basepri_max, %0" : : "r" (value) : "memory");
 277:./Drivers/CMSIS/Include/cmsis_gcc.h **** }
 278:./Drivers/CMSIS/Include/cmsis_gcc.h **** 
 279:./Drivers/CMSIS/Include/cmsis_gcc.h **** 
 280:./Drivers/CMSIS/Include/cmsis_gcc.h **** /**
 281:./Drivers/CMSIS/Include/cmsis_gcc.h ****   \brief   Get Fault Mask
 282:./Drivers/CMSIS/Include/cmsis_gcc.h ****   \details Returns the current value of the Fault Mask register.
 283:./Drivers/CMSIS/Include/cmsis_gcc.h ****   \return               Fault Mask register value
 284:./Drivers/CMSIS/Include/cmsis_gcc.h ****  */
 285:./Drivers/CMSIS/Include/cmsis_gcc.h **** __attribute__( ( always_inline ) ) __STATIC_INLINE uint32_t __get_FAULTMASK(void)
 286:./Drivers/CMSIS/Include/cmsis_gcc.h **** {
 287:./Drivers/CMSIS/Include/cmsis_gcc.h ****   uint32_t result;
 288:./Drivers/CMSIS/Include/cmsis_gcc.h **** 
 289:./Drivers/CMSIS/Include/cmsis_gcc.h ****   __ASM volatile ("MRS %0, faultmask" : "=r" (result) );
 290:./Drivers/CMSIS/Include/cmsis_gcc.h ****   return(result);
 291:./Drivers/CMSIS/Include/cmsis_gcc.h **** }
 292:./Drivers/CMSIS/Include/cmsis_gcc.h **** 
 293:./Drivers/CMSIS/Include/cmsis_gcc.h **** 
 294:./Drivers/CMSIS/Include/cmsis_gcc.h **** /**
 295:./Drivers/CMSIS/Include/cmsis_gcc.h ****   \brief   Set Fault Mask
 296:./Drivers/CMSIS/Include/cmsis_gcc.h ****   \details Assigns the given value to the Fault Mask register.
 297:./Drivers/CMSIS/Include/cmsis_gcc.h ****   \param [in]    faultMask  Fault Mask value to set
 298:./Drivers/CMSIS/Include/cmsis_gcc.h ****  */
 299:./Drivers/CMSIS/Include/cmsis_gcc.h **** __attribute__( ( always_inline ) ) __STATIC_INLINE void __set_FAULTMASK(uint32_t faultMask)
 300:./Drivers/CMSIS/Include/cmsis_gcc.h **** {
 301:./Drivers/CMSIS/Include/cmsis_gcc.h ****   __ASM volatile ("MSR faultmask, %0" : : "r" (faultMask) : "memory");
 302:./Drivers/CMSIS/Include/cmsis_gcc.h **** }
 303:./Drivers/CMSIS/Include/cmsis_gcc.h **** 
 304:./Drivers/CMSIS/Include/cmsis_gcc.h **** #endif /* (__CORTEX_M >= 0x03U) */
 305:./Drivers/CMSIS/Include/cmsis_gcc.h **** 
 306:./Drivers/CMSIS/Include/cmsis_gcc.h **** 
 307:./Drivers/CMSIS/Include/cmsis_gcc.h **** #if       (__CORTEX_M == 0x04U) || (__CORTEX_M == 0x07U)
 308:./Drivers/CMSIS/Include/cmsis_gcc.h **** 
 309:./Drivers/CMSIS/Include/cmsis_gcc.h **** /**
 310:./Drivers/CMSIS/Include/cmsis_gcc.h ****   \brief   Get FPSCR
 311:./Drivers/CMSIS/Include/cmsis_gcc.h ****   \details Returns the current value of the Floating Point Status/Control register.
 312:./Drivers/CMSIS/Include/cmsis_gcc.h ****   \return               Floating Point Status/Control register value
 313:./Drivers/CMSIS/Include/cmsis_gcc.h ****  */
 314:./Drivers/CMSIS/Include/cmsis_gcc.h **** __attribute__( ( always_inline ) ) __STATIC_INLINE uint32_t __get_FPSCR(void)
 315:./Drivers/CMSIS/Include/cmsis_gcc.h **** {
 316:./Drivers/CMSIS/Include/cmsis_gcc.h **** #if (__FPU_PRESENT == 1U) && (__FPU_USED == 1U)
ARM GAS  /tmp/ccpVxzjx.s 			page 32


 317:./Drivers/CMSIS/Include/cmsis_gcc.h ****   uint32_t result;
 318:./Drivers/CMSIS/Include/cmsis_gcc.h **** 
 319:./Drivers/CMSIS/Include/cmsis_gcc.h ****   /* Empty asm statement works as a scheduling barrier */
 320:./Drivers/CMSIS/Include/cmsis_gcc.h ****   __ASM volatile ("");
 321:./Drivers/CMSIS/Include/cmsis_gcc.h ****   __ASM volatile ("VMRS %0, fpscr" : "=r" (result) );
 322:./Drivers/CMSIS/Include/cmsis_gcc.h ****   __ASM volatile ("");
 323:./Drivers/CMSIS/Include/cmsis_gcc.h ****   return(result);
 324:./Drivers/CMSIS/Include/cmsis_gcc.h **** #else
 325:./Drivers/CMSIS/Include/cmsis_gcc.h ****    return(0);
 326:./Drivers/CMSIS/Include/cmsis_gcc.h **** #endif
 327:./Drivers/CMSIS/Include/cmsis_gcc.h **** }
 328:./Drivers/CMSIS/Include/cmsis_gcc.h **** 
 329:./Drivers/CMSIS/Include/cmsis_gcc.h **** 
 330:./Drivers/CMSIS/Include/cmsis_gcc.h **** /**
 331:./Drivers/CMSIS/Include/cmsis_gcc.h ****   \brief   Set FPSCR
 332:./Drivers/CMSIS/Include/cmsis_gcc.h ****   \details Assigns the given value to the Floating Point Status/Control register.
 333:./Drivers/CMSIS/Include/cmsis_gcc.h ****   \param [in]    fpscr  Floating Point Status/Control value to set
 334:./Drivers/CMSIS/Include/cmsis_gcc.h ****  */
 335:./Drivers/CMSIS/Include/cmsis_gcc.h **** __attribute__( ( always_inline ) ) __STATIC_INLINE void __set_FPSCR(uint32_t fpscr)
 336:./Drivers/CMSIS/Include/cmsis_gcc.h **** {
 337:./Drivers/CMSIS/Include/cmsis_gcc.h **** #if (__FPU_PRESENT == 1U) && (__FPU_USED == 1U)
 338:./Drivers/CMSIS/Include/cmsis_gcc.h ****   /* Empty asm statement works as a scheduling barrier */
 339:./Drivers/CMSIS/Include/cmsis_gcc.h ****   __ASM volatile ("");
 340:./Drivers/CMSIS/Include/cmsis_gcc.h ****   __ASM volatile ("VMSR fpscr, %0" : : "r" (fpscr) : "vfpcc");
 341:./Drivers/CMSIS/Include/cmsis_gcc.h ****   __ASM volatile ("");
 342:./Drivers/CMSIS/Include/cmsis_gcc.h **** #endif
 343:./Drivers/CMSIS/Include/cmsis_gcc.h **** }
 344:./Drivers/CMSIS/Include/cmsis_gcc.h **** 
 345:./Drivers/CMSIS/Include/cmsis_gcc.h **** #endif /* (__CORTEX_M == 0x04U) || (__CORTEX_M == 0x07U) */
 346:./Drivers/CMSIS/Include/cmsis_gcc.h **** 
 347:./Drivers/CMSIS/Include/cmsis_gcc.h **** 
 348:./Drivers/CMSIS/Include/cmsis_gcc.h **** 
 349:./Drivers/CMSIS/Include/cmsis_gcc.h **** /*@} end of CMSIS_Core_RegAccFunctions */
 350:./Drivers/CMSIS/Include/cmsis_gcc.h **** 
 351:./Drivers/CMSIS/Include/cmsis_gcc.h **** 
 352:./Drivers/CMSIS/Include/cmsis_gcc.h **** /* ##########################  Core Instruction Access  ######################### */
 353:./Drivers/CMSIS/Include/cmsis_gcc.h **** /** \defgroup CMSIS_Core_InstructionInterface CMSIS Core Instruction Interface
 354:./Drivers/CMSIS/Include/cmsis_gcc.h ****   Access to dedicated instructions
 355:./Drivers/CMSIS/Include/cmsis_gcc.h ****   @{
 356:./Drivers/CMSIS/Include/cmsis_gcc.h **** */
 357:./Drivers/CMSIS/Include/cmsis_gcc.h **** 
 358:./Drivers/CMSIS/Include/cmsis_gcc.h **** /* Define macros for porting to both thumb1 and thumb2.
 359:./Drivers/CMSIS/Include/cmsis_gcc.h ****  * For thumb1, use low register (r0-r7), specified by constraint "l"
 360:./Drivers/CMSIS/Include/cmsis_gcc.h ****  * Otherwise, use general registers, specified by constraint "r" */
 361:./Drivers/CMSIS/Include/cmsis_gcc.h **** #if defined (__thumb__) && !defined (__thumb2__)
 362:./Drivers/CMSIS/Include/cmsis_gcc.h **** #define __CMSIS_GCC_OUT_REG(r) "=l" (r)
 363:./Drivers/CMSIS/Include/cmsis_gcc.h **** #define __CMSIS_GCC_USE_REG(r) "l" (r)
 364:./Drivers/CMSIS/Include/cmsis_gcc.h **** #else
 365:./Drivers/CMSIS/Include/cmsis_gcc.h **** #define __CMSIS_GCC_OUT_REG(r) "=r" (r)
 366:./Drivers/CMSIS/Include/cmsis_gcc.h **** #define __CMSIS_GCC_USE_REG(r) "r" (r)
 367:./Drivers/CMSIS/Include/cmsis_gcc.h **** #endif
 368:./Drivers/CMSIS/Include/cmsis_gcc.h **** 
 369:./Drivers/CMSIS/Include/cmsis_gcc.h **** /**
 370:./Drivers/CMSIS/Include/cmsis_gcc.h ****   \brief   No Operation
 371:./Drivers/CMSIS/Include/cmsis_gcc.h ****   \details No Operation does nothing. This instruction can be used for code alignment purposes.
 372:./Drivers/CMSIS/Include/cmsis_gcc.h ****  */
 373:./Drivers/CMSIS/Include/cmsis_gcc.h **** __attribute__((always_inline)) __STATIC_INLINE void __NOP(void)
ARM GAS  /tmp/ccpVxzjx.s 			page 33


 374:./Drivers/CMSIS/Include/cmsis_gcc.h **** {
 375:./Drivers/CMSIS/Include/cmsis_gcc.h ****   __ASM volatile ("nop");
 376:./Drivers/CMSIS/Include/cmsis_gcc.h **** }
 377:./Drivers/CMSIS/Include/cmsis_gcc.h **** 
 378:./Drivers/CMSIS/Include/cmsis_gcc.h **** 
 379:./Drivers/CMSIS/Include/cmsis_gcc.h **** /**
 380:./Drivers/CMSIS/Include/cmsis_gcc.h ****   \brief   Wait For Interrupt
 381:./Drivers/CMSIS/Include/cmsis_gcc.h ****   \details Wait For Interrupt is a hint instruction that suspends execution until one of a number o
 382:./Drivers/CMSIS/Include/cmsis_gcc.h ****  */
 383:./Drivers/CMSIS/Include/cmsis_gcc.h **** __attribute__((always_inline)) __STATIC_INLINE void __WFI(void)
 384:./Drivers/CMSIS/Include/cmsis_gcc.h **** {
 385:./Drivers/CMSIS/Include/cmsis_gcc.h ****   __ASM volatile ("wfi");
 386:./Drivers/CMSIS/Include/cmsis_gcc.h **** }
 387:./Drivers/CMSIS/Include/cmsis_gcc.h **** 
 388:./Drivers/CMSIS/Include/cmsis_gcc.h **** 
 389:./Drivers/CMSIS/Include/cmsis_gcc.h **** /**
 390:./Drivers/CMSIS/Include/cmsis_gcc.h ****   \brief   Wait For Event
 391:./Drivers/CMSIS/Include/cmsis_gcc.h ****   \details Wait For Event is a hint instruction that permits the processor to enter
 392:./Drivers/CMSIS/Include/cmsis_gcc.h ****     a low-power state until one of a number of events occurs.
 393:./Drivers/CMSIS/Include/cmsis_gcc.h ****  */
 394:./Drivers/CMSIS/Include/cmsis_gcc.h **** __attribute__((always_inline)) __STATIC_INLINE void __WFE(void)
 395:./Drivers/CMSIS/Include/cmsis_gcc.h **** {
 396:./Drivers/CMSIS/Include/cmsis_gcc.h ****   __ASM volatile ("wfe");
 397:./Drivers/CMSIS/Include/cmsis_gcc.h **** }
 398:./Drivers/CMSIS/Include/cmsis_gcc.h **** 
 399:./Drivers/CMSIS/Include/cmsis_gcc.h **** 
 400:./Drivers/CMSIS/Include/cmsis_gcc.h **** /**
 401:./Drivers/CMSIS/Include/cmsis_gcc.h ****   \brief   Send Event
 402:./Drivers/CMSIS/Include/cmsis_gcc.h ****   \details Send Event is a hint instruction. It causes an event to be signaled to the CPU.
 403:./Drivers/CMSIS/Include/cmsis_gcc.h ****  */
 404:./Drivers/CMSIS/Include/cmsis_gcc.h **** __attribute__((always_inline)) __STATIC_INLINE void __SEV(void)
 405:./Drivers/CMSIS/Include/cmsis_gcc.h **** {
 406:./Drivers/CMSIS/Include/cmsis_gcc.h ****   __ASM volatile ("sev");
 407:./Drivers/CMSIS/Include/cmsis_gcc.h **** }
 408:./Drivers/CMSIS/Include/cmsis_gcc.h **** 
 409:./Drivers/CMSIS/Include/cmsis_gcc.h **** 
 410:./Drivers/CMSIS/Include/cmsis_gcc.h **** /**
 411:./Drivers/CMSIS/Include/cmsis_gcc.h ****   \brief   Instruction Synchronization Barrier
 412:./Drivers/CMSIS/Include/cmsis_gcc.h ****   \details Instruction Synchronization Barrier flushes the pipeline in the processor,
 413:./Drivers/CMSIS/Include/cmsis_gcc.h ****            so that all instructions following the ISB are fetched from cache or memory,
 414:./Drivers/CMSIS/Include/cmsis_gcc.h ****            after the instruction has been completed.
 415:./Drivers/CMSIS/Include/cmsis_gcc.h ****  */
 416:./Drivers/CMSIS/Include/cmsis_gcc.h **** __attribute__((always_inline)) __STATIC_INLINE void __ISB(void)
 417:./Drivers/CMSIS/Include/cmsis_gcc.h **** {
 418:./Drivers/CMSIS/Include/cmsis_gcc.h ****   __ASM volatile ("isb 0xF":::"memory");
 419:./Drivers/CMSIS/Include/cmsis_gcc.h **** }
 420:./Drivers/CMSIS/Include/cmsis_gcc.h **** 
 421:./Drivers/CMSIS/Include/cmsis_gcc.h **** 
 422:./Drivers/CMSIS/Include/cmsis_gcc.h **** /**
 423:./Drivers/CMSIS/Include/cmsis_gcc.h ****   \brief   Data Synchronization Barrier
 424:./Drivers/CMSIS/Include/cmsis_gcc.h ****   \details Acts as a special kind of Data Memory Barrier.
 425:./Drivers/CMSIS/Include/cmsis_gcc.h ****            It completes when all explicit memory accesses before this instruction complete.
 426:./Drivers/CMSIS/Include/cmsis_gcc.h ****  */
 427:./Drivers/CMSIS/Include/cmsis_gcc.h **** __attribute__((always_inline)) __STATIC_INLINE void __DSB(void)
 428:./Drivers/CMSIS/Include/cmsis_gcc.h **** {
 429:./Drivers/CMSIS/Include/cmsis_gcc.h ****   __ASM volatile ("dsb 0xF":::"memory");
 430:./Drivers/CMSIS/Include/cmsis_gcc.h **** }
ARM GAS  /tmp/ccpVxzjx.s 			page 34


 431:./Drivers/CMSIS/Include/cmsis_gcc.h **** 
 432:./Drivers/CMSIS/Include/cmsis_gcc.h **** 
 433:./Drivers/CMSIS/Include/cmsis_gcc.h **** /**
 434:./Drivers/CMSIS/Include/cmsis_gcc.h ****   \brief   Data Memory Barrier
 435:./Drivers/CMSIS/Include/cmsis_gcc.h ****   \details Ensures the apparent order of the explicit memory operations before
 436:./Drivers/CMSIS/Include/cmsis_gcc.h ****            and after the instruction, without ensuring their completion.
 437:./Drivers/CMSIS/Include/cmsis_gcc.h ****  */
 438:./Drivers/CMSIS/Include/cmsis_gcc.h **** __attribute__((always_inline)) __STATIC_INLINE void __DMB(void)
 439:./Drivers/CMSIS/Include/cmsis_gcc.h **** {
 440:./Drivers/CMSIS/Include/cmsis_gcc.h ****   __ASM volatile ("dmb 0xF":::"memory");
 441:./Drivers/CMSIS/Include/cmsis_gcc.h **** }
 442:./Drivers/CMSIS/Include/cmsis_gcc.h **** 
 443:./Drivers/CMSIS/Include/cmsis_gcc.h **** 
 444:./Drivers/CMSIS/Include/cmsis_gcc.h **** /**
 445:./Drivers/CMSIS/Include/cmsis_gcc.h ****   \brief   Reverse byte order (32 bit)
 446:./Drivers/CMSIS/Include/cmsis_gcc.h ****   \details Reverses the byte order in integer value.
 447:./Drivers/CMSIS/Include/cmsis_gcc.h ****   \param [in]    value  Value to reverse
 448:./Drivers/CMSIS/Include/cmsis_gcc.h ****   \return               Reversed value
 449:./Drivers/CMSIS/Include/cmsis_gcc.h ****  */
 450:./Drivers/CMSIS/Include/cmsis_gcc.h **** __attribute__((always_inline)) __STATIC_INLINE uint32_t __REV(uint32_t value)
 451:./Drivers/CMSIS/Include/cmsis_gcc.h **** {
 452:./Drivers/CMSIS/Include/cmsis_gcc.h **** #if (__GNUC__ > 4) || (__GNUC__ == 4 && __GNUC_MINOR__ >= 5)
 453:./Drivers/CMSIS/Include/cmsis_gcc.h ****   return __builtin_bswap32(value);
 454:./Drivers/CMSIS/Include/cmsis_gcc.h **** #else
 455:./Drivers/CMSIS/Include/cmsis_gcc.h ****   uint32_t result;
 456:./Drivers/CMSIS/Include/cmsis_gcc.h **** 
 457:./Drivers/CMSIS/Include/cmsis_gcc.h ****   __ASM volatile ("rev %0, %1" : __CMSIS_GCC_OUT_REG (result) : __CMSIS_GCC_USE_REG (value) );
 458:./Drivers/CMSIS/Include/cmsis_gcc.h ****   return(result);
 459:./Drivers/CMSIS/Include/cmsis_gcc.h **** #endif
 460:./Drivers/CMSIS/Include/cmsis_gcc.h **** }
 461:./Drivers/CMSIS/Include/cmsis_gcc.h **** 
 462:./Drivers/CMSIS/Include/cmsis_gcc.h **** 
 463:./Drivers/CMSIS/Include/cmsis_gcc.h **** /**
 464:./Drivers/CMSIS/Include/cmsis_gcc.h ****   \brief   Reverse byte order (16 bit)
 465:./Drivers/CMSIS/Include/cmsis_gcc.h ****   \details Reverses the byte order in two unsigned short values.
 466:./Drivers/CMSIS/Include/cmsis_gcc.h ****   \param [in]    value  Value to reverse
 467:./Drivers/CMSIS/Include/cmsis_gcc.h ****   \return               Reversed value
 468:./Drivers/CMSIS/Include/cmsis_gcc.h ****  */
 469:./Drivers/CMSIS/Include/cmsis_gcc.h **** __attribute__((always_inline)) __STATIC_INLINE uint32_t __REV16(uint32_t value)
 470:./Drivers/CMSIS/Include/cmsis_gcc.h **** {
 471:./Drivers/CMSIS/Include/cmsis_gcc.h ****   uint32_t result;
 472:./Drivers/CMSIS/Include/cmsis_gcc.h **** 
 473:./Drivers/CMSIS/Include/cmsis_gcc.h ****   __ASM volatile ("rev16 %0, %1" : __CMSIS_GCC_OUT_REG (result) : __CMSIS_GCC_USE_REG (value) );
 474:./Drivers/CMSIS/Include/cmsis_gcc.h ****   return(result);
 475:./Drivers/CMSIS/Include/cmsis_gcc.h **** }
 476:./Drivers/CMSIS/Include/cmsis_gcc.h **** 
 477:./Drivers/CMSIS/Include/cmsis_gcc.h **** 
 478:./Drivers/CMSIS/Include/cmsis_gcc.h **** /**
 479:./Drivers/CMSIS/Include/cmsis_gcc.h ****   \brief   Reverse byte order in signed short value
 480:./Drivers/CMSIS/Include/cmsis_gcc.h ****   \details Reverses the byte order in a signed short value with sign extension to integer.
 481:./Drivers/CMSIS/Include/cmsis_gcc.h ****   \param [in]    value  Value to reverse
 482:./Drivers/CMSIS/Include/cmsis_gcc.h ****   \return               Reversed value
 483:./Drivers/CMSIS/Include/cmsis_gcc.h ****  */
 484:./Drivers/CMSIS/Include/cmsis_gcc.h **** __attribute__((always_inline)) __STATIC_INLINE int32_t __REVSH(int32_t value)
 485:./Drivers/CMSIS/Include/cmsis_gcc.h **** {
 486:./Drivers/CMSIS/Include/cmsis_gcc.h **** #if (__GNUC__ > 4) || (__GNUC__ == 4 && __GNUC_MINOR__ >= 8)
 487:./Drivers/CMSIS/Include/cmsis_gcc.h ****   return (short)__builtin_bswap16(value);
ARM GAS  /tmp/ccpVxzjx.s 			page 35


 488:./Drivers/CMSIS/Include/cmsis_gcc.h **** #else
 489:./Drivers/CMSIS/Include/cmsis_gcc.h ****   int32_t result;
 490:./Drivers/CMSIS/Include/cmsis_gcc.h **** 
 491:./Drivers/CMSIS/Include/cmsis_gcc.h ****   __ASM volatile ("revsh %0, %1" : __CMSIS_GCC_OUT_REG (result) : __CMSIS_GCC_USE_REG (value) );
 492:./Drivers/CMSIS/Include/cmsis_gcc.h ****   return(result);
 493:./Drivers/CMSIS/Include/cmsis_gcc.h **** #endif
 494:./Drivers/CMSIS/Include/cmsis_gcc.h **** }
 495:./Drivers/CMSIS/Include/cmsis_gcc.h **** 
 496:./Drivers/CMSIS/Include/cmsis_gcc.h **** 
 497:./Drivers/CMSIS/Include/cmsis_gcc.h **** /**
 498:./Drivers/CMSIS/Include/cmsis_gcc.h ****   \brief   Rotate Right in unsigned value (32 bit)
 499:./Drivers/CMSIS/Include/cmsis_gcc.h ****   \details Rotate Right (immediate) provides the value of the contents of a register rotated by a v
 500:./Drivers/CMSIS/Include/cmsis_gcc.h ****   \param [in]    value  Value to rotate
 501:./Drivers/CMSIS/Include/cmsis_gcc.h ****   \param [in]    value  Number of Bits to rotate
 502:./Drivers/CMSIS/Include/cmsis_gcc.h ****   \return               Rotated value
 503:./Drivers/CMSIS/Include/cmsis_gcc.h ****  */
 504:./Drivers/CMSIS/Include/cmsis_gcc.h **** __attribute__((always_inline)) __STATIC_INLINE uint32_t __ROR(uint32_t op1, uint32_t op2)
 505:./Drivers/CMSIS/Include/cmsis_gcc.h **** {
 506:./Drivers/CMSIS/Include/cmsis_gcc.h ****   return (op1 >> op2) | (op1 << (32U - op2));
 507:./Drivers/CMSIS/Include/cmsis_gcc.h **** }
 508:./Drivers/CMSIS/Include/cmsis_gcc.h **** 
 509:./Drivers/CMSIS/Include/cmsis_gcc.h **** 
 510:./Drivers/CMSIS/Include/cmsis_gcc.h **** /**
 511:./Drivers/CMSIS/Include/cmsis_gcc.h ****   \brief   Breakpoint
 512:./Drivers/CMSIS/Include/cmsis_gcc.h ****   \details Causes the processor to enter Debug state.
 513:./Drivers/CMSIS/Include/cmsis_gcc.h ****            Debug tools can use this to investigate system state when the instruction at a particula
 514:./Drivers/CMSIS/Include/cmsis_gcc.h ****   \param [in]    value  is ignored by the processor.
 515:./Drivers/CMSIS/Include/cmsis_gcc.h ****                  If required, a debugger can use it to store additional information about the break
 516:./Drivers/CMSIS/Include/cmsis_gcc.h ****  */
 517:./Drivers/CMSIS/Include/cmsis_gcc.h **** #define __BKPT(value)                       __ASM volatile ("bkpt "#value)
 518:./Drivers/CMSIS/Include/cmsis_gcc.h **** 
 519:./Drivers/CMSIS/Include/cmsis_gcc.h **** 
 520:./Drivers/CMSIS/Include/cmsis_gcc.h **** /**
 521:./Drivers/CMSIS/Include/cmsis_gcc.h ****   \brief   Reverse bit order of value
 522:./Drivers/CMSIS/Include/cmsis_gcc.h ****   \details Reverses the bit order of the given value.
 523:./Drivers/CMSIS/Include/cmsis_gcc.h ****   \param [in]    value  Value to reverse
 524:./Drivers/CMSIS/Include/cmsis_gcc.h ****   \return               Reversed value
 525:./Drivers/CMSIS/Include/cmsis_gcc.h ****  */
 526:./Drivers/CMSIS/Include/cmsis_gcc.h **** __attribute__((always_inline)) __STATIC_INLINE uint32_t __RBIT(uint32_t value)
 527:./Drivers/CMSIS/Include/cmsis_gcc.h **** {
 528:./Drivers/CMSIS/Include/cmsis_gcc.h ****   uint32_t result;
 529:./Drivers/CMSIS/Include/cmsis_gcc.h **** 
 530:./Drivers/CMSIS/Include/cmsis_gcc.h **** #if       (__CORTEX_M >= 0x03U) || (__CORTEX_SC >= 300U)
 531:./Drivers/CMSIS/Include/cmsis_gcc.h ****    __ASM volatile ("rbit %0, %1" : "=r" (result) : "r" (value) );
 357              		.loc 2 531 0
 358 0008 0423     		movs	r3, #4
 359              	@ 531 "./Drivers/CMSIS/Include/cmsis_gcc.h" 1
 360 000a 93FAA3F3 		rbit r3, r3
 361              	@ 0 "" 2
 362              	.LVL34:
 363              		.thumb
 364              	.LBE9:
 365              	.LBE8:
 366              		.loc 1 1076 0
 367 000e B3FA83F3 		clz	r3, r3
 368              	.LVL35:
 369 0012 D840     		lsrs	r0, r0, r3
ARM GAS  /tmp/ccpVxzjx.s 			page 36


1077:./Drivers/STM32F1xx_HAL_Driver/Src/stm32f1xx_hal_flash_ex.c **** }
 370              		.loc 1 1077 0
 371 0014 C0B2     		uxtb	r0, r0
 372 0016 7047     		bx	lr
 373              	.L29:
 374              		.align	2
 375              	.L28:
 376 0018 00200240 		.word	1073881088
 377              		.cfi_endproc
 378              	.LFE77:
 380              		.section	.text.HAL_FLASHEx_OBErase,"ax",%progbits
 381              		.align	2
 382              		.global	HAL_FLASHEx_OBErase
 383              		.thumb
 384              		.thumb_func
 386              	HAL_FLASHEx_OBErase:
 387              	.LFB65:
 415:./Drivers/STM32F1xx_HAL_Driver/Src/stm32f1xx_hal_flash_ex.c ****   uint8_t rdptmp = OB_RDP_LEVEL_0;
 388              		.loc 1 415 0
 389              		.cfi_startproc
 390              		@ args = 0, pretend = 0, frame = 0
 391              		@ frame_needed = 0, uses_anonymous_args = 0
 392 0000 38B5     		push	{r3, r4, r5, lr}
 393              	.LCFI3:
 394              		.cfi_def_cfa_offset 16
 395              		.cfi_offset 3, -16
 396              		.cfi_offset 4, -12
 397              		.cfi_offset 5, -8
 398              		.cfi_offset 14, -4
 399              	.LVL36:
 420:./Drivers/STM32F1xx_HAL_Driver/Src/stm32f1xx_hal_flash_ex.c **** 
 400              		.loc 1 420 0
 401 0002 FFF7FEFF 		bl	FLASH_OB_GetRDP
 402              	.LVL37:
 403 0006 C5B2     		uxtb	r5, r0
 404              	.LVL38:
 423:./Drivers/STM32F1xx_HAL_Driver/Src/stm32f1xx_hal_flash_ex.c **** 
 405              		.loc 1 423 0
 406 0008 4CF25030 		movw	r0, #50000
 407 000c FFF7FEFF 		bl	FLASH_WaitForLastOperation
 408              	.LVL39:
 425:./Drivers/STM32F1xx_HAL_Driver/Src/stm32f1xx_hal_flash_ex.c ****   {
 409              		.loc 1 425 0
 410 0010 0346     		mov	r3, r0
 411 0012 C8B9     		cbnz	r0, .L31
 428:./Drivers/STM32F1xx_HAL_Driver/Src/stm32f1xx_hal_flash_ex.c **** 
 412              		.loc 1 428 0
 413 0014 0022     		movs	r2, #0
 414 0016 0D4B     		ldr	r3, .L33
 415 0018 DA61     		str	r2, [r3, #28]
 431:./Drivers/STM32F1xx_HAL_Driver/Src/stm32f1xx_hal_flash_ex.c ****     SET_BIT(FLASH->CR, FLASH_CR_STRT);
 416              		.loc 1 431 0
 417 001a 0D4C     		ldr	r4, .L33+4
 418 001c 2369     		ldr	r3, [r4, #16]
 419 001e 43F02003 		orr	r3, r3, #32
 420 0022 2361     		str	r3, [r4, #16]
 432:./Drivers/STM32F1xx_HAL_Driver/Src/stm32f1xx_hal_flash_ex.c **** 
ARM GAS  /tmp/ccpVxzjx.s 			page 37


 421              		.loc 1 432 0
 422 0024 2369     		ldr	r3, [r4, #16]
 423 0026 43F04003 		orr	r3, r3, #64
 424 002a 2361     		str	r3, [r4, #16]
 435:./Drivers/STM32F1xx_HAL_Driver/Src/stm32f1xx_hal_flash_ex.c **** 
 425              		.loc 1 435 0
 426 002c 4CF25030 		movw	r0, #50000
 427              	.LVL40:
 428 0030 FFF7FEFF 		bl	FLASH_WaitForLastOperation
 429              	.LVL41:
 438:./Drivers/STM32F1xx_HAL_Driver/Src/stm32f1xx_hal_flash_ex.c **** 
 430              		.loc 1 438 0
 431 0034 2369     		ldr	r3, [r4, #16]
 432 0036 23F02003 		bic	r3, r3, #32
 433 003a 2361     		str	r3, [r4, #16]
 440:./Drivers/STM32F1xx_HAL_Driver/Src/stm32f1xx_hal_flash_ex.c ****     {
 434              		.loc 1 440 0
 435 003c 0346     		mov	r3, r0
 436 003e 18B9     		cbnz	r0, .L31
 443:./Drivers/STM32F1xx_HAL_Driver/Src/stm32f1xx_hal_flash_ex.c ****     }
 437              		.loc 1 443 0
 438 0040 2846     		mov	r0, r5
 439              	.LVL42:
 440 0042 FFF7FEFF 		bl	FLASH_OB_RDP_LevelConfig
 441              	.LVL43:
 442 0046 0346     		mov	r3, r0
 443              	.LVL44:
 444              	.L31:
 449:./Drivers/STM32F1xx_HAL_Driver/Src/stm32f1xx_hal_flash_ex.c **** 
 445              		.loc 1 449 0
 446 0048 1846     		mov	r0, r3
 447 004a 38BD     		pop	{r3, r4, r5, pc}
 448              	.LVL45:
 449              	.L34:
 450              		.align	2
 451              	.L33:
 452 004c 00000000 		.word	pFlash
 453 0050 00200240 		.word	1073881088
 454              		.cfi_endproc
 455              	.LFE65:
 457              		.section	.text.FLASH_OB_EnableWRP,"ax",%progbits
 458              		.align	2
 459              		.thumb
 460              		.thumb_func
 462              	FLASH_OB_EnableWRP:
 463              	.LFB70:
 658:./Drivers/STM32F1xx_HAL_Driver/Src/stm32f1xx_hal_flash_ex.c ****   HAL_StatusTypeDef status = HAL_OK;
 464              		.loc 1 658 0
 465              		.cfi_startproc
 466              		@ args = 0, pretend = 0, frame = 0
 467              		@ frame_needed = 0, uses_anonymous_args = 0
 468              	.LVL46:
 469 0000 F8B5     		push	{r3, r4, r5, r6, r7, lr}
 470              	.LCFI4:
 471              		.cfi_def_cfa_offset 24
 472              		.cfi_offset 3, -24
 473              		.cfi_offset 4, -20
ARM GAS  /tmp/ccpVxzjx.s 			page 38


 474              		.cfi_offset 5, -16
 475              		.cfi_offset 6, -12
 476              		.cfi_offset 7, -8
 477              		.cfi_offset 14, -4
 478 0002 0446     		mov	r4, r0
 479              	.LVL47:
 675:./Drivers/STM32F1xx_HAL_Driver/Src/stm32f1xx_hal_flash_ex.c ****   
 480              		.loc 1 675 0
 481 0004 FFF7FEFF 		bl	FLASH_OB_GetWRP
 482              	.LVL48:
 483 0008 20EA0400 		bic	r0, r0, r4
 484              	.LVL49:
 678:./Drivers/STM32F1xx_HAL_Driver/Src/stm32f1xx_hal_flash_ex.c **** #elif defined(OB_WRP_PAGES0TO31MASK)
 485              		.loc 1 678 0
 486 000c C5B2     		uxtb	r5, r0
 487              	.LVL50:
 684:./Drivers/STM32F1xx_HAL_Driver/Src/stm32f1xx_hal_flash_ex.c **** #elif defined(OB_WRP_PAGES32TO63MASK)
 488              		.loc 1 684 0
 489 000e C0F30727 		ubfx	r7, r0, #8, #8
 490              	.LVL51:
 693:./Drivers/STM32F1xx_HAL_Driver/Src/stm32f1xx_hal_flash_ex.c **** #endif /* OB_WRP_PAGES32TO47MASK */
 491              		.loc 1 693 0
 492 0012 C0F30746 		ubfx	r6, r0, #16, #8
 493              	.LVL52:
 699:./Drivers/STM32F1xx_HAL_Driver/Src/stm32f1xx_hal_flash_ex.c **** #elif defined(OB_WRP_PAGES48TO511MASK)
 494              		.loc 1 699 0
 495 0016 040E     		lsrs	r4, r0, #24
 496              	.LVL53:
 707:./Drivers/STM32F1xx_HAL_Driver/Src/stm32f1xx_hal_flash_ex.c **** 
 497              		.loc 1 707 0
 498 0018 4CF25030 		movw	r0, #50000
 499              	.LVL54:
 500 001c FFF7FEFF 		bl	FLASH_WaitForLastOperation
 501              	.LVL55:
 709:./Drivers/STM32F1xx_HAL_Driver/Src/stm32f1xx_hal_flash_ex.c ****   { 
 502              		.loc 1 709 0
 503 0020 0346     		mov	r3, r0
 504 0022 0028     		cmp	r0, #0
 505 0024 40D1     		bne	.L36
 712:./Drivers/STM32F1xx_HAL_Driver/Src/stm32f1xx_hal_flash_ex.c **** 
 506              		.loc 1 712 0
 507 0026 0022     		movs	r2, #0
 508 0028 204B     		ldr	r3, .L42
 509 002a DA61     		str	r2, [r3, #28]
 715:./Drivers/STM32F1xx_HAL_Driver/Src/stm32f1xx_hal_flash_ex.c ****     if (status == HAL_OK)  
 510              		.loc 1 715 0
 511 002c FFF7FEFF 		bl	HAL_FLASHEx_OBErase
 512              	.LVL56:
 716:./Drivers/STM32F1xx_HAL_Driver/Src/stm32f1xx_hal_flash_ex.c ****     {
 513              		.loc 1 716 0
 514 0030 0346     		mov	r3, r0
 515 0032 0028     		cmp	r0, #0
 516 0034 38D1     		bne	.L36
 719:./Drivers/STM32F1xx_HAL_Driver/Src/stm32f1xx_hal_flash_ex.c **** 
 517              		.loc 1 719 0
 518 0036 1E49     		ldr	r1, .L42+4
 519 0038 0A69     		ldr	r2, [r1, #16]
ARM GAS  /tmp/ccpVxzjx.s 			page 39


 520 003a 42F01002 		orr	r2, r2, #16
 521 003e 0A61     		str	r2, [r1, #16]
 722:./Drivers/STM32F1xx_HAL_Driver/Src/stm32f1xx_hal_flash_ex.c ****       {
 522              		.loc 1 722 0
 523 0040 FF2D     		cmp	r5, #255
 524 0042 08D0     		beq	.L37
 724:./Drivers/STM32F1xx_HAL_Driver/Src/stm32f1xx_hal_flash_ex.c ****         
 525              		.loc 1 724 0
 526 0044 1B4A     		ldr	r2, .L42+8
 527 0046 1389     		ldrh	r3, [r2, #8]
 528 0048 1D40     		ands	r5, r5, r3
 529              	.LVL57:
 530 004a 1581     		strh	r5, [r2, #8]	@ movhi
 727:./Drivers/STM32F1xx_HAL_Driver/Src/stm32f1xx_hal_flash_ex.c ****       }
 531              		.loc 1 727 0
 532 004c 4CF25030 		movw	r0, #50000
 533              	.LVL58:
 534 0050 FFF7FEFF 		bl	FLASH_WaitForLastOperation
 535              	.LVL59:
 536 0054 0346     		mov	r3, r0
 537              	.LVL60:
 538              	.L37:
 732:./Drivers/STM32F1xx_HAL_Driver/Src/stm32f1xx_hal_flash_ex.c ****       {
 539              		.loc 1 732 0
 540 0056 53B9     		cbnz	r3, .L38
 732:./Drivers/STM32F1xx_HAL_Driver/Src/stm32f1xx_hal_flash_ex.c ****       {
 541              		.loc 1 732 0 is_stmt 0 discriminator 1
 542 0058 FF2F     		cmp	r7, #255
 543 005a 08D0     		beq	.L38
 734:./Drivers/STM32F1xx_HAL_Driver/Src/stm32f1xx_hal_flash_ex.c ****         
 544              		.loc 1 734 0 is_stmt 1
 545 005c 154A     		ldr	r2, .L42+8
 546 005e 5389     		ldrh	r3, [r2, #10]
 547              	.LVL61:
 548 0060 1F40     		ands	r7, r7, r3
 549              	.LVL62:
 550 0062 5781     		strh	r7, [r2, #10]	@ movhi
 737:./Drivers/STM32F1xx_HAL_Driver/Src/stm32f1xx_hal_flash_ex.c ****       }
 551              		.loc 1 737 0
 552 0064 4CF25030 		movw	r0, #50000
 553 0068 FFF7FEFF 		bl	FLASH_WaitForLastOperation
 554              	.LVL63:
 555 006c 0346     		mov	r3, r0
 556              	.LVL64:
 557              	.L38:
 742:./Drivers/STM32F1xx_HAL_Driver/Src/stm32f1xx_hal_flash_ex.c ****       {
 558              		.loc 1 742 0
 559 006e 53B9     		cbnz	r3, .L39
 742:./Drivers/STM32F1xx_HAL_Driver/Src/stm32f1xx_hal_flash_ex.c ****       {
 560              		.loc 1 742 0 is_stmt 0 discriminator 1
 561 0070 FF2E     		cmp	r6, #255
 562 0072 08D0     		beq	.L39
 744:./Drivers/STM32F1xx_HAL_Driver/Src/stm32f1xx_hal_flash_ex.c ****         
 563              		.loc 1 744 0 is_stmt 1
 564 0074 0F4A     		ldr	r2, .L42+8
 565 0076 9389     		ldrh	r3, [r2, #12]
 566              	.LVL65:
ARM GAS  /tmp/ccpVxzjx.s 			page 40


 567 0078 1E40     		ands	r6, r6, r3
 568              	.LVL66:
 569 007a 9681     		strh	r6, [r2, #12]	@ movhi
 747:./Drivers/STM32F1xx_HAL_Driver/Src/stm32f1xx_hal_flash_ex.c ****       }
 570              		.loc 1 747 0
 571 007c 4CF25030 		movw	r0, #50000
 572 0080 FFF7FEFF 		bl	FLASH_WaitForLastOperation
 573              	.LVL67:
 574 0084 0346     		mov	r3, r0
 575              	.LVL68:
 576              	.L39:
 752:./Drivers/STM32F1xx_HAL_Driver/Src/stm32f1xx_hal_flash_ex.c ****       {
 577              		.loc 1 752 0
 578 0086 53B9     		cbnz	r3, .L40
 752:./Drivers/STM32F1xx_HAL_Driver/Src/stm32f1xx_hal_flash_ex.c ****       {
 579              		.loc 1 752 0 is_stmt 0 discriminator 1
 580 0088 FF2C     		cmp	r4, #255
 581 008a 08D0     		beq	.L40
 754:./Drivers/STM32F1xx_HAL_Driver/Src/stm32f1xx_hal_flash_ex.c ****         
 582              		.loc 1 754 0 is_stmt 1
 583 008c 094B     		ldr	r3, .L42+8
 584              	.LVL69:
 585 008e D889     		ldrh	r0, [r3, #14]
 586 0090 2040     		ands	r0, r0, r4
 587 0092 D881     		strh	r0, [r3, #14]	@ movhi
 757:./Drivers/STM32F1xx_HAL_Driver/Src/stm32f1xx_hal_flash_ex.c ****       }
 588              		.loc 1 757 0
 589 0094 4CF25030 		movw	r0, #50000
 590 0098 FFF7FEFF 		bl	FLASH_WaitForLastOperation
 591              	.LVL70:
 592 009c 0346     		mov	r3, r0
 593              	.LVL71:
 594              	.L40:
 762:./Drivers/STM32F1xx_HAL_Driver/Src/stm32f1xx_hal_flash_ex.c ****     }
 595              		.loc 1 762 0
 596 009e 0449     		ldr	r1, .L42+4
 597 00a0 0A69     		ldr	r2, [r1, #16]
 598 00a2 22F01002 		bic	r2, r2, #16
 599 00a6 0A61     		str	r2, [r1, #16]
 600              	.LVL72:
 601              	.L36:
 767:./Drivers/STM32F1xx_HAL_Driver/Src/stm32f1xx_hal_flash_ex.c **** 
 602              		.loc 1 767 0
 603 00a8 1846     		mov	r0, r3
 604 00aa F8BD     		pop	{r3, r4, r5, r6, r7, pc}
 605              	.LVL73:
 606              	.L43:
 607              		.align	2
 608              	.L42:
 609 00ac 00000000 		.word	pFlash
 610 00b0 00200240 		.word	1073881088
 611 00b4 00F8FF1F 		.word	536868864
 612              		.cfi_endproc
 613              	.LFE70:
 615              		.section	.text.FLASH_OB_DisableWRP,"ax",%progbits
 616              		.align	2
 617              		.thumb
ARM GAS  /tmp/ccpVxzjx.s 			page 41


 618              		.thumb_func
 620              	FLASH_OB_DisableWRP:
 621              	.LFB71:
 781:./Drivers/STM32F1xx_HAL_Driver/Src/stm32f1xx_hal_flash_ex.c ****   HAL_StatusTypeDef status = HAL_OK;
 622              		.loc 1 781 0
 623              		.cfi_startproc
 624              		@ args = 0, pretend = 0, frame = 0
 625              		@ frame_needed = 0, uses_anonymous_args = 0
 626              	.LVL74:
 627 0000 F8B5     		push	{r3, r4, r5, r6, r7, lr}
 628              	.LCFI5:
 629              		.cfi_def_cfa_offset 24
 630              		.cfi_offset 3, -24
 631              		.cfi_offset 4, -20
 632              		.cfi_offset 5, -16
 633              		.cfi_offset 6, -12
 634              		.cfi_offset 7, -8
 635              		.cfi_offset 14, -4
 636 0002 0446     		mov	r4, r0
 637              	.LVL75:
 798:./Drivers/STM32F1xx_HAL_Driver/Src/stm32f1xx_hal_flash_ex.c **** 
 638              		.loc 1 798 0
 639 0004 FFF7FEFF 		bl	FLASH_OB_GetWRP
 640              	.LVL76:
 641 0008 2043     		orrs	r0, r0, r4
 642              	.LVL77:
 801:./Drivers/STM32F1xx_HAL_Driver/Src/stm32f1xx_hal_flash_ex.c **** #elif defined(OB_WRP_PAGES0TO31MASK)
 643              		.loc 1 801 0
 644 000a C5B2     		uxtb	r5, r0
 645              	.LVL78:
 807:./Drivers/STM32F1xx_HAL_Driver/Src/stm32f1xx_hal_flash_ex.c **** #elif defined(OB_WRP_PAGES32TO63MASK)
 646              		.loc 1 807 0
 647 000c C0F30727 		ubfx	r7, r0, #8, #8
 648              	.LVL79:
 816:./Drivers/STM32F1xx_HAL_Driver/Src/stm32f1xx_hal_flash_ex.c **** #endif /* OB_WRP_PAGES32TO47MASK */
 649              		.loc 1 816 0
 650 0010 C0F30746 		ubfx	r6, r0, #16, #8
 651              	.LVL80:
 822:./Drivers/STM32F1xx_HAL_Driver/Src/stm32f1xx_hal_flash_ex.c **** #elif defined(OB_WRP_PAGES48TO511MASK)
 652              		.loc 1 822 0
 653 0014 040E     		lsrs	r4, r0, #24
 654              	.LVL81:
 831:./Drivers/STM32F1xx_HAL_Driver/Src/stm32f1xx_hal_flash_ex.c **** 
 655              		.loc 1 831 0
 656 0016 4CF25030 		movw	r0, #50000
 657              	.LVL82:
 658 001a FFF7FEFF 		bl	FLASH_WaitForLastOperation
 659              	.LVL83:
 833:./Drivers/STM32F1xx_HAL_Driver/Src/stm32f1xx_hal_flash_ex.c ****   { 
 660              		.loc 1 833 0
 661 001e 0346     		mov	r3, r0
 662 0020 0028     		cmp	r0, #0
 663 0022 44D1     		bne	.L45
 836:./Drivers/STM32F1xx_HAL_Driver/Src/stm32f1xx_hal_flash_ex.c **** 
 664              		.loc 1 836 0
 665 0024 0022     		movs	r2, #0
 666 0026 234B     		ldr	r3, .L51
ARM GAS  /tmp/ccpVxzjx.s 			page 42


 667 0028 DA61     		str	r2, [r3, #28]
 839:./Drivers/STM32F1xx_HAL_Driver/Src/stm32f1xx_hal_flash_ex.c ****     if (status == HAL_OK)  
 668              		.loc 1 839 0
 669 002a FFF7FEFF 		bl	HAL_FLASHEx_OBErase
 670              	.LVL84:
 840:./Drivers/STM32F1xx_HAL_Driver/Src/stm32f1xx_hal_flash_ex.c ****     {
 671              		.loc 1 840 0
 672 002e 0346     		mov	r3, r0
 673 0030 0028     		cmp	r0, #0
 674 0032 3CD1     		bne	.L45
 842:./Drivers/STM32F1xx_HAL_Driver/Src/stm32f1xx_hal_flash_ex.c **** 
 675              		.loc 1 842 0
 676 0034 2049     		ldr	r1, .L51+4
 677 0036 0A69     		ldr	r2, [r1, #16]
 678 0038 42F01002 		orr	r2, r2, #16
 679 003c 0A61     		str	r2, [r1, #16]
 845:./Drivers/STM32F1xx_HAL_Driver/Src/stm32f1xx_hal_flash_ex.c ****       {
 680              		.loc 1 845 0
 681 003e FF2D     		cmp	r5, #255
 682 0040 09D0     		beq	.L46
 847:./Drivers/STM32F1xx_HAL_Driver/Src/stm32f1xx_hal_flash_ex.c ****         
 683              		.loc 1 847 0
 684 0042 1E4A     		ldr	r2, .L51+8
 685 0044 1389     		ldrh	r3, [r2, #8]
 686 0046 9BB2     		uxth	r3, r3
 687 0048 1D43     		orrs	r5, r5, r3
 688              	.LVL85:
 689 004a 1581     		strh	r5, [r2, #8]	@ movhi
 850:./Drivers/STM32F1xx_HAL_Driver/Src/stm32f1xx_hal_flash_ex.c ****       }
 690              		.loc 1 850 0
 691 004c 4CF25030 		movw	r0, #50000
 692              	.LVL86:
 693 0050 FFF7FEFF 		bl	FLASH_WaitForLastOperation
 694              	.LVL87:
 695 0054 0346     		mov	r3, r0
 696              	.LVL88:
 697              	.L46:
 855:./Drivers/STM32F1xx_HAL_Driver/Src/stm32f1xx_hal_flash_ex.c ****       {
 698              		.loc 1 855 0
 699 0056 5BB9     		cbnz	r3, .L47
 855:./Drivers/STM32F1xx_HAL_Driver/Src/stm32f1xx_hal_flash_ex.c ****       {
 700              		.loc 1 855 0 is_stmt 0 discriminator 1
 701 0058 FF2F     		cmp	r7, #255
 702 005a 09D0     		beq	.L47
 857:./Drivers/STM32F1xx_HAL_Driver/Src/stm32f1xx_hal_flash_ex.c ****         
 703              		.loc 1 857 0 is_stmt 1
 704 005c 174A     		ldr	r2, .L51+8
 705 005e 5389     		ldrh	r3, [r2, #10]
 706              	.LVL89:
 707 0060 9BB2     		uxth	r3, r3
 708 0062 1F43     		orrs	r7, r7, r3
 709              	.LVL90:
 710 0064 5781     		strh	r7, [r2, #10]	@ movhi
 860:./Drivers/STM32F1xx_HAL_Driver/Src/stm32f1xx_hal_flash_ex.c ****       }
 711              		.loc 1 860 0
 712 0066 4CF25030 		movw	r0, #50000
 713 006a FFF7FEFF 		bl	FLASH_WaitForLastOperation
ARM GAS  /tmp/ccpVxzjx.s 			page 43


 714              	.LVL91:
 715 006e 0346     		mov	r3, r0
 716              	.LVL92:
 717              	.L47:
 865:./Drivers/STM32F1xx_HAL_Driver/Src/stm32f1xx_hal_flash_ex.c ****       {
 718              		.loc 1 865 0
 719 0070 5BB9     		cbnz	r3, .L48
 865:./Drivers/STM32F1xx_HAL_Driver/Src/stm32f1xx_hal_flash_ex.c ****       {
 720              		.loc 1 865 0 is_stmt 0 discriminator 1
 721 0072 FF2E     		cmp	r6, #255
 722 0074 09D0     		beq	.L48
 867:./Drivers/STM32F1xx_HAL_Driver/Src/stm32f1xx_hal_flash_ex.c ****         
 723              		.loc 1 867 0 is_stmt 1
 724 0076 114A     		ldr	r2, .L51+8
 725 0078 9389     		ldrh	r3, [r2, #12]
 726              	.LVL93:
 727 007a 9BB2     		uxth	r3, r3
 728 007c 1E43     		orrs	r6, r6, r3
 729              	.LVL94:
 730 007e 9681     		strh	r6, [r2, #12]	@ movhi
 870:./Drivers/STM32F1xx_HAL_Driver/Src/stm32f1xx_hal_flash_ex.c ****       }
 731              		.loc 1 870 0
 732 0080 4CF25030 		movw	r0, #50000
 733 0084 FFF7FEFF 		bl	FLASH_WaitForLastOperation
 734              	.LVL95:
 735 0088 0346     		mov	r3, r0
 736              	.LVL96:
 737              	.L48:
 875:./Drivers/STM32F1xx_HAL_Driver/Src/stm32f1xx_hal_flash_ex.c ****       {
 738              		.loc 1 875 0
 739 008a 5BB9     		cbnz	r3, .L49
 875:./Drivers/STM32F1xx_HAL_Driver/Src/stm32f1xx_hal_flash_ex.c ****       {
 740              		.loc 1 875 0 is_stmt 0 discriminator 1
 741 008c FF2C     		cmp	r4, #255
 742 008e 09D0     		beq	.L49
 877:./Drivers/STM32F1xx_HAL_Driver/Src/stm32f1xx_hal_flash_ex.c ****         
 743              		.loc 1 877 0 is_stmt 1
 744 0090 0A4B     		ldr	r3, .L51+8
 745              	.LVL97:
 746 0092 D889     		ldrh	r0, [r3, #14]
 747 0094 80B2     		uxth	r0, r0
 748 0096 2043     		orrs	r0, r0, r4
 749 0098 D881     		strh	r0, [r3, #14]	@ movhi
 880:./Drivers/STM32F1xx_HAL_Driver/Src/stm32f1xx_hal_flash_ex.c ****       }
 750              		.loc 1 880 0
 751 009a 4CF25030 		movw	r0, #50000
 752 009e FFF7FEFF 		bl	FLASH_WaitForLastOperation
 753              	.LVL98:
 754 00a2 0346     		mov	r3, r0
 755              	.LVL99:
 756              	.L49:
 885:./Drivers/STM32F1xx_HAL_Driver/Src/stm32f1xx_hal_flash_ex.c ****     }
 757              		.loc 1 885 0
 758 00a4 0449     		ldr	r1, .L51+4
 759 00a6 0A69     		ldr	r2, [r1, #16]
 760 00a8 22F01002 		bic	r2, r2, #16
 761 00ac 0A61     		str	r2, [r1, #16]
ARM GAS  /tmp/ccpVxzjx.s 			page 44


 762              	.LVL100:
 763              	.L45:
 889:./Drivers/STM32F1xx_HAL_Driver/Src/stm32f1xx_hal_flash_ex.c **** 
 764              		.loc 1 889 0
 765 00ae 1846     		mov	r0, r3
 766 00b0 F8BD     		pop	{r3, r4, r5, r6, r7, pc}
 767              	.LVL101:
 768              	.L52:
 769 00b2 00BF     		.align	2
 770              	.L51:
 771 00b4 00000000 		.word	pFlash
 772 00b8 00200240 		.word	1073881088
 773 00bc 00F8FF1F 		.word	536868864
 774              		.cfi_endproc
 775              	.LFE71:
 777              		.section	.text.HAL_FLASHEx_OBProgram,"ax",%progbits
 778              		.align	2
 779              		.global	HAL_FLASHEx_OBProgram
 780              		.thumb
 781              		.thumb_func
 783              	HAL_FLASHEx_OBProgram:
 784              	.LFB66:
 464:./Drivers/STM32F1xx_HAL_Driver/Src/stm32f1xx_hal_flash_ex.c ****   HAL_StatusTypeDef status = HAL_ERROR;
 785              		.loc 1 464 0
 786              		.cfi_startproc
 787              		@ args = 0, pretend = 0, frame = 0
 788              		@ frame_needed = 0, uses_anonymous_args = 0
 789              	.LVL102:
 468:./Drivers/STM32F1xx_HAL_Driver/Src/stm32f1xx_hal_flash_ex.c **** 
 790              		.loc 1 468 0
 791 0000 274B     		ldr	r3, .L65
 792 0002 1B7E     		ldrb	r3, [r3, #24]	@ zero_extendqisi2
 793 0004 012B     		cmp	r3, #1
 794 0006 48D0     		beq	.L61
 464:./Drivers/STM32F1xx_HAL_Driver/Src/stm32f1xx_hal_flash_ex.c ****   HAL_StatusTypeDef status = HAL_ERROR;
 795              		.loc 1 464 0 discriminator 2
 796 0008 10B5     		push	{r4, lr}
 797              	.LCFI6:
 798              		.cfi_def_cfa_offset 8
 799              		.cfi_offset 4, -8
 800              		.cfi_offset 14, -4
 801 000a 0446     		mov	r4, r0
 468:./Drivers/STM32F1xx_HAL_Driver/Src/stm32f1xx_hal_flash_ex.c **** 
 802              		.loc 1 468 0 discriminator 2
 803 000c 0122     		movs	r2, #1
 804 000e 244B     		ldr	r3, .L65
 805 0010 1A76     		strb	r2, [r3, #24]
 474:./Drivers/STM32F1xx_HAL_Driver/Src/stm32f1xx_hal_flash_ex.c ****   {
 806              		.loc 1 474 0 discriminator 2
 807 0012 0368     		ldr	r3, [r0]
 808 0014 13F0010F 		tst	r3, #1
 809 0018 11D0     		beq	.L62
 477:./Drivers/STM32F1xx_HAL_Driver/Src/stm32f1xx_hal_flash_ex.c ****     {
 810              		.loc 1 477 0
 811 001a 4368     		ldr	r3, [r0, #4]
 812 001c 9342     		cmp	r3, r2
 813 001e 04D1     		bne	.L56
ARM GAS  /tmp/ccpVxzjx.s 			page 45


 480:./Drivers/STM32F1xx_HAL_Driver/Src/stm32f1xx_hal_flash_ex.c ****     }
 814              		.loc 1 480 0
 815 0020 8068     		ldr	r0, [r0, #8]
 816              	.LVL103:
 817 0022 FFF7FEFF 		bl	FLASH_OB_EnableWRP
 818              	.LVL104:
 819 0026 0346     		mov	r3, r0
 820              	.LVL105:
 821 0028 03E0     		b	.L57
 822              	.LVL106:
 823              	.L56:
 485:./Drivers/STM32F1xx_HAL_Driver/Src/stm32f1xx_hal_flash_ex.c ****     }
 824              		.loc 1 485 0
 825 002a 8068     		ldr	r0, [r0, #8]
 826              	.LVL107:
 827 002c FFF7FEFF 		bl	FLASH_OB_DisableWRP
 828              	.LVL108:
 829 0030 0346     		mov	r3, r0
 830              	.LVL109:
 831              	.L57:
 487:./Drivers/STM32F1xx_HAL_Driver/Src/stm32f1xx_hal_flash_ex.c ****     {
 832              		.loc 1 487 0
 833 0032 2BB1     		cbz	r3, .L55
 490:./Drivers/STM32F1xx_HAL_Driver/Src/stm32f1xx_hal_flash_ex.c ****       return status;
 834              		.loc 1 490 0
 835 0034 0021     		movs	r1, #0
 836 0036 1A4A     		ldr	r2, .L65
 837 0038 1176     		strb	r1, [r2, #24]
 491:./Drivers/STM32F1xx_HAL_Driver/Src/stm32f1xx_hal_flash_ex.c ****     }
 838              		.loc 1 491 0
 839 003a 1846     		mov	r0, r3
 840 003c 10BD     		pop	{r4, pc}
 841              	.LVL110:
 842              	.L62:
 465:./Drivers/STM32F1xx_HAL_Driver/Src/stm32f1xx_hal_flash_ex.c **** 
 843              		.loc 1 465 0
 844 003e 0123     		movs	r3, #1
 845              	.LVL111:
 846              	.L55:
 496:./Drivers/STM32F1xx_HAL_Driver/Src/stm32f1xx_hal_flash_ex.c ****   {
 847              		.loc 1 496 0
 848 0040 2268     		ldr	r2, [r4]
 849 0042 12F0020F 		tst	r2, #2
 850 0046 08D0     		beq	.L58
 498:./Drivers/STM32F1xx_HAL_Driver/Src/stm32f1xx_hal_flash_ex.c ****     if (status != HAL_OK)
 851              		.loc 1 498 0
 852 0048 207C     		ldrb	r0, [r4, #16]	@ zero_extendqisi2
 853 004a FFF7FEFF 		bl	FLASH_OB_RDP_LevelConfig
 854              	.LVL112:
 499:./Drivers/STM32F1xx_HAL_Driver/Src/stm32f1xx_hal_flash_ex.c ****     {
 855              		.loc 1 499 0
 856 004e 0346     		mov	r3, r0
 857 0050 18B1     		cbz	r0, .L58
 502:./Drivers/STM32F1xx_HAL_Driver/Src/stm32f1xx_hal_flash_ex.c ****       return status;
 858              		.loc 1 502 0
 859 0052 0021     		movs	r1, #0
 860 0054 124A     		ldr	r2, .L65
ARM GAS  /tmp/ccpVxzjx.s 			page 46


 861 0056 1176     		strb	r1, [r2, #24]
 503:./Drivers/STM32F1xx_HAL_Driver/Src/stm32f1xx_hal_flash_ex.c ****     }
 862              		.loc 1 503 0
 863 0058 10BD     		pop	{r4, pc}
 864              	.LVL113:
 865              	.L58:
 508:./Drivers/STM32F1xx_HAL_Driver/Src/stm32f1xx_hal_flash_ex.c ****   {
 866              		.loc 1 508 0
 867 005a 2268     		ldr	r2, [r4]
 868 005c 12F0040F 		tst	r2, #4
 869 0060 08D0     		beq	.L59
 510:./Drivers/STM32F1xx_HAL_Driver/Src/stm32f1xx_hal_flash_ex.c ****     if (status != HAL_OK)
 870              		.loc 1 510 0
 871 0062 607C     		ldrb	r0, [r4, #17]	@ zero_extendqisi2
 872 0064 FFF7FEFF 		bl	FLASH_OB_UserConfig
 873              	.LVL114:
 511:./Drivers/STM32F1xx_HAL_Driver/Src/stm32f1xx_hal_flash_ex.c ****     {
 874              		.loc 1 511 0
 875 0068 0346     		mov	r3, r0
 876 006a 18B1     		cbz	r0, .L59
 514:./Drivers/STM32F1xx_HAL_Driver/Src/stm32f1xx_hal_flash_ex.c ****       return status;
 877              		.loc 1 514 0
 878 006c 0021     		movs	r1, #0
 879 006e 0C4A     		ldr	r2, .L65
 880 0070 1176     		strb	r1, [r2, #24]
 515:./Drivers/STM32F1xx_HAL_Driver/Src/stm32f1xx_hal_flash_ex.c ****     }
 881              		.loc 1 515 0
 882 0072 10BD     		pop	{r4, pc}
 883              	.LVL115:
 884              	.L59:
 520:./Drivers/STM32F1xx_HAL_Driver/Src/stm32f1xx_hal_flash_ex.c ****   {
 885              		.loc 1 520 0
 886 0074 2268     		ldr	r2, [r4]
 887 0076 12F0080F 		tst	r2, #8
 888 007a 09D0     		beq	.L60
 522:./Drivers/STM32F1xx_HAL_Driver/Src/stm32f1xx_hal_flash_ex.c ****     if (status != HAL_OK)
 889              		.loc 1 522 0
 890 007c 6069     		ldr	r0, [r4, #20]
 891 007e 217E     		ldrb	r1, [r4, #24]	@ zero_extendqisi2
 892 0080 FFF7FEFF 		bl	FLASH_OB_ProgramData
 893              	.LVL116:
 523:./Drivers/STM32F1xx_HAL_Driver/Src/stm32f1xx_hal_flash_ex.c ****     {
 894              		.loc 1 523 0
 895 0084 0346     		mov	r3, r0
 896 0086 18B1     		cbz	r0, .L60
 526:./Drivers/STM32F1xx_HAL_Driver/Src/stm32f1xx_hal_flash_ex.c ****       return status;
 897              		.loc 1 526 0
 898 0088 0021     		movs	r1, #0
 899 008a 054A     		ldr	r2, .L65
 900 008c 1176     		strb	r1, [r2, #24]
 527:./Drivers/STM32F1xx_HAL_Driver/Src/stm32f1xx_hal_flash_ex.c ****     }
 901              		.loc 1 527 0
 902 008e 10BD     		pop	{r4, pc}
 903              	.LVL117:
 904              	.L60:
 532:./Drivers/STM32F1xx_HAL_Driver/Src/stm32f1xx_hal_flash_ex.c **** 
 905              		.loc 1 532 0
ARM GAS  /tmp/ccpVxzjx.s 			page 47


 906 0090 0021     		movs	r1, #0
 907 0092 034A     		ldr	r2, .L65
 908 0094 1176     		strb	r1, [r2, #24]
 534:./Drivers/STM32F1xx_HAL_Driver/Src/stm32f1xx_hal_flash_ex.c **** }
 909              		.loc 1 534 0
 910 0096 1846     		mov	r0, r3
 911 0098 10BD     		pop	{r4, pc}
 912              	.LVL118:
 913              	.L61:
 914              	.LCFI7:
 915              		.cfi_def_cfa_offset 0
 916              		.cfi_restore 4
 917              		.cfi_restore 14
 468:./Drivers/STM32F1xx_HAL_Driver/Src/stm32f1xx_hal_flash_ex.c **** 
 918              		.loc 1 468 0
 919 009a 0220     		movs	r0, #2
 920              	.LVL119:
 921 009c 7047     		bx	lr
 922              	.L66:
 923 009e 00BF     		.align	2
 924              	.L65:
 925 00a0 00000000 		.word	pFlash
 926              		.cfi_endproc
 927              	.LFE66:
 929              		.section	.text.HAL_FLASHEx_OBGetConfig,"ax",%progbits
 930              		.align	2
 931              		.global	HAL_FLASHEx_OBGetConfig
 932              		.thumb
 933              		.thumb_func
 935              	HAL_FLASHEx_OBGetConfig:
 936              	.LFB67:
 545:./Drivers/STM32F1xx_HAL_Driver/Src/stm32f1xx_hal_flash_ex.c ****   pOBInit->OptionType = OPTIONBYTE_WRP | OPTIONBYTE_RDP | OPTIONBYTE_USER;
 937              		.loc 1 545 0
 938              		.cfi_startproc
 939              		@ args = 0, pretend = 0, frame = 0
 940              		@ frame_needed = 0, uses_anonymous_args = 0
 941              	.LVL120:
 942 0000 10B5     		push	{r4, lr}
 943              	.LCFI8:
 944              		.cfi_def_cfa_offset 8
 945              		.cfi_offset 4, -8
 946              		.cfi_offset 14, -4
 947 0002 0446     		mov	r4, r0
 546:./Drivers/STM32F1xx_HAL_Driver/Src/stm32f1xx_hal_flash_ex.c **** 
 948              		.loc 1 546 0
 949 0004 0723     		movs	r3, #7
 950 0006 0360     		str	r3, [r0]
 549:./Drivers/STM32F1xx_HAL_Driver/Src/stm32f1xx_hal_flash_ex.c **** 
 951              		.loc 1 549 0
 952 0008 FFF7FEFF 		bl	FLASH_OB_GetWRP
 953              	.LVL121:
 954 000c A060     		str	r0, [r4, #8]
 552:./Drivers/STM32F1xx_HAL_Driver/Src/stm32f1xx_hal_flash_ex.c **** 
 955              		.loc 1 552 0
 956 000e FFF7FEFF 		bl	FLASH_OB_GetRDP
 957              	.LVL122:
 958 0012 2074     		strb	r0, [r4, #16]
ARM GAS  /tmp/ccpVxzjx.s 			page 48


 555:./Drivers/STM32F1xx_HAL_Driver/Src/stm32f1xx_hal_flash_ex.c **** }
 959              		.loc 1 555 0
 960 0014 FFF7FEFF 		bl	FLASH_OB_GetUser
 961              	.LVL123:
 962 0018 6074     		strb	r0, [r4, #17]
 963 001a 10BD     		pop	{r4, pc}
 964              		.cfi_endproc
 965              	.LFE67:
 967              		.section	.text.HAL_FLASHEx_OBGetUserData,"ax",%progbits
 968              		.align	2
 969              		.global	HAL_FLASHEx_OBGetUserData
 970              		.thumb
 971              		.thumb_func
 973              	HAL_FLASHEx_OBGetUserData:
 974              	.LFB68:
 567:./Drivers/STM32F1xx_HAL_Driver/Src/stm32f1xx_hal_flash_ex.c ****   uint32_t value = 0;
 975              		.loc 1 567 0
 976              		.cfi_startproc
 977              		@ args = 0, pretend = 0, frame = 0
 978              		@ frame_needed = 0, uses_anonymous_args = 0
 979              		@ link register save eliminated.
 980              	.LVL124:
 570:./Drivers/STM32F1xx_HAL_Driver/Src/stm32f1xx_hal_flash_ex.c ****   {
 981              		.loc 1 570 0
 982 0000 0D4B     		ldr	r3, .L72
 983 0002 9842     		cmp	r0, r3
 984 0004 0BD1     		bne	.L70
 573:./Drivers/STM32F1xx_HAL_Driver/Src/stm32f1xx_hal_flash_ex.c ****   }
 985              		.loc 1 573 0
 986 0006 0D4B     		ldr	r3, .L72+4
 987 0008 D869     		ldr	r0, [r3, #28]
 988              	.LVL125:
 989 000a 00F47F30 		and	r0, r0, #261120
 990              	.LVL126:
 991              	.LBB10:
 992              	.LBB11:
 993              		.loc 2 531 0
 994 000e 4FF47F33 		mov	r3, #261120
 995              	@ 531 "./Drivers/CMSIS/Include/cmsis_gcc.h" 1
 996 0012 93FAA3F3 		rbit r3, r3
 997              	@ 0 "" 2
 998              	.LVL127:
 999              		.thumb
 1000              	.LBE11:
 1001              	.LBE10:
 573:./Drivers/STM32F1xx_HAL_Driver/Src/stm32f1xx_hal_flash_ex.c ****   }
 1002              		.loc 1 573 0
 1003 0016 B3FA83F3 		clz	r3, r3
 1004              	.LVL128:
 1005 001a D840     		lsrs	r0, r0, r3
 1006              	.LVL129:
 1007 001c 7047     		bx	lr
 1008              	.LVL130:
 1009              	.L70:
 578:./Drivers/STM32F1xx_HAL_Driver/Src/stm32f1xx_hal_flash_ex.c ****   }
 1010              		.loc 1 578 0
 1011 001e 074B     		ldr	r3, .L72+4
ARM GAS  /tmp/ccpVxzjx.s 			page 49


 1012 0020 D869     		ldr	r0, [r3, #28]
 1013              	.LVL131:
 1014 0022 00F07F70 		and	r0, r0, #66846720
 1015              	.LVL132:
 1016              	.LBB12:
 1017              	.LBB13:
 1018              		.loc 2 531 0
 1019 0026 4FF07F73 		mov	r3, #66846720
 1020              	@ 531 "./Drivers/CMSIS/Include/cmsis_gcc.h" 1
 1021 002a 93FAA3F3 		rbit r3, r3
 1022              	@ 0 "" 2
 1023              	.LVL133:
 1024              		.thumb
 1025              	.LBE13:
 1026              	.LBE12:
 578:./Drivers/STM32F1xx_HAL_Driver/Src/stm32f1xx_hal_flash_ex.c ****   }
 1027              		.loc 1 578 0
 1028 002e B3FA83F3 		clz	r3, r3
 1029              	.LVL134:
 1030 0032 D840     		lsrs	r0, r0, r3
 1031              	.LVL135:
 582:./Drivers/STM32F1xx_HAL_Driver/Src/stm32f1xx_hal_flash_ex.c **** 
 1032              		.loc 1 582 0
 1033 0034 7047     		bx	lr
 1034              	.L73:
 1035 0036 00BF     		.align	2
 1036              	.L72:
 1037 0038 04F8FF1F 		.word	536868868
 1038 003c 00200240 		.word	1073881088
 1039              		.cfi_endproc
 1040              	.LFE68:
 1042              		.section	.text.FLASH_PageErase,"ax",%progbits
 1043              		.align	2
 1044              		.global	FLASH_PageErase
 1045              		.thumb
 1046              		.thumb_func
 1048              	FLASH_PageErase:
 1049              	.LFB78:
1078:./Drivers/STM32F1xx_HAL_Driver/Src/stm32f1xx_hal_flash_ex.c **** 
1079:./Drivers/STM32F1xx_HAL_Driver/Src/stm32f1xx_hal_flash_ex.c **** /**
1080:./Drivers/STM32F1xx_HAL_Driver/Src/stm32f1xx_hal_flash_ex.c ****   * @}
1081:./Drivers/STM32F1xx_HAL_Driver/Src/stm32f1xx_hal_flash_ex.c ****   */
1082:./Drivers/STM32F1xx_HAL_Driver/Src/stm32f1xx_hal_flash_ex.c **** 
1083:./Drivers/STM32F1xx_HAL_Driver/Src/stm32f1xx_hal_flash_ex.c **** /**
1084:./Drivers/STM32F1xx_HAL_Driver/Src/stm32f1xx_hal_flash_ex.c ****   * @}
1085:./Drivers/STM32F1xx_HAL_Driver/Src/stm32f1xx_hal_flash_ex.c ****   */
1086:./Drivers/STM32F1xx_HAL_Driver/Src/stm32f1xx_hal_flash_ex.c **** 
1087:./Drivers/STM32F1xx_HAL_Driver/Src/stm32f1xx_hal_flash_ex.c **** /** @addtogroup FLASH
1088:./Drivers/STM32F1xx_HAL_Driver/Src/stm32f1xx_hal_flash_ex.c ****   * @{
1089:./Drivers/STM32F1xx_HAL_Driver/Src/stm32f1xx_hal_flash_ex.c ****   */
1090:./Drivers/STM32F1xx_HAL_Driver/Src/stm32f1xx_hal_flash_ex.c **** 
1091:./Drivers/STM32F1xx_HAL_Driver/Src/stm32f1xx_hal_flash_ex.c **** /** @addtogroup FLASH_Private_Functions
1092:./Drivers/STM32F1xx_HAL_Driver/Src/stm32f1xx_hal_flash_ex.c ****  * @{
1093:./Drivers/STM32F1xx_HAL_Driver/Src/stm32f1xx_hal_flash_ex.c ****  */
1094:./Drivers/STM32F1xx_HAL_Driver/Src/stm32f1xx_hal_flash_ex.c **** 
1095:./Drivers/STM32F1xx_HAL_Driver/Src/stm32f1xx_hal_flash_ex.c **** /**
1096:./Drivers/STM32F1xx_HAL_Driver/Src/stm32f1xx_hal_flash_ex.c ****   * @brief  Erase the specified FLASH memory page
ARM GAS  /tmp/ccpVxzjx.s 			page 50


1097:./Drivers/STM32F1xx_HAL_Driver/Src/stm32f1xx_hal_flash_ex.c ****   * @param  PageAddress FLASH page to erase
1098:./Drivers/STM32F1xx_HAL_Driver/Src/stm32f1xx_hal_flash_ex.c ****   *         The value of this parameter depend on device used within the same series      
1099:./Drivers/STM32F1xx_HAL_Driver/Src/stm32f1xx_hal_flash_ex.c ****   * 
1100:./Drivers/STM32F1xx_HAL_Driver/Src/stm32f1xx_hal_flash_ex.c ****   * @retval None
1101:./Drivers/STM32F1xx_HAL_Driver/Src/stm32f1xx_hal_flash_ex.c ****   */
1102:./Drivers/STM32F1xx_HAL_Driver/Src/stm32f1xx_hal_flash_ex.c **** void FLASH_PageErase(uint32_t PageAddress)
1103:./Drivers/STM32F1xx_HAL_Driver/Src/stm32f1xx_hal_flash_ex.c **** {
 1050              		.loc 1 1103 0
 1051              		.cfi_startproc
 1052              		@ args = 0, pretend = 0, frame = 0
 1053              		@ frame_needed = 0, uses_anonymous_args = 0
 1054              		@ link register save eliminated.
 1055              	.LVL136:
1104:./Drivers/STM32F1xx_HAL_Driver/Src/stm32f1xx_hal_flash_ex.c ****   /* Clean the error context */
1105:./Drivers/STM32F1xx_HAL_Driver/Src/stm32f1xx_hal_flash_ex.c ****   pFlash.ErrorCode = HAL_FLASH_ERROR_NONE;
 1056              		.loc 1 1105 0
 1057 0000 0022     		movs	r2, #0
 1058 0002 064B     		ldr	r3, .L75
 1059 0004 DA61     		str	r2, [r3, #28]
1106:./Drivers/STM32F1xx_HAL_Driver/Src/stm32f1xx_hal_flash_ex.c **** 
1107:./Drivers/STM32F1xx_HAL_Driver/Src/stm32f1xx_hal_flash_ex.c **** #if defined(FLASH_BANK2_END)
1108:./Drivers/STM32F1xx_HAL_Driver/Src/stm32f1xx_hal_flash_ex.c ****   if(PageAddress > FLASH_BANK1_END)
1109:./Drivers/STM32F1xx_HAL_Driver/Src/stm32f1xx_hal_flash_ex.c ****   { 
1110:./Drivers/STM32F1xx_HAL_Driver/Src/stm32f1xx_hal_flash_ex.c ****     /* Proceed to erase the page */
1111:./Drivers/STM32F1xx_HAL_Driver/Src/stm32f1xx_hal_flash_ex.c ****     SET_BIT(FLASH->CR2, FLASH_CR2_PER);
1112:./Drivers/STM32F1xx_HAL_Driver/Src/stm32f1xx_hal_flash_ex.c ****     WRITE_REG(FLASH->AR2, PageAddress);
1113:./Drivers/STM32F1xx_HAL_Driver/Src/stm32f1xx_hal_flash_ex.c ****     SET_BIT(FLASH->CR2, FLASH_CR2_STRT);
1114:./Drivers/STM32F1xx_HAL_Driver/Src/stm32f1xx_hal_flash_ex.c ****   }
1115:./Drivers/STM32F1xx_HAL_Driver/Src/stm32f1xx_hal_flash_ex.c ****   else
1116:./Drivers/STM32F1xx_HAL_Driver/Src/stm32f1xx_hal_flash_ex.c ****   {
1117:./Drivers/STM32F1xx_HAL_Driver/Src/stm32f1xx_hal_flash_ex.c **** #endif /* FLASH_BANK2_END */
1118:./Drivers/STM32F1xx_HAL_Driver/Src/stm32f1xx_hal_flash_ex.c ****     /* Proceed to erase the page */
1119:./Drivers/STM32F1xx_HAL_Driver/Src/stm32f1xx_hal_flash_ex.c ****     SET_BIT(FLASH->CR, FLASH_CR_PER);
 1060              		.loc 1 1119 0
 1061 0006 064B     		ldr	r3, .L75+4
 1062 0008 1A69     		ldr	r2, [r3, #16]
 1063 000a 42F00202 		orr	r2, r2, #2
 1064 000e 1A61     		str	r2, [r3, #16]
1120:./Drivers/STM32F1xx_HAL_Driver/Src/stm32f1xx_hal_flash_ex.c ****     WRITE_REG(FLASH->AR, PageAddress);
 1065              		.loc 1 1120 0
 1066 0010 5861     		str	r0, [r3, #20]
1121:./Drivers/STM32F1xx_HAL_Driver/Src/stm32f1xx_hal_flash_ex.c ****     SET_BIT(FLASH->CR, FLASH_CR_STRT);
 1067              		.loc 1 1121 0
 1068 0012 1A69     		ldr	r2, [r3, #16]
 1069 0014 42F04002 		orr	r2, r2, #64
 1070 0018 1A61     		str	r2, [r3, #16]
 1071 001a 7047     		bx	lr
 1072              	.L76:
 1073              		.align	2
 1074              	.L75:
 1075 001c 00000000 		.word	pFlash
 1076 0020 00200240 		.word	1073881088
 1077              		.cfi_endproc
 1078              	.LFE78:
 1080              		.section	.text.HAL_FLASHEx_Erase,"ax",%progbits
 1081              		.align	2
 1082              		.global	HAL_FLASHEx_Erase
ARM GAS  /tmp/ccpVxzjx.s 			page 51


 1083              		.thumb
 1084              		.thumb_func
 1086              	HAL_FLASHEx_Erase:
 1087              	.LFB63:
 177:./Drivers/STM32F1xx_HAL_Driver/Src/stm32f1xx_hal_flash_ex.c ****   HAL_StatusTypeDef status = HAL_ERROR;
 1088              		.loc 1 177 0
 1089              		.cfi_startproc
 1090              		@ args = 0, pretend = 0, frame = 0
 1091              		@ frame_needed = 0, uses_anonymous_args = 0
 1092              	.LVL137:
 182:./Drivers/STM32F1xx_HAL_Driver/Src/stm32f1xx_hal_flash_ex.c **** 
 1093              		.loc 1 182 0
 1094 0000 264B     		ldr	r3, .L89
 1095 0002 1B7E     		ldrb	r3, [r3, #24]	@ zero_extendqisi2
 1096 0004 012B     		cmp	r3, #1
 1097 0006 47D0     		beq	.L84
 177:./Drivers/STM32F1xx_HAL_Driver/Src/stm32f1xx_hal_flash_ex.c ****   HAL_StatusTypeDef status = HAL_ERROR;
 1098              		.loc 1 177 0 discriminator 2
 1099 0008 70B5     		push	{r4, r5, r6, lr}
 1100              	.LCFI9:
 1101              		.cfi_def_cfa_offset 16
 1102              		.cfi_offset 4, -16
 1103              		.cfi_offset 5, -12
 1104              		.cfi_offset 6, -8
 1105              		.cfi_offset 14, -4
 1106 000a 0E46     		mov	r6, r1
 1107 000c 0546     		mov	r5, r0
 182:./Drivers/STM32F1xx_HAL_Driver/Src/stm32f1xx_hal_flash_ex.c **** 
 1108              		.loc 1 182 0 discriminator 2
 1109 000e 0122     		movs	r2, #1
 1110 0010 224B     		ldr	r3, .L89
 1111 0012 1A76     		strb	r2, [r3, #24]
 187:./Drivers/STM32F1xx_HAL_Driver/Src/stm32f1xx_hal_flash_ex.c ****   {
 1112              		.loc 1 187 0 discriminator 2
 1113 0014 0368     		ldr	r3, [r0]
 1114 0016 022B     		cmp	r3, #2
 1115 0018 12D1     		bne	.L79
 233:./Drivers/STM32F1xx_HAL_Driver/Src/stm32f1xx_hal_flash_ex.c ****       {
 1116              		.loc 1 233 0
 1117 001a 4CF25030 		movw	r0, #50000
 1118              	.LVL138:
 1119 001e FFF7FEFF 		bl	FLASH_WaitForLastOperation
 1120              	.LVL139:
 1121 0022 88BB     		cbnz	r0, .L85
 236:./Drivers/STM32F1xx_HAL_Driver/Src/stm32f1xx_hal_flash_ex.c ****         
 1122              		.loc 1 236 0
 1123 0024 0120     		movs	r0, #1
 1124 0026 FFF7FEFF 		bl	FLASH_MassErase
 1125              	.LVL140:
 239:./Drivers/STM32F1xx_HAL_Driver/Src/stm32f1xx_hal_flash_ex.c ****         
 1126              		.loc 1 239 0
 1127 002a 4CF25030 		movw	r0, #50000
 1128 002e FFF7FEFF 		bl	FLASH_WaitForLastOperation
 1129              	.LVL141:
 1130 0032 0246     		mov	r2, r0
 1131              	.LVL142:
 242:./Drivers/STM32F1xx_HAL_Driver/Src/stm32f1xx_hal_flash_ex.c ****       }
ARM GAS  /tmp/ccpVxzjx.s 			page 52


 1132              		.loc 1 242 0
 1133 0034 1A49     		ldr	r1, .L89+4
 1134 0036 0B69     		ldr	r3, [r1, #16]
 1135 0038 23F00403 		bic	r3, r3, #4
 1136 003c 0B61     		str	r3, [r1, #16]
 1137 003e 26E0     		b	.L80
 1138              	.LVL143:
 1139              	.L79:
 290:./Drivers/STM32F1xx_HAL_Driver/Src/stm32f1xx_hal_flash_ex.c ****       {
 1140              		.loc 1 290 0
 1141 0040 4CF25030 		movw	r0, #50000
 1142              	.LVL144:
 1143 0044 FFF7FEFF 		bl	FLASH_WaitForLastOperation
 1144              	.LVL145:
 1145 0048 00BB     		cbnz	r0, .L86
 293:./Drivers/STM32F1xx_HAL_Driver/Src/stm32f1xx_hal_flash_ex.c ****         
 1146              		.loc 1 293 0
 1147 004a 4FF0FF33 		mov	r3, #-1
 1148 004e 3360     		str	r3, [r6]
 296:./Drivers/STM32F1xx_HAL_Driver/Src/stm32f1xx_hal_flash_ex.c ****             address < ((pEraseInit->NbPages * FLASH_PAGE_SIZE) + pEraseInit->PageAddress);
 1149              		.loc 1 296 0
 1150 0050 AC68     		ldr	r4, [r5, #8]
 1151              	.LVL146:
 178:./Drivers/STM32F1xx_HAL_Driver/Src/stm32f1xx_hal_flash_ex.c ****   uint32_t address = 0;
 1152              		.loc 1 178 0
 1153 0052 0122     		movs	r2, #1
 296:./Drivers/STM32F1xx_HAL_Driver/Src/stm32f1xx_hal_flash_ex.c ****             address < ((pEraseInit->NbPages * FLASH_PAGE_SIZE) + pEraseInit->PageAddress);
 1154              		.loc 1 296 0
 1155 0054 11E0     		b	.L81
 1156              	.LVL147:
 1157              	.L83:
 300:./Drivers/STM32F1xx_HAL_Driver/Src/stm32f1xx_hal_flash_ex.c ****           
 1158              		.loc 1 300 0
 1159 0056 2046     		mov	r0, r4
 1160 0058 FFF7FEFF 		bl	FLASH_PageErase
 1161              	.LVL148:
 303:./Drivers/STM32F1xx_HAL_Driver/Src/stm32f1xx_hal_flash_ex.c ****           
 1162              		.loc 1 303 0
 1163 005c 4CF25030 		movw	r0, #50000
 1164 0060 FFF7FEFF 		bl	FLASH_WaitForLastOperation
 1165              	.LVL149:
 306:./Drivers/STM32F1xx_HAL_Driver/Src/stm32f1xx_hal_flash_ex.c ****           
 1166              		.loc 1 306 0
 1167 0064 0E4A     		ldr	r2, .L89+4
 1168 0066 1369     		ldr	r3, [r2, #16]
 1169 0068 23F00203 		bic	r3, r3, #2
 1170 006c 1361     		str	r3, [r2, #16]
 308:./Drivers/STM32F1xx_HAL_Driver/Src/stm32f1xx_hal_flash_ex.c ****           {
 1171              		.loc 1 308 0
 1172 006e 0246     		mov	r2, r0
 1173 0070 08B1     		cbz	r0, .L82
 311:./Drivers/STM32F1xx_HAL_Driver/Src/stm32f1xx_hal_flash_ex.c ****             break;
 1174              		.loc 1 311 0
 1175 0072 3460     		str	r4, [r6]
 312:./Drivers/STM32F1xx_HAL_Driver/Src/stm32f1xx_hal_flash_ex.c ****           }
 1176              		.loc 1 312 0
 1177 0074 0BE0     		b	.L80
ARM GAS  /tmp/ccpVxzjx.s 			page 53


 1178              	.L82:
 298:./Drivers/STM32F1xx_HAL_Driver/Src/stm32f1xx_hal_flash_ex.c ****         {
 1179              		.loc 1 298 0
 1180 0076 04F50064 		add	r4, r4, #2048
 1181              	.LVL150:
 1182              	.L81:
 297:./Drivers/STM32F1xx_HAL_Driver/Src/stm32f1xx_hal_flash_ex.c ****             address += FLASH_PAGE_SIZE)
 1183              		.loc 1 297 0 discriminator 1
 1184 007a E968     		ldr	r1, [r5, #12]
 1185 007c AB68     		ldr	r3, [r5, #8]
 1186 007e 03EBC123 		add	r3, r3, r1, lsl #11
 296:./Drivers/STM32F1xx_HAL_Driver/Src/stm32f1xx_hal_flash_ex.c ****             address < ((pEraseInit->NbPages * FLASH_PAGE_SIZE) + pEraseInit->PageAddress);
 1187              		.loc 1 296 0 discriminator 1
 1188 0082 A342     		cmp	r3, r4
 1189 0084 E7D8     		bhi	.L83
 1190 0086 02E0     		b	.L80
 1191              	.LVL151:
 1192              	.L85:
 178:./Drivers/STM32F1xx_HAL_Driver/Src/stm32f1xx_hal_flash_ex.c ****   uint32_t address = 0;
 1193              		.loc 1 178 0
 1194 0088 0122     		movs	r2, #1
 1195 008a 00E0     		b	.L80
 1196              	.L86:
 1197 008c 0122     		movs	r2, #1
 1198              	.LVL152:
 1199              	.L80:
 320:./Drivers/STM32F1xx_HAL_Driver/Src/stm32f1xx_hal_flash_ex.c **** 
 1200              		.loc 1 320 0
 1201 008e 0021     		movs	r1, #0
 1202 0090 024B     		ldr	r3, .L89
 1203 0092 1976     		strb	r1, [r3, #24]
 322:./Drivers/STM32F1xx_HAL_Driver/Src/stm32f1xx_hal_flash_ex.c **** }
 1204              		.loc 1 322 0
 1205 0094 1046     		mov	r0, r2
 1206 0096 70BD     		pop	{r4, r5, r6, pc}
 1207              	.LVL153:
 1208              	.L84:
 1209              	.LCFI10:
 1210              		.cfi_def_cfa_offset 0
 1211              		.cfi_restore 4
 1212              		.cfi_restore 5
 1213              		.cfi_restore 6
 1214              		.cfi_restore 14
 182:./Drivers/STM32F1xx_HAL_Driver/Src/stm32f1xx_hal_flash_ex.c **** 
 1215              		.loc 1 182 0
 1216 0098 0220     		movs	r0, #2
 1217              	.LVL154:
 1218 009a 7047     		bx	lr
 1219              	.L90:
 1220              		.align	2
 1221              	.L89:
 1222 009c 00000000 		.word	pFlash
 1223 00a0 00200240 		.word	1073881088
 1224              		.cfi_endproc
 1225              	.LFE63:
 1227              		.section	.text.HAL_FLASHEx_Erase_IT,"ax",%progbits
 1228              		.align	2
ARM GAS  /tmp/ccpVxzjx.s 			page 54


 1229              		.global	HAL_FLASHEx_Erase_IT
 1230              		.thumb
 1231              		.thumb_func
 1233              	HAL_FLASHEx_Erase_IT:
 1234              	.LFB64:
 337:./Drivers/STM32F1xx_HAL_Driver/Src/stm32f1xx_hal_flash_ex.c ****   HAL_StatusTypeDef status = HAL_OK;
 1235              		.loc 1 337 0
 1236              		.cfi_startproc
 1237              		@ args = 0, pretend = 0, frame = 0
 1238              		@ frame_needed = 0, uses_anonymous_args = 0
 1239              	.LVL155:
 1240 0000 08B5     		push	{r3, lr}
 1241              	.LCFI11:
 1242              		.cfi_def_cfa_offset 8
 1243              		.cfi_offset 3, -8
 1244              		.cfi_offset 14, -4
 1245              	.LVL156:
 341:./Drivers/STM32F1xx_HAL_Driver/Src/stm32f1xx_hal_flash_ex.c **** 
 1246              		.loc 1 341 0
 1247 0002 154B     		ldr	r3, .L97
 1248 0004 1B7E     		ldrb	r3, [r3, #24]	@ zero_extendqisi2
 1249 0006 012B     		cmp	r3, #1
 1250 0008 22D0     		beq	.L94
 341:./Drivers/STM32F1xx_HAL_Driver/Src/stm32f1xx_hal_flash_ex.c **** 
 1251              		.loc 1 341 0 is_stmt 0 discriminator 2
 1252 000a 134B     		ldr	r3, .L97
 1253 000c 0122     		movs	r2, #1
 1254 000e 1A76     		strb	r2, [r3, #24]
 344:./Drivers/STM32F1xx_HAL_Driver/Src/stm32f1xx_hal_flash_ex.c ****   {
 1255              		.loc 1 344 0 is_stmt 1 discriminator 2
 1256 0010 1B78     		ldrb	r3, [r3]	@ zero_extendqisi2
 1257 0012 13F0FF0F 		tst	r3, #255
 1258 0016 1DD1     		bne	.L95
 353:./Drivers/STM32F1xx_HAL_Driver/Src/stm32f1xx_hal_flash_ex.c **** 
 1259              		.loc 1 353 0
 1260 0018 104A     		ldr	r2, .L97+4
 1261 001a 1369     		ldr	r3, [r2, #16]
 1262 001c 43F4A053 		orr	r3, r3, #5120
 1263 0020 1361     		str	r3, [r2, #16]
 360:./Drivers/STM32F1xx_HAL_Driver/Src/stm32f1xx_hal_flash_ex.c ****   {
 1264              		.loc 1 360 0
 1265 0022 0368     		ldr	r3, [r0]
 1266 0024 022B     		cmp	r3, #2
 1267 0026 07D1     		bne	.L93
 363:./Drivers/STM32F1xx_HAL_Driver/Src/stm32f1xx_hal_flash_ex.c ****         FLASH_MassErase(pEraseInit->Banks);
 1268              		.loc 1 363 0
 1269 0028 0222     		movs	r2, #2
 1270 002a 0B4B     		ldr	r3, .L97
 1271 002c 1A70     		strb	r2, [r3]
 364:./Drivers/STM32F1xx_HAL_Driver/Src/stm32f1xx_hal_flash_ex.c ****   }
 1272              		.loc 1 364 0
 1273 002e 4068     		ldr	r0, [r0, #4]
 1274              	.LVL157:
 1275 0030 FFF7FEFF 		bl	FLASH_MassErase
 1276              	.LVL158:
 382:./Drivers/STM32F1xx_HAL_Driver/Src/stm32f1xx_hal_flash_ex.c **** }
 1277              		.loc 1 382 0
ARM GAS  /tmp/ccpVxzjx.s 			page 55


 1278 0034 0020     		movs	r0, #0
 1279 0036 08BD     		pop	{r3, pc}
 1280              	.LVL159:
 1281              	.L93:
 374:./Drivers/STM32F1xx_HAL_Driver/Src/stm32f1xx_hal_flash_ex.c ****     pFlash.DataRemaining = pEraseInit->NbPages;
 1282              		.loc 1 374 0
 1283 0038 074B     		ldr	r3, .L97
 1284 003a 0122     		movs	r2, #1
 1285 003c 1A70     		strb	r2, [r3]
 375:./Drivers/STM32F1xx_HAL_Driver/Src/stm32f1xx_hal_flash_ex.c ****     pFlash.Address = pEraseInit->PageAddress;
 1286              		.loc 1 375 0
 1287 003e C268     		ldr	r2, [r0, #12]
 1288 0040 5A60     		str	r2, [r3, #4]
 376:./Drivers/STM32F1xx_HAL_Driver/Src/stm32f1xx_hal_flash_ex.c **** 
 1289              		.loc 1 376 0
 1290 0042 8268     		ldr	r2, [r0, #8]
 1291 0044 9A60     		str	r2, [r3, #8]
 379:./Drivers/STM32F1xx_HAL_Driver/Src/stm32f1xx_hal_flash_ex.c ****   }
 1292              		.loc 1 379 0
 1293 0046 8068     		ldr	r0, [r0, #8]
 1294              	.LVL160:
 1295 0048 FFF7FEFF 		bl	FLASH_PageErase
 1296              	.LVL161:
 382:./Drivers/STM32F1xx_HAL_Driver/Src/stm32f1xx_hal_flash_ex.c **** }
 1297              		.loc 1 382 0
 1298 004c 0020     		movs	r0, #0
 1299 004e 08BD     		pop	{r3, pc}
 1300              	.LVL162:
 1301              	.L94:
 341:./Drivers/STM32F1xx_HAL_Driver/Src/stm32f1xx_hal_flash_ex.c **** 
 1302              		.loc 1 341 0
 1303 0050 0220     		movs	r0, #2
 1304              	.LVL163:
 1305 0052 08BD     		pop	{r3, pc}
 1306              	.LVL164:
 1307              	.L95:
 346:./Drivers/STM32F1xx_HAL_Driver/Src/stm32f1xx_hal_flash_ex.c ****   }
 1308              		.loc 1 346 0
 1309 0054 0120     		movs	r0, #1
 1310              	.LVL165:
 383:./Drivers/STM32F1xx_HAL_Driver/Src/stm32f1xx_hal_flash_ex.c **** 
 1311              		.loc 1 383 0
 1312 0056 08BD     		pop	{r3, pc}
 1313              	.L98:
 1314              		.align	2
 1315              	.L97:
 1316 0058 00000000 		.word	pFlash
 1317 005c 00200240 		.word	1073881088
 1318              		.cfi_endproc
 1319              	.LFE64:
 1321              		.text
 1322              	.Letext0:
 1323              		.file 3 "/usr/include/newlib/machine/_default_types.h"
 1324              		.file 4 "/usr/include/newlib/sys/_stdint.h"
 1325              		.file 5 "./Drivers/CMSIS/Device/ST/STM32F1xx/Include/stm32f103xe.h"
 1326              		.file 6 "./Drivers/STM32F1xx_HAL_Driver/Inc/stm32f1xx_hal_def.h"
 1327              		.file 7 "./Drivers/STM32F1xx_HAL_Driver/Inc/stm32f1xx_hal_flash.h"
ARM GAS  /tmp/ccpVxzjx.s 			page 56


 1328              		.file 8 "./Drivers/STM32F1xx_HAL_Driver/Inc/stm32f1xx_hal_flash_ex.h"
 1329              		.file 9 "./Drivers/CMSIS/Include/core_cm3.h"
ARM GAS  /tmp/ccpVxzjx.s 			page 57


DEFINED SYMBOLS
                            *ABS*:0000000000000000 stm32f1xx_hal_flash_ex.c
     /tmp/ccpVxzjx.s:19     .text.FLASH_MassErase:0000000000000000 $t
     /tmp/ccpVxzjx.s:23     .text.FLASH_MassErase:0000000000000000 FLASH_MassErase
     /tmp/ccpVxzjx.s:49     .text.FLASH_MassErase:000000000000001c $d
     /tmp/ccpVxzjx.s:55     .text.FLASH_OB_GetWRP:0000000000000000 $t
     /tmp/ccpVxzjx.s:59     .text.FLASH_OB_GetWRP:0000000000000000 FLASH_OB_GetWRP
     /tmp/ccpVxzjx.s:74     .text.FLASH_OB_GetWRP:0000000000000008 $d
     /tmp/ccpVxzjx.s:79     .text.FLASH_OB_GetRDP:0000000000000000 $t
     /tmp/ccpVxzjx.s:83     .text.FLASH_OB_GetRDP:0000000000000000 FLASH_OB_GetRDP
     /tmp/ccpVxzjx.s:110    .text.FLASH_OB_GetRDP:0000000000000014 $d
     /tmp/ccpVxzjx.s:115    .text.FLASH_OB_RDP_LevelConfig:0000000000000000 $t
     /tmp/ccpVxzjx.s:119    .text.FLASH_OB_RDP_LevelConfig:0000000000000000 FLASH_OB_RDP_LevelConfig
     /tmp/ccpVxzjx.s:196    .text.FLASH_OB_RDP_LevelConfig:0000000000000060 $d
     /tmp/ccpVxzjx.s:203    .text.FLASH_OB_UserConfig:0000000000000000 $t
     /tmp/ccpVxzjx.s:207    .text.FLASH_OB_UserConfig:0000000000000000 FLASH_OB_UserConfig
     /tmp/ccpVxzjx.s:264    .text.FLASH_OB_UserConfig:0000000000000040 $d
     /tmp/ccpVxzjx.s:271    .text.FLASH_OB_ProgramData:0000000000000000 $t
     /tmp/ccpVxzjx.s:275    .text.FLASH_OB_ProgramData:0000000000000000 FLASH_OB_ProgramData
     /tmp/ccpVxzjx.s:332    .text.FLASH_OB_ProgramData:000000000000003c $d
     /tmp/ccpVxzjx.s:338    .text.FLASH_OB_GetUser:0000000000000000 $t
     /tmp/ccpVxzjx.s:342    .text.FLASH_OB_GetUser:0000000000000000 FLASH_OB_GetUser
     /tmp/ccpVxzjx.s:376    .text.FLASH_OB_GetUser:0000000000000018 $d
     /tmp/ccpVxzjx.s:381    .text.HAL_FLASHEx_OBErase:0000000000000000 $t
     /tmp/ccpVxzjx.s:386    .text.HAL_FLASHEx_OBErase:0000000000000000 HAL_FLASHEx_OBErase
     /tmp/ccpVxzjx.s:452    .text.HAL_FLASHEx_OBErase:000000000000004c $d
     /tmp/ccpVxzjx.s:458    .text.FLASH_OB_EnableWRP:0000000000000000 $t
     /tmp/ccpVxzjx.s:462    .text.FLASH_OB_EnableWRP:0000000000000000 FLASH_OB_EnableWRP
     /tmp/ccpVxzjx.s:609    .text.FLASH_OB_EnableWRP:00000000000000ac $d
     /tmp/ccpVxzjx.s:616    .text.FLASH_OB_DisableWRP:0000000000000000 $t
     /tmp/ccpVxzjx.s:620    .text.FLASH_OB_DisableWRP:0000000000000000 FLASH_OB_DisableWRP
     /tmp/ccpVxzjx.s:771    .text.FLASH_OB_DisableWRP:00000000000000b4 $d
     /tmp/ccpVxzjx.s:778    .text.HAL_FLASHEx_OBProgram:0000000000000000 $t
     /tmp/ccpVxzjx.s:783    .text.HAL_FLASHEx_OBProgram:0000000000000000 HAL_FLASHEx_OBProgram
     /tmp/ccpVxzjx.s:925    .text.HAL_FLASHEx_OBProgram:00000000000000a0 $d
     /tmp/ccpVxzjx.s:930    .text.HAL_FLASHEx_OBGetConfig:0000000000000000 $t
     /tmp/ccpVxzjx.s:935    .text.HAL_FLASHEx_OBGetConfig:0000000000000000 HAL_FLASHEx_OBGetConfig
     /tmp/ccpVxzjx.s:968    .text.HAL_FLASHEx_OBGetUserData:0000000000000000 $t
     /tmp/ccpVxzjx.s:973    .text.HAL_FLASHEx_OBGetUserData:0000000000000000 HAL_FLASHEx_OBGetUserData
     /tmp/ccpVxzjx.s:1037   .text.HAL_FLASHEx_OBGetUserData:0000000000000038 $d
     /tmp/ccpVxzjx.s:1043   .text.FLASH_PageErase:0000000000000000 $t
     /tmp/ccpVxzjx.s:1048   .text.FLASH_PageErase:0000000000000000 FLASH_PageErase
     /tmp/ccpVxzjx.s:1075   .text.FLASH_PageErase:000000000000001c $d
     /tmp/ccpVxzjx.s:1081   .text.HAL_FLASHEx_Erase:0000000000000000 $t
     /tmp/ccpVxzjx.s:1086   .text.HAL_FLASHEx_Erase:0000000000000000 HAL_FLASHEx_Erase
     /tmp/ccpVxzjx.s:1222   .text.HAL_FLASHEx_Erase:000000000000009c $d
     /tmp/ccpVxzjx.s:1228   .text.HAL_FLASHEx_Erase_IT:0000000000000000 $t
     /tmp/ccpVxzjx.s:1233   .text.HAL_FLASHEx_Erase_IT:0000000000000000 HAL_FLASHEx_Erase_IT
     /tmp/ccpVxzjx.s:1316   .text.HAL_FLASHEx_Erase_IT:0000000000000058 $d
                     .debug_frame:0000000000000010 $d

UNDEFINED SYMBOLS
pFlash
FLASH_WaitForLastOperation
