ARM GAS  /tmp/ccmw1d2H.s 			page 1


   1              		.syntax unified
   2              		.cpu cortex-m3
   3              		.fpu softvfp
   4              		.eabi_attribute 20, 1
   5              		.eabi_attribute 21, 1
   6              		.eabi_attribute 23, 3
   7              		.eabi_attribute 24, 1
   8              		.eabi_attribute 25, 1
   9              		.eabi_attribute 26, 1
  10              		.eabi_attribute 30, 1
  11              		.eabi_attribute 34, 1
  12              		.eabi_attribute 18, 4
  13              		.thumb
  14              		.file	"stm32f1xx_hal_iwdg.c"
  15              		.text
  16              	.Ltext0:
  17              		.cfi_sections	.debug_frame
  18              		.section	.text.HAL_IWDG_MspInit,"ax",%progbits
  19              		.align	2
  20              		.weak	HAL_IWDG_MspInit
  21              		.thumb
  22              		.thumb_func
  24              	HAL_IWDG_MspInit:
  25              	.LFB64:
  26              		.file 1 "./Drivers/STM32F1xx_HAL_Driver/Src/stm32f1xx_hal_iwdg.c"
   1:./Drivers/STM32F1xx_HAL_Driver/Src/stm32f1xx_hal_iwdg.c **** /**
   2:./Drivers/STM32F1xx_HAL_Driver/Src/stm32f1xx_hal_iwdg.c ****   ******************************************************************************
   3:./Drivers/STM32F1xx_HAL_Driver/Src/stm32f1xx_hal_iwdg.c ****   * @file    stm32f1xx_hal_iwdg.c
   4:./Drivers/STM32F1xx_HAL_Driver/Src/stm32f1xx_hal_iwdg.c ****   * @author  MCD Application Team
   5:./Drivers/STM32F1xx_HAL_Driver/Src/stm32f1xx_hal_iwdg.c ****   * @version V1.0.4
   6:./Drivers/STM32F1xx_HAL_Driver/Src/stm32f1xx_hal_iwdg.c ****   * @date    29-April-2016
   7:./Drivers/STM32F1xx_HAL_Driver/Src/stm32f1xx_hal_iwdg.c ****   * @brief   IWDG HAL module driver.
   8:./Drivers/STM32F1xx_HAL_Driver/Src/stm32f1xx_hal_iwdg.c ****   *          This file provides firmware functions to manage the following 
   9:./Drivers/STM32F1xx_HAL_Driver/Src/stm32f1xx_hal_iwdg.c ****   *          functionalities of the Independent Watchdog (IWDG) peripheral:
  10:./Drivers/STM32F1xx_HAL_Driver/Src/stm32f1xx_hal_iwdg.c ****   *           + Initialization and Configuration functions
  11:./Drivers/STM32F1xx_HAL_Driver/Src/stm32f1xx_hal_iwdg.c ****   *           + IO operation functions
  12:./Drivers/STM32F1xx_HAL_Driver/Src/stm32f1xx_hal_iwdg.c ****   *           + Peripheral State functions
  13:./Drivers/STM32F1xx_HAL_Driver/Src/stm32f1xx_hal_iwdg.c ****   @verbatim 
  14:./Drivers/STM32F1xx_HAL_Driver/Src/stm32f1xx_hal_iwdg.c **** ================================================================================
  15:./Drivers/STM32F1xx_HAL_Driver/Src/stm32f1xx_hal_iwdg.c ****                     ##### IWDG specific features #####
  16:./Drivers/STM32F1xx_HAL_Driver/Src/stm32f1xx_hal_iwdg.c **** ================================================================================
  17:./Drivers/STM32F1xx_HAL_Driver/Src/stm32f1xx_hal_iwdg.c ****     [..] 
  18:./Drivers/STM32F1xx_HAL_Driver/Src/stm32f1xx_hal_iwdg.c ****     (+) The IWDG can be started by either software or hardware (configurable
  19:./Drivers/STM32F1xx_HAL_Driver/Src/stm32f1xx_hal_iwdg.c ****         through option byte).
  20:./Drivers/STM32F1xx_HAL_Driver/Src/stm32f1xx_hal_iwdg.c ****     (+) The IWDG is clocked by its own dedicated Low-Speed clock (LSI) and
  21:./Drivers/STM32F1xx_HAL_Driver/Src/stm32f1xx_hal_iwdg.c ****         thus stays active even if the main clock fails.
  22:./Drivers/STM32F1xx_HAL_Driver/Src/stm32f1xx_hal_iwdg.c ****     (+) Once the IWDG is started, the LSI is forced ON and cannot be disabled
  23:./Drivers/STM32F1xx_HAL_Driver/Src/stm32f1xx_hal_iwdg.c ****         (LSI cannot be disabled too), and the counter starts counting down from 
  24:./Drivers/STM32F1xx_HAL_Driver/Src/stm32f1xx_hal_iwdg.c ****         the reset value of 0xFFF. When it reaches the end of count value (0x000)
  25:./Drivers/STM32F1xx_HAL_Driver/Src/stm32f1xx_hal_iwdg.c ****         a system reset is generated.
  26:./Drivers/STM32F1xx_HAL_Driver/Src/stm32f1xx_hal_iwdg.c ****     (+) The IWDG counter should be refreshed at regular intervals, otherwise the
  27:./Drivers/STM32F1xx_HAL_Driver/Src/stm32f1xx_hal_iwdg.c ****         watchdog generates an MCU reset when the counter reaches 0.          
  28:./Drivers/STM32F1xx_HAL_Driver/Src/stm32f1xx_hal_iwdg.c ****     (+) The IWDG is implemented in the VDD voltage domain that is still functional
  29:./Drivers/STM32F1xx_HAL_Driver/Src/stm32f1xx_hal_iwdg.c ****         in STOP and STANDBY mode (IWDG reset can wake-up from STANDBY).
  30:./Drivers/STM32F1xx_HAL_Driver/Src/stm32f1xx_hal_iwdg.c ****     (+) IWDGRST flag in RCC_CSR register can be used to inform when an IWDG
  31:./Drivers/STM32F1xx_HAL_Driver/Src/stm32f1xx_hal_iwdg.c ****         reset occurs.
  32:./Drivers/STM32F1xx_HAL_Driver/Src/stm32f1xx_hal_iwdg.c **** 
ARM GAS  /tmp/ccmw1d2H.s 			page 2


  33:./Drivers/STM32F1xx_HAL_Driver/Src/stm32f1xx_hal_iwdg.c ****     (+) Min-max timeout value at 40KHz (LSI): 0.1us / 26.2s .
  34:./Drivers/STM32F1xx_HAL_Driver/Src/stm32f1xx_hal_iwdg.c ****         The IWDG timeout may vary due to LSI frequency dispersion. STM32F1xx
  35:./Drivers/STM32F1xx_HAL_Driver/Src/stm32f1xx_hal_iwdg.c ****         devices provide the capability to measure the LSI frequency (LSI clock
  36:./Drivers/STM32F1xx_HAL_Driver/Src/stm32f1xx_hal_iwdg.c ****         connected internally to TIM5 CH4 input capture). The measured value
  37:./Drivers/STM32F1xx_HAL_Driver/Src/stm32f1xx_hal_iwdg.c ****         can be used to have an IWDG timeout with an acceptable accuracy.
  38:./Drivers/STM32F1xx_HAL_Driver/Src/stm32f1xx_hal_iwdg.c ****         For more information, please refer to the STM32F1xx Reference manual.
  39:./Drivers/STM32F1xx_HAL_Driver/Src/stm32f1xx_hal_iwdg.c ****         Note: LSI Calibration is only available on: High density, XL-density and Connectivity line 
  40:./Drivers/STM32F1xx_HAL_Driver/Src/stm32f1xx_hal_iwdg.c **** 
  41:./Drivers/STM32F1xx_HAL_Driver/Src/stm32f1xx_hal_iwdg.c ****                      ##### How to use this driver #####
  42:./Drivers/STM32F1xx_HAL_Driver/Src/stm32f1xx_hal_iwdg.c ****   ==============================================================================
  43:./Drivers/STM32F1xx_HAL_Driver/Src/stm32f1xx_hal_iwdg.c ****     [..]
  44:./Drivers/STM32F1xx_HAL_Driver/Src/stm32f1xx_hal_iwdg.c ****     (+) Use IWDG using HAL_IWDG_Init() function to :
  45:./Drivers/STM32F1xx_HAL_Driver/Src/stm32f1xx_hal_iwdg.c ****         (++) Enable write access to IWDG_PR, IWDG_RLR.   
  46:./Drivers/STM32F1xx_HAL_Driver/Src/stm32f1xx_hal_iwdg.c ****         (++) Configure the IWDG prescaler, counter reload value.
  47:./Drivers/STM32F1xx_HAL_Driver/Src/stm32f1xx_hal_iwdg.c ****              This reload value will be loaded in the IWDG counter each time the counter
  48:./Drivers/STM32F1xx_HAL_Driver/Src/stm32f1xx_hal_iwdg.c ****              is reloaded, then the IWDG will start counting down from this value.
  49:./Drivers/STM32F1xx_HAL_Driver/Src/stm32f1xx_hal_iwdg.c ****     (+) Use IWDG using HAL_IWDG_Start() function to :
  50:./Drivers/STM32F1xx_HAL_Driver/Src/stm32f1xx_hal_iwdg.c ****         (++) Reload IWDG counter with value defined in the IWDG_RLR register.
  51:./Drivers/STM32F1xx_HAL_Driver/Src/stm32f1xx_hal_iwdg.c ****         (++) Start the IWDG, when the IWDG is used in software mode (no need 
  52:./Drivers/STM32F1xx_HAL_Driver/Src/stm32f1xx_hal_iwdg.c ****              to enable the LSI, it will be enabled by hardware).
  53:./Drivers/STM32F1xx_HAL_Driver/Src/stm32f1xx_hal_iwdg.c ****     (+) Then the application program must refresh the IWDG counter at regular
  54:./Drivers/STM32F1xx_HAL_Driver/Src/stm32f1xx_hal_iwdg.c ****         intervals during normal operation to prevent an MCU reset, using
  55:./Drivers/STM32F1xx_HAL_Driver/Src/stm32f1xx_hal_iwdg.c ****         HAL_IWDG_Refresh() function.    
  56:./Drivers/STM32F1xx_HAL_Driver/Src/stm32f1xx_hal_iwdg.c ****     
  57:./Drivers/STM32F1xx_HAL_Driver/Src/stm32f1xx_hal_iwdg.c ****      *** IWDG HAL driver macros list ***
  58:./Drivers/STM32F1xx_HAL_Driver/Src/stm32f1xx_hal_iwdg.c ****      ====================================
  59:./Drivers/STM32F1xx_HAL_Driver/Src/stm32f1xx_hal_iwdg.c ****      [..]
  60:./Drivers/STM32F1xx_HAL_Driver/Src/stm32f1xx_hal_iwdg.c ****        Below the list of most used macros in IWDG HAL driver.
  61:./Drivers/STM32F1xx_HAL_Driver/Src/stm32f1xx_hal_iwdg.c ****        
  62:./Drivers/STM32F1xx_HAL_Driver/Src/stm32f1xx_hal_iwdg.c ****       (+) __HAL_IWDG_START: Enable the IWDG peripheral
  63:./Drivers/STM32F1xx_HAL_Driver/Src/stm32f1xx_hal_iwdg.c ****       (+) __HAL_IWDG_RELOAD_COUNTER: Reloads IWDG counter with value defined in the reload register
  64:./Drivers/STM32F1xx_HAL_Driver/Src/stm32f1xx_hal_iwdg.c ****       (+) __HAL_IWDG_GET_FLAG: Get the selected IWDG's flag status
  65:./Drivers/STM32F1xx_HAL_Driver/Src/stm32f1xx_hal_iwdg.c **** 
  66:./Drivers/STM32F1xx_HAL_Driver/Src/stm32f1xx_hal_iwdg.c ****   @endverbatim
  67:./Drivers/STM32F1xx_HAL_Driver/Src/stm32f1xx_hal_iwdg.c ****   ******************************************************************************
  68:./Drivers/STM32F1xx_HAL_Driver/Src/stm32f1xx_hal_iwdg.c ****   * @attention
  69:./Drivers/STM32F1xx_HAL_Driver/Src/stm32f1xx_hal_iwdg.c ****   *
  70:./Drivers/STM32F1xx_HAL_Driver/Src/stm32f1xx_hal_iwdg.c ****   * <h2><center>&copy; COPYRIGHT(c) 2016 STMicroelectronics</center></h2>
  71:./Drivers/STM32F1xx_HAL_Driver/Src/stm32f1xx_hal_iwdg.c ****   *
  72:./Drivers/STM32F1xx_HAL_Driver/Src/stm32f1xx_hal_iwdg.c ****   * Redistribution and use in source and binary forms, with or without modification,
  73:./Drivers/STM32F1xx_HAL_Driver/Src/stm32f1xx_hal_iwdg.c ****   * are permitted provided that the following conditions are met:
  74:./Drivers/STM32F1xx_HAL_Driver/Src/stm32f1xx_hal_iwdg.c ****   *   1. Redistributions of source code must retain the above copyright notice,
  75:./Drivers/STM32F1xx_HAL_Driver/Src/stm32f1xx_hal_iwdg.c ****   *      this list of conditions and the following disclaimer.
  76:./Drivers/STM32F1xx_HAL_Driver/Src/stm32f1xx_hal_iwdg.c ****   *   2. Redistributions in binary form must reproduce the above copyright notice,
  77:./Drivers/STM32F1xx_HAL_Driver/Src/stm32f1xx_hal_iwdg.c ****   *      this list of conditions and the following disclaimer in the documentation
  78:./Drivers/STM32F1xx_HAL_Driver/Src/stm32f1xx_hal_iwdg.c ****   *      and/or other materials provided with the distribution.
  79:./Drivers/STM32F1xx_HAL_Driver/Src/stm32f1xx_hal_iwdg.c ****   *   3. Neither the name of STMicroelectronics nor the names of its contributors
  80:./Drivers/STM32F1xx_HAL_Driver/Src/stm32f1xx_hal_iwdg.c ****   *      may be used to endorse or promote products derived from this software
  81:./Drivers/STM32F1xx_HAL_Driver/Src/stm32f1xx_hal_iwdg.c ****   *      without specific prior written permission.
  82:./Drivers/STM32F1xx_HAL_Driver/Src/stm32f1xx_hal_iwdg.c ****   *
  83:./Drivers/STM32F1xx_HAL_Driver/Src/stm32f1xx_hal_iwdg.c ****   * THIS SOFTWARE IS PROVIDED BY THE COPYRIGHT HOLDERS AND CONTRIBUTORS "AS IS"
  84:./Drivers/STM32F1xx_HAL_Driver/Src/stm32f1xx_hal_iwdg.c ****   * AND ANY EXPRESS OR IMPLIED WARRANTIES, INCLUDING, BUT NOT LIMITED TO, THE
  85:./Drivers/STM32F1xx_HAL_Driver/Src/stm32f1xx_hal_iwdg.c ****   * IMPLIED WARRANTIES OF MERCHANTABILITY AND FITNESS FOR A PARTICULAR PURPOSE ARE
  86:./Drivers/STM32F1xx_HAL_Driver/Src/stm32f1xx_hal_iwdg.c ****   * DISCLAIMED. IN NO EVENT SHALL THE COPYRIGHT HOLDER OR CONTRIBUTORS BE LIABLE
  87:./Drivers/STM32F1xx_HAL_Driver/Src/stm32f1xx_hal_iwdg.c ****   * FOR ANY DIRECT, INDIRECT, INCIDENTAL, SPECIAL, EXEMPLARY, OR CONSEQUENTIAL
  88:./Drivers/STM32F1xx_HAL_Driver/Src/stm32f1xx_hal_iwdg.c ****   * DAMAGES (INCLUDING, BUT NOT LIMITED TO, PROCUREMENT OF SUBSTITUTE GOODS OR
  89:./Drivers/STM32F1xx_HAL_Driver/Src/stm32f1xx_hal_iwdg.c ****   * SERVICES; LOSS OF USE, DATA, OR PROFITS; OR BUSINESS INTERRUPTION) HOWEVER
ARM GAS  /tmp/ccmw1d2H.s 			page 3


  90:./Drivers/STM32F1xx_HAL_Driver/Src/stm32f1xx_hal_iwdg.c ****   * CAUSED AND ON ANY THEORY OF LIABILITY, WHETHER IN CONTRACT, STRICT LIABILITY,
  91:./Drivers/STM32F1xx_HAL_Driver/Src/stm32f1xx_hal_iwdg.c ****   * OR TORT (INCLUDING NEGLIGENCE OR OTHERWISE) ARISING IN ANY WAY OUT OF THE USE
  92:./Drivers/STM32F1xx_HAL_Driver/Src/stm32f1xx_hal_iwdg.c ****   * OF THIS SOFTWARE, EVEN IF ADVISED OF THE POSSIBILITY OF SUCH DAMAGE.
  93:./Drivers/STM32F1xx_HAL_Driver/Src/stm32f1xx_hal_iwdg.c ****   *
  94:./Drivers/STM32F1xx_HAL_Driver/Src/stm32f1xx_hal_iwdg.c ****   ******************************************************************************
  95:./Drivers/STM32F1xx_HAL_Driver/Src/stm32f1xx_hal_iwdg.c ****   */ 
  96:./Drivers/STM32F1xx_HAL_Driver/Src/stm32f1xx_hal_iwdg.c **** 
  97:./Drivers/STM32F1xx_HAL_Driver/Src/stm32f1xx_hal_iwdg.c **** /* Includes ------------------------------------------------------------------*/
  98:./Drivers/STM32F1xx_HAL_Driver/Src/stm32f1xx_hal_iwdg.c **** #include "stm32f1xx_hal.h"
  99:./Drivers/STM32F1xx_HAL_Driver/Src/stm32f1xx_hal_iwdg.c **** 
 100:./Drivers/STM32F1xx_HAL_Driver/Src/stm32f1xx_hal_iwdg.c **** /** @addtogroup STM32F1xx_HAL_Driver
 101:./Drivers/STM32F1xx_HAL_Driver/Src/stm32f1xx_hal_iwdg.c ****   * @{
 102:./Drivers/STM32F1xx_HAL_Driver/Src/stm32f1xx_hal_iwdg.c ****   */
 103:./Drivers/STM32F1xx_HAL_Driver/Src/stm32f1xx_hal_iwdg.c **** 
 104:./Drivers/STM32F1xx_HAL_Driver/Src/stm32f1xx_hal_iwdg.c **** /** @defgroup IWDG IWDG
 105:./Drivers/STM32F1xx_HAL_Driver/Src/stm32f1xx_hal_iwdg.c ****   * @brief IWDG HAL module driver.
 106:./Drivers/STM32F1xx_HAL_Driver/Src/stm32f1xx_hal_iwdg.c ****   * @{
 107:./Drivers/STM32F1xx_HAL_Driver/Src/stm32f1xx_hal_iwdg.c ****   */
 108:./Drivers/STM32F1xx_HAL_Driver/Src/stm32f1xx_hal_iwdg.c **** 
 109:./Drivers/STM32F1xx_HAL_Driver/Src/stm32f1xx_hal_iwdg.c **** #ifdef HAL_IWDG_MODULE_ENABLED
 110:./Drivers/STM32F1xx_HAL_Driver/Src/stm32f1xx_hal_iwdg.c **** 
 111:./Drivers/STM32F1xx_HAL_Driver/Src/stm32f1xx_hal_iwdg.c **** /* Private typedef -----------------------------------------------------------*/
 112:./Drivers/STM32F1xx_HAL_Driver/Src/stm32f1xx_hal_iwdg.c **** /* Private define ------------------------------------------------------------*/
 113:./Drivers/STM32F1xx_HAL_Driver/Src/stm32f1xx_hal_iwdg.c **** 
 114:./Drivers/STM32F1xx_HAL_Driver/Src/stm32f1xx_hal_iwdg.c **** /** @defgroup IWDG_Private_Constants IWDG Private Constants
 115:./Drivers/STM32F1xx_HAL_Driver/Src/stm32f1xx_hal_iwdg.c ****   * @{
 116:./Drivers/STM32F1xx_HAL_Driver/Src/stm32f1xx_hal_iwdg.c ****   */
 117:./Drivers/STM32F1xx_HAL_Driver/Src/stm32f1xx_hal_iwdg.c **** 
 118:./Drivers/STM32F1xx_HAL_Driver/Src/stm32f1xx_hal_iwdg.c **** #define IWDG_DEFAULT_TIMEOUT (uint32_t)1000
 119:./Drivers/STM32F1xx_HAL_Driver/Src/stm32f1xx_hal_iwdg.c **** 
 120:./Drivers/STM32F1xx_HAL_Driver/Src/stm32f1xx_hal_iwdg.c **** /**
 121:./Drivers/STM32F1xx_HAL_Driver/Src/stm32f1xx_hal_iwdg.c ****   * @}
 122:./Drivers/STM32F1xx_HAL_Driver/Src/stm32f1xx_hal_iwdg.c ****   */
 123:./Drivers/STM32F1xx_HAL_Driver/Src/stm32f1xx_hal_iwdg.c **** 
 124:./Drivers/STM32F1xx_HAL_Driver/Src/stm32f1xx_hal_iwdg.c **** /* Private macro -------------------------------------------------------------*/
 125:./Drivers/STM32F1xx_HAL_Driver/Src/stm32f1xx_hal_iwdg.c **** /* Private variables ---------------------------------------------------------*/
 126:./Drivers/STM32F1xx_HAL_Driver/Src/stm32f1xx_hal_iwdg.c **** /* Private function prototypes -----------------------------------------------*/
 127:./Drivers/STM32F1xx_HAL_Driver/Src/stm32f1xx_hal_iwdg.c **** /* Private functions ---------------------------------------------------------*/
 128:./Drivers/STM32F1xx_HAL_Driver/Src/stm32f1xx_hal_iwdg.c **** 
 129:./Drivers/STM32F1xx_HAL_Driver/Src/stm32f1xx_hal_iwdg.c **** /** @defgroup IWDG_Exported_Functions IWDG Exported Functions
 130:./Drivers/STM32F1xx_HAL_Driver/Src/stm32f1xx_hal_iwdg.c ****   * @{
 131:./Drivers/STM32F1xx_HAL_Driver/Src/stm32f1xx_hal_iwdg.c ****   */
 132:./Drivers/STM32F1xx_HAL_Driver/Src/stm32f1xx_hal_iwdg.c **** 
 133:./Drivers/STM32F1xx_HAL_Driver/Src/stm32f1xx_hal_iwdg.c **** /** @defgroup IWDG_Exported_Functions_Group1 Initialization and de-initialization functions 
 134:./Drivers/STM32F1xx_HAL_Driver/Src/stm32f1xx_hal_iwdg.c ****  *  @brief    Initialization and Configuration functions. 
 135:./Drivers/STM32F1xx_HAL_Driver/Src/stm32f1xx_hal_iwdg.c ****  *
 136:./Drivers/STM32F1xx_HAL_Driver/Src/stm32f1xx_hal_iwdg.c **** @verbatim    
 137:./Drivers/STM32F1xx_HAL_Driver/Src/stm32f1xx_hal_iwdg.c ****  ===============================================================================
 138:./Drivers/STM32F1xx_HAL_Driver/Src/stm32f1xx_hal_iwdg.c ****           ##### Initialization and de-initialization functions #####
 139:./Drivers/STM32F1xx_HAL_Driver/Src/stm32f1xx_hal_iwdg.c ****  ===============================================================================
 140:./Drivers/STM32F1xx_HAL_Driver/Src/stm32f1xx_hal_iwdg.c ****     [..]  This section provides functions allowing to:
 141:./Drivers/STM32F1xx_HAL_Driver/Src/stm32f1xx_hal_iwdg.c ****       (+) Initialize the IWDG according to the specified parameters 
 142:./Drivers/STM32F1xx_HAL_Driver/Src/stm32f1xx_hal_iwdg.c ****           in the IWDG_InitTypeDef and create the associated handle
 143:./Drivers/STM32F1xx_HAL_Driver/Src/stm32f1xx_hal_iwdg.c ****       (+) Initialize the IWDG MSP
 144:./Drivers/STM32F1xx_HAL_Driver/Src/stm32f1xx_hal_iwdg.c ****       (+) DeInitialize IWDG MSP 
 145:./Drivers/STM32F1xx_HAL_Driver/Src/stm32f1xx_hal_iwdg.c ****  
 146:./Drivers/STM32F1xx_HAL_Driver/Src/stm32f1xx_hal_iwdg.c **** @endverbatim
ARM GAS  /tmp/ccmw1d2H.s 			page 4


 147:./Drivers/STM32F1xx_HAL_Driver/Src/stm32f1xx_hal_iwdg.c ****   * @{
 148:./Drivers/STM32F1xx_HAL_Driver/Src/stm32f1xx_hal_iwdg.c ****   */
 149:./Drivers/STM32F1xx_HAL_Driver/Src/stm32f1xx_hal_iwdg.c **** 
 150:./Drivers/STM32F1xx_HAL_Driver/Src/stm32f1xx_hal_iwdg.c **** /**
 151:./Drivers/STM32F1xx_HAL_Driver/Src/stm32f1xx_hal_iwdg.c ****   * @brief  Initializes the IWDG according to the specified
 152:./Drivers/STM32F1xx_HAL_Driver/Src/stm32f1xx_hal_iwdg.c ****   *         parameters in the IWDG_InitTypeDef and creates the associated handle.
 153:./Drivers/STM32F1xx_HAL_Driver/Src/stm32f1xx_hal_iwdg.c ****   * @param  hiwdg: pointer to a IWDG_HandleTypeDef structure that contains
 154:./Drivers/STM32F1xx_HAL_Driver/Src/stm32f1xx_hal_iwdg.c ****   *                the configuration information for the specified IWDG module.
 155:./Drivers/STM32F1xx_HAL_Driver/Src/stm32f1xx_hal_iwdg.c ****   * @retval HAL status
 156:./Drivers/STM32F1xx_HAL_Driver/Src/stm32f1xx_hal_iwdg.c ****   */
 157:./Drivers/STM32F1xx_HAL_Driver/Src/stm32f1xx_hal_iwdg.c **** HAL_StatusTypeDef HAL_IWDG_Init(IWDG_HandleTypeDef *hiwdg)
 158:./Drivers/STM32F1xx_HAL_Driver/Src/stm32f1xx_hal_iwdg.c **** {
 159:./Drivers/STM32F1xx_HAL_Driver/Src/stm32f1xx_hal_iwdg.c ****   /* Check the IWDG handle allocation */
 160:./Drivers/STM32F1xx_HAL_Driver/Src/stm32f1xx_hal_iwdg.c ****   if(hiwdg == NULL)
 161:./Drivers/STM32F1xx_HAL_Driver/Src/stm32f1xx_hal_iwdg.c ****   {
 162:./Drivers/STM32F1xx_HAL_Driver/Src/stm32f1xx_hal_iwdg.c ****     return HAL_ERROR;
 163:./Drivers/STM32F1xx_HAL_Driver/Src/stm32f1xx_hal_iwdg.c ****   }
 164:./Drivers/STM32F1xx_HAL_Driver/Src/stm32f1xx_hal_iwdg.c **** 
 165:./Drivers/STM32F1xx_HAL_Driver/Src/stm32f1xx_hal_iwdg.c ****   /* Check the parameters */
 166:./Drivers/STM32F1xx_HAL_Driver/Src/stm32f1xx_hal_iwdg.c ****   assert_param(IS_IWDG_ALL_INSTANCE(hiwdg->Instance));
 167:./Drivers/STM32F1xx_HAL_Driver/Src/stm32f1xx_hal_iwdg.c ****   assert_param(IS_IWDG_PRESCALER(hiwdg->Init.Prescaler));
 168:./Drivers/STM32F1xx_HAL_Driver/Src/stm32f1xx_hal_iwdg.c ****   assert_param(IS_IWDG_RELOAD(hiwdg->Init.Reload)); 
 169:./Drivers/STM32F1xx_HAL_Driver/Src/stm32f1xx_hal_iwdg.c ****   
 170:./Drivers/STM32F1xx_HAL_Driver/Src/stm32f1xx_hal_iwdg.c ****   /* Check pending flag, if previous update not done, return error */
 171:./Drivers/STM32F1xx_HAL_Driver/Src/stm32f1xx_hal_iwdg.c ****   if((__HAL_IWDG_GET_FLAG(hiwdg, IWDG_FLAG_PVU) != RESET)
 172:./Drivers/STM32F1xx_HAL_Driver/Src/stm32f1xx_hal_iwdg.c ****      &&(__HAL_IWDG_GET_FLAG(hiwdg, IWDG_FLAG_RVU) != RESET))
 173:./Drivers/STM32F1xx_HAL_Driver/Src/stm32f1xx_hal_iwdg.c ****   {
 174:./Drivers/STM32F1xx_HAL_Driver/Src/stm32f1xx_hal_iwdg.c ****     return HAL_ERROR;
 175:./Drivers/STM32F1xx_HAL_Driver/Src/stm32f1xx_hal_iwdg.c ****   }
 176:./Drivers/STM32F1xx_HAL_Driver/Src/stm32f1xx_hal_iwdg.c ****     
 177:./Drivers/STM32F1xx_HAL_Driver/Src/stm32f1xx_hal_iwdg.c ****   if(hiwdg->State == HAL_IWDG_STATE_RESET)
 178:./Drivers/STM32F1xx_HAL_Driver/Src/stm32f1xx_hal_iwdg.c ****   {  
 179:./Drivers/STM32F1xx_HAL_Driver/Src/stm32f1xx_hal_iwdg.c ****     /* Allocate lock resource and initialize it */
 180:./Drivers/STM32F1xx_HAL_Driver/Src/stm32f1xx_hal_iwdg.c ****     hiwdg->Lock = HAL_UNLOCKED;
 181:./Drivers/STM32F1xx_HAL_Driver/Src/stm32f1xx_hal_iwdg.c ****     
 182:./Drivers/STM32F1xx_HAL_Driver/Src/stm32f1xx_hal_iwdg.c ****     /* Init the low level hardware */
 183:./Drivers/STM32F1xx_HAL_Driver/Src/stm32f1xx_hal_iwdg.c ****     HAL_IWDG_MspInit(hiwdg);
 184:./Drivers/STM32F1xx_HAL_Driver/Src/stm32f1xx_hal_iwdg.c ****   }
 185:./Drivers/STM32F1xx_HAL_Driver/Src/stm32f1xx_hal_iwdg.c ****   
 186:./Drivers/STM32F1xx_HAL_Driver/Src/stm32f1xx_hal_iwdg.c ****   /* Change IWDG peripheral state */
 187:./Drivers/STM32F1xx_HAL_Driver/Src/stm32f1xx_hal_iwdg.c ****   hiwdg->State = HAL_IWDG_STATE_BUSY;  
 188:./Drivers/STM32F1xx_HAL_Driver/Src/stm32f1xx_hal_iwdg.c ****   
 189:./Drivers/STM32F1xx_HAL_Driver/Src/stm32f1xx_hal_iwdg.c ****   /* Enable write access to IWDG_PR and IWDG_RLR registers */  
 190:./Drivers/STM32F1xx_HAL_Driver/Src/stm32f1xx_hal_iwdg.c ****   IWDG_ENABLE_WRITE_ACCESS(hiwdg);
 191:./Drivers/STM32F1xx_HAL_Driver/Src/stm32f1xx_hal_iwdg.c ****   
 192:./Drivers/STM32F1xx_HAL_Driver/Src/stm32f1xx_hal_iwdg.c ****   /* Write to IWDG registers the IWDG_Prescaler & IWDG_Reload values to work with */
 193:./Drivers/STM32F1xx_HAL_Driver/Src/stm32f1xx_hal_iwdg.c ****   MODIFY_REG(hiwdg->Instance->PR, IWDG_PR_PR, hiwdg->Init.Prescaler);
 194:./Drivers/STM32F1xx_HAL_Driver/Src/stm32f1xx_hal_iwdg.c ****   MODIFY_REG(hiwdg->Instance->RLR, IWDG_RLR_RL, hiwdg->Init.Reload);
 195:./Drivers/STM32F1xx_HAL_Driver/Src/stm32f1xx_hal_iwdg.c ****  
 196:./Drivers/STM32F1xx_HAL_Driver/Src/stm32f1xx_hal_iwdg.c ****   /* Change IWDG peripheral state */
 197:./Drivers/STM32F1xx_HAL_Driver/Src/stm32f1xx_hal_iwdg.c ****   hiwdg->State = HAL_IWDG_STATE_READY;
 198:./Drivers/STM32F1xx_HAL_Driver/Src/stm32f1xx_hal_iwdg.c ****   
 199:./Drivers/STM32F1xx_HAL_Driver/Src/stm32f1xx_hal_iwdg.c ****   /* Return function status */
 200:./Drivers/STM32F1xx_HAL_Driver/Src/stm32f1xx_hal_iwdg.c ****   return HAL_OK;
 201:./Drivers/STM32F1xx_HAL_Driver/Src/stm32f1xx_hal_iwdg.c **** }
 202:./Drivers/STM32F1xx_HAL_Driver/Src/stm32f1xx_hal_iwdg.c **** 
 203:./Drivers/STM32F1xx_HAL_Driver/Src/stm32f1xx_hal_iwdg.c **** /**
ARM GAS  /tmp/ccmw1d2H.s 			page 5


 204:./Drivers/STM32F1xx_HAL_Driver/Src/stm32f1xx_hal_iwdg.c ****   * @brief  Initializes the IWDG MSP.
 205:./Drivers/STM32F1xx_HAL_Driver/Src/stm32f1xx_hal_iwdg.c ****   * @param  hiwdg: pointer to a IWDG_HandleTypeDef structure that contains
 206:./Drivers/STM32F1xx_HAL_Driver/Src/stm32f1xx_hal_iwdg.c ****   *                the configuration information for the specified IWDG module.
 207:./Drivers/STM32F1xx_HAL_Driver/Src/stm32f1xx_hal_iwdg.c ****   * @retval None
 208:./Drivers/STM32F1xx_HAL_Driver/Src/stm32f1xx_hal_iwdg.c ****   */
 209:./Drivers/STM32F1xx_HAL_Driver/Src/stm32f1xx_hal_iwdg.c **** __weak void HAL_IWDG_MspInit(IWDG_HandleTypeDef *hiwdg)
 210:./Drivers/STM32F1xx_HAL_Driver/Src/stm32f1xx_hal_iwdg.c **** {
  27              		.loc 1 210 0
  28              		.cfi_startproc
  29              		@ args = 0, pretend = 0, frame = 0
  30              		@ frame_needed = 0, uses_anonymous_args = 0
  31              		@ link register save eliminated.
  32              	.LVL0:
  33 0000 7047     		bx	lr
  34              		.cfi_endproc
  35              	.LFE64:
  37 0002 00BF     		.section	.text.HAL_IWDG_Init,"ax",%progbits
  38              		.align	2
  39              		.global	HAL_IWDG_Init
  40              		.thumb
  41              		.thumb_func
  43              	HAL_IWDG_Init:
  44              	.LFB63:
 158:./Drivers/STM32F1xx_HAL_Driver/Src/stm32f1xx_hal_iwdg.c ****   /* Check the IWDG handle allocation */
  45              		.loc 1 158 0
  46              		.cfi_startproc
  47              		@ args = 0, pretend = 0, frame = 0
  48              		@ frame_needed = 0, uses_anonymous_args = 0
  49              	.LVL1:
 160:./Drivers/STM32F1xx_HAL_Driver/Src/stm32f1xx_hal_iwdg.c ****   {
  50              		.loc 1 160 0
  51 0000 68B3     		cbz	r0, .L6
 158:./Drivers/STM32F1xx_HAL_Driver/Src/stm32f1xx_hal_iwdg.c ****   /* Check the IWDG handle allocation */
  52              		.loc 1 158 0
  53 0002 10B5     		push	{r4, lr}
  54              	.LCFI0:
  55              		.cfi_def_cfa_offset 8
  56              		.cfi_offset 4, -8
  57              		.cfi_offset 14, -4
  58 0004 0446     		mov	r4, r0
 171:./Drivers/STM32F1xx_HAL_Driver/Src/stm32f1xx_hal_iwdg.c ****      &&(__HAL_IWDG_GET_FLAG(hiwdg, IWDG_FLAG_RVU) != RESET))
  59              		.loc 1 171 0
  60 0006 0368     		ldr	r3, [r0]
  61 0008 DA68     		ldr	r2, [r3, #12]
  62 000a 12F0010F 		tst	r2, #1
  63 000e 03D0     		beq	.L4
 172:./Drivers/STM32F1xx_HAL_Driver/Src/stm32f1xx_hal_iwdg.c ****   {
  64              		.loc 1 172 0
  65 0010 DB68     		ldr	r3, [r3, #12]
  66 0012 13F0020F 		tst	r3, #2
  67 0016 24D1     		bne	.L7
  68              	.L4:
 177:./Drivers/STM32F1xx_HAL_Driver/Src/stm32f1xx_hal_iwdg.c ****   {  
  69              		.loc 1 177 0
  70 0018 637B     		ldrb	r3, [r4, #13]	@ zero_extendqisi2
  71 001a 13F0FF0F 		tst	r3, #255
  72 001e 04D1     		bne	.L5
ARM GAS  /tmp/ccmw1d2H.s 			page 6


 180:./Drivers/STM32F1xx_HAL_Driver/Src/stm32f1xx_hal_iwdg.c ****     
  73              		.loc 1 180 0
  74 0020 0023     		movs	r3, #0
  75 0022 2373     		strb	r3, [r4, #12]
 183:./Drivers/STM32F1xx_HAL_Driver/Src/stm32f1xx_hal_iwdg.c ****   }
  76              		.loc 1 183 0
  77 0024 2046     		mov	r0, r4
  78              	.LVL2:
  79 0026 FFF7FEFF 		bl	HAL_IWDG_MspInit
  80              	.LVL3:
  81              	.L5:
 187:./Drivers/STM32F1xx_HAL_Driver/Src/stm32f1xx_hal_iwdg.c ****   
  82              		.loc 1 187 0
  83 002a 0223     		movs	r3, #2
  84 002c 6373     		strb	r3, [r4, #13]
 190:./Drivers/STM32F1xx_HAL_Driver/Src/stm32f1xx_hal_iwdg.c ****   
  85              		.loc 1 190 0
  86 002e 2368     		ldr	r3, [r4]
  87 0030 45F25552 		movw	r2, #21845
  88 0034 1A60     		str	r2, [r3]
 193:./Drivers/STM32F1xx_HAL_Driver/Src/stm32f1xx_hal_iwdg.c ****   MODIFY_REG(hiwdg->Instance->RLR, IWDG_RLR_RL, hiwdg->Init.Reload);
  89              		.loc 1 193 0
  90 0036 2168     		ldr	r1, [r4]
  91 0038 4B68     		ldr	r3, [r1, #4]
  92 003a 23F00702 		bic	r2, r3, #7
  93 003e 6368     		ldr	r3, [r4, #4]
  94 0040 1343     		orrs	r3, r3, r2
  95 0042 4B60     		str	r3, [r1, #4]
 194:./Drivers/STM32F1xx_HAL_Driver/Src/stm32f1xx_hal_iwdg.c ****  
  96              		.loc 1 194 0
  97 0044 2168     		ldr	r1, [r4]
  98 0046 8B68     		ldr	r3, [r1, #8]
  99 0048 23F47F63 		bic	r3, r3, #4080
 100 004c 23F00F03 		bic	r3, r3, #15
 101 0050 A268     		ldr	r2, [r4, #8]
 102 0052 1343     		orrs	r3, r3, r2
 103 0054 8B60     		str	r3, [r1, #8]
 197:./Drivers/STM32F1xx_HAL_Driver/Src/stm32f1xx_hal_iwdg.c ****   
 104              		.loc 1 197 0
 105 0056 0123     		movs	r3, #1
 106 0058 6373     		strb	r3, [r4, #13]
 200:./Drivers/STM32F1xx_HAL_Driver/Src/stm32f1xx_hal_iwdg.c **** }
 107              		.loc 1 200 0
 108 005a 0020     		movs	r0, #0
 109 005c 10BD     		pop	{r4, pc}
 110              	.LVL4:
 111              	.L6:
 112              	.LCFI1:
 113              		.cfi_def_cfa_offset 0
 114              		.cfi_restore 4
 115              		.cfi_restore 14
 162:./Drivers/STM32F1xx_HAL_Driver/Src/stm32f1xx_hal_iwdg.c ****   }
 116              		.loc 1 162 0
 117 005e 0120     		movs	r0, #1
 118              	.LVL5:
 201:./Drivers/STM32F1xx_HAL_Driver/Src/stm32f1xx_hal_iwdg.c **** 
 119              		.loc 1 201 0
ARM GAS  /tmp/ccmw1d2H.s 			page 7


 120 0060 7047     		bx	lr
 121              	.LVL6:
 122              	.L7:
 123              	.LCFI2:
 124              		.cfi_def_cfa_offset 8
 125              		.cfi_offset 4, -8
 126              		.cfi_offset 14, -4
 174:./Drivers/STM32F1xx_HAL_Driver/Src/stm32f1xx_hal_iwdg.c ****   }
 127              		.loc 1 174 0
 128 0062 0120     		movs	r0, #1
 129              	.LVL7:
 201:./Drivers/STM32F1xx_HAL_Driver/Src/stm32f1xx_hal_iwdg.c **** 
 130              		.loc 1 201 0
 131 0064 10BD     		pop	{r4, pc}
 132              		.cfi_endproc
 133              	.LFE63:
 135 0066 00BF     		.section	.text.HAL_IWDG_Start,"ax",%progbits
 136              		.align	2
 137              		.global	HAL_IWDG_Start
 138              		.thumb
 139              		.thumb_func
 141              	HAL_IWDG_Start:
 142              	.LFB65:
 211:./Drivers/STM32F1xx_HAL_Driver/Src/stm32f1xx_hal_iwdg.c ****   /* Prevent unused argument(s) compilation warning */
 212:./Drivers/STM32F1xx_HAL_Driver/Src/stm32f1xx_hal_iwdg.c ****   UNUSED(hiwdg);
 213:./Drivers/STM32F1xx_HAL_Driver/Src/stm32f1xx_hal_iwdg.c ****   /* NOTE : This function Should not be modified, when the callback is needed,
 214:./Drivers/STM32F1xx_HAL_Driver/Src/stm32f1xx_hal_iwdg.c ****             the HAL_IWDG_MspInit could be implemented in the user file
 215:./Drivers/STM32F1xx_HAL_Driver/Src/stm32f1xx_hal_iwdg.c ****    */
 216:./Drivers/STM32F1xx_HAL_Driver/Src/stm32f1xx_hal_iwdg.c **** }
 217:./Drivers/STM32F1xx_HAL_Driver/Src/stm32f1xx_hal_iwdg.c **** 
 218:./Drivers/STM32F1xx_HAL_Driver/Src/stm32f1xx_hal_iwdg.c **** /**
 219:./Drivers/STM32F1xx_HAL_Driver/Src/stm32f1xx_hal_iwdg.c ****   * @}
 220:./Drivers/STM32F1xx_HAL_Driver/Src/stm32f1xx_hal_iwdg.c ****   */
 221:./Drivers/STM32F1xx_HAL_Driver/Src/stm32f1xx_hal_iwdg.c **** 
 222:./Drivers/STM32F1xx_HAL_Driver/Src/stm32f1xx_hal_iwdg.c **** /** @defgroup IWDG_Exported_Functions_Group2 IO operation functions  
 223:./Drivers/STM32F1xx_HAL_Driver/Src/stm32f1xx_hal_iwdg.c ****  *  @brief   IO operation functions  
 224:./Drivers/STM32F1xx_HAL_Driver/Src/stm32f1xx_hal_iwdg.c ****  *
 225:./Drivers/STM32F1xx_HAL_Driver/Src/stm32f1xx_hal_iwdg.c **** @verbatim   
 226:./Drivers/STM32F1xx_HAL_Driver/Src/stm32f1xx_hal_iwdg.c ****  ===============================================================================
 227:./Drivers/STM32F1xx_HAL_Driver/Src/stm32f1xx_hal_iwdg.c ****                       ##### IO operation functions #####
 228:./Drivers/STM32F1xx_HAL_Driver/Src/stm32f1xx_hal_iwdg.c ****  ===============================================================================  
 229:./Drivers/STM32F1xx_HAL_Driver/Src/stm32f1xx_hal_iwdg.c ****     [..]  This section provides functions allowing to:
 230:./Drivers/STM32F1xx_HAL_Driver/Src/stm32f1xx_hal_iwdg.c ****       (+) Start the IWDG.
 231:./Drivers/STM32F1xx_HAL_Driver/Src/stm32f1xx_hal_iwdg.c ****       (+) Refresh the IWDG.
 232:./Drivers/STM32F1xx_HAL_Driver/Src/stm32f1xx_hal_iwdg.c **** 
 233:./Drivers/STM32F1xx_HAL_Driver/Src/stm32f1xx_hal_iwdg.c **** @endverbatim
 234:./Drivers/STM32F1xx_HAL_Driver/Src/stm32f1xx_hal_iwdg.c ****   * @{
 235:./Drivers/STM32F1xx_HAL_Driver/Src/stm32f1xx_hal_iwdg.c ****   */
 236:./Drivers/STM32F1xx_HAL_Driver/Src/stm32f1xx_hal_iwdg.c **** 
 237:./Drivers/STM32F1xx_HAL_Driver/Src/stm32f1xx_hal_iwdg.c **** /**
 238:./Drivers/STM32F1xx_HAL_Driver/Src/stm32f1xx_hal_iwdg.c ****   * @brief  Starts the IWDG.
 239:./Drivers/STM32F1xx_HAL_Driver/Src/stm32f1xx_hal_iwdg.c ****   * @param  hiwdg: pointer to a IWDG_HandleTypeDef structure that contains
 240:./Drivers/STM32F1xx_HAL_Driver/Src/stm32f1xx_hal_iwdg.c ****   *                the configuration information for the specified IWDG module.
 241:./Drivers/STM32F1xx_HAL_Driver/Src/stm32f1xx_hal_iwdg.c ****   * @retval HAL status
 242:./Drivers/STM32F1xx_HAL_Driver/Src/stm32f1xx_hal_iwdg.c ****   */
 243:./Drivers/STM32F1xx_HAL_Driver/Src/stm32f1xx_hal_iwdg.c **** HAL_StatusTypeDef HAL_IWDG_Start(IWDG_HandleTypeDef *hiwdg)
 244:./Drivers/STM32F1xx_HAL_Driver/Src/stm32f1xx_hal_iwdg.c **** {
ARM GAS  /tmp/ccmw1d2H.s 			page 8


 143              		.loc 1 244 0
 144              		.cfi_startproc
 145              		@ args = 0, pretend = 0, frame = 0
 146              		@ frame_needed = 0, uses_anonymous_args = 0
 147              		@ link register save eliminated.
 148              	.LVL8:
 245:./Drivers/STM32F1xx_HAL_Driver/Src/stm32f1xx_hal_iwdg.c ****   /* Process Locked */
 246:./Drivers/STM32F1xx_HAL_Driver/Src/stm32f1xx_hal_iwdg.c ****   __HAL_LOCK(hiwdg); 
 149              		.loc 1 246 0
 150 0000 037B     		ldrb	r3, [r0, #12]	@ zero_extendqisi2
 151 0002 012B     		cmp	r3, #1
 152 0004 0FD0     		beq	.L11
 247:./Drivers/STM32F1xx_HAL_Driver/Src/stm32f1xx_hal_iwdg.c ****   
 248:./Drivers/STM32F1xx_HAL_Driver/Src/stm32f1xx_hal_iwdg.c ****     /* Change IWDG peripheral state */  
 249:./Drivers/STM32F1xx_HAL_Driver/Src/stm32f1xx_hal_iwdg.c ****   hiwdg->State = HAL_IWDG_STATE_BUSY;
 153              		.loc 1 249 0 discriminator 2
 154 0006 0223     		movs	r3, #2
 155 0008 4373     		strb	r3, [r0, #13]
 250:./Drivers/STM32F1xx_HAL_Driver/Src/stm32f1xx_hal_iwdg.c **** 
 251:./Drivers/STM32F1xx_HAL_Driver/Src/stm32f1xx_hal_iwdg.c ****   /* Start the IWDG peripheral */
 252:./Drivers/STM32F1xx_HAL_Driver/Src/stm32f1xx_hal_iwdg.c ****   __HAL_IWDG_START(hiwdg);
 156              		.loc 1 252 0 discriminator 2
 157 000a 0368     		ldr	r3, [r0]
 158 000c 4CF6CC42 		movw	r2, #52428
 159 0010 1A60     		str	r2, [r3]
 253:./Drivers/STM32F1xx_HAL_Driver/Src/stm32f1xx_hal_iwdg.c ****   
 254:./Drivers/STM32F1xx_HAL_Driver/Src/stm32f1xx_hal_iwdg.c ****     /* Reload IWDG counter with value defined in the RLR register */
 255:./Drivers/STM32F1xx_HAL_Driver/Src/stm32f1xx_hal_iwdg.c ****   __HAL_IWDG_RELOAD_COUNTER(hiwdg);
 160              		.loc 1 255 0 discriminator 2
 161 0012 0368     		ldr	r3, [r0]
 162 0014 4AF6AA22 		movw	r2, #43690
 163 0018 1A60     		str	r2, [r3]
 256:./Drivers/STM32F1xx_HAL_Driver/Src/stm32f1xx_hal_iwdg.c ****   
 257:./Drivers/STM32F1xx_HAL_Driver/Src/stm32f1xx_hal_iwdg.c ****   /* Change IWDG peripheral state */    
 258:./Drivers/STM32F1xx_HAL_Driver/Src/stm32f1xx_hal_iwdg.c ****   hiwdg->State = HAL_IWDG_STATE_READY; 
 164              		.loc 1 258 0 discriminator 2
 165 001a 0123     		movs	r3, #1
 166 001c 4373     		strb	r3, [r0, #13]
 259:./Drivers/STM32F1xx_HAL_Driver/Src/stm32f1xx_hal_iwdg.c ****   
 260:./Drivers/STM32F1xx_HAL_Driver/Src/stm32f1xx_hal_iwdg.c ****   /* Process Unlocked */
 261:./Drivers/STM32F1xx_HAL_Driver/Src/stm32f1xx_hal_iwdg.c ****   __HAL_UNLOCK(hiwdg);
 167              		.loc 1 261 0 discriminator 2
 168 001e 0023     		movs	r3, #0
 169 0020 0373     		strb	r3, [r0, #12]
 262:./Drivers/STM32F1xx_HAL_Driver/Src/stm32f1xx_hal_iwdg.c ****   
 263:./Drivers/STM32F1xx_HAL_Driver/Src/stm32f1xx_hal_iwdg.c ****   /* Return function status */
 264:./Drivers/STM32F1xx_HAL_Driver/Src/stm32f1xx_hal_iwdg.c ****   return HAL_OK;
 170              		.loc 1 264 0 discriminator 2
 171 0022 1846     		mov	r0, r3
 172              	.LVL9:
 173 0024 7047     		bx	lr
 174              	.LVL10:
 175              	.L11:
 246:./Drivers/STM32F1xx_HAL_Driver/Src/stm32f1xx_hal_iwdg.c ****   
 176              		.loc 1 246 0
 177 0026 0220     		movs	r0, #2
 178              	.LVL11:
ARM GAS  /tmp/ccmw1d2H.s 			page 9


 265:./Drivers/STM32F1xx_HAL_Driver/Src/stm32f1xx_hal_iwdg.c **** }
 179              		.loc 1 265 0
 180 0028 7047     		bx	lr
 181              		.cfi_endproc
 182              	.LFE65:
 184 002a 00BF     		.section	.text.HAL_IWDG_Refresh,"ax",%progbits
 185              		.align	2
 186              		.global	HAL_IWDG_Refresh
 187              		.thumb
 188              		.thumb_func
 190              	HAL_IWDG_Refresh:
 191              	.LFB66:
 266:./Drivers/STM32F1xx_HAL_Driver/Src/stm32f1xx_hal_iwdg.c **** 
 267:./Drivers/STM32F1xx_HAL_Driver/Src/stm32f1xx_hal_iwdg.c **** /**
 268:./Drivers/STM32F1xx_HAL_Driver/Src/stm32f1xx_hal_iwdg.c ****   * @brief  Refreshes the IWDG.
 269:./Drivers/STM32F1xx_HAL_Driver/Src/stm32f1xx_hal_iwdg.c ****   * @param  hiwdg: pointer to a IWDG_HandleTypeDef structure that contains
 270:./Drivers/STM32F1xx_HAL_Driver/Src/stm32f1xx_hal_iwdg.c ****   *                the configuration information for the specified IWDG module.
 271:./Drivers/STM32F1xx_HAL_Driver/Src/stm32f1xx_hal_iwdg.c ****   * @retval HAL status
 272:./Drivers/STM32F1xx_HAL_Driver/Src/stm32f1xx_hal_iwdg.c ****   */
 273:./Drivers/STM32F1xx_HAL_Driver/Src/stm32f1xx_hal_iwdg.c **** HAL_StatusTypeDef HAL_IWDG_Refresh(IWDG_HandleTypeDef *hiwdg)
 274:./Drivers/STM32F1xx_HAL_Driver/Src/stm32f1xx_hal_iwdg.c **** {
 192              		.loc 1 274 0
 193              		.cfi_startproc
 194              		@ args = 0, pretend = 0, frame = 0
 195              		@ frame_needed = 0, uses_anonymous_args = 0
 196              	.LVL12:
 197 0000 38B5     		push	{r3, r4, r5, lr}
 198              	.LCFI3:
 199              		.cfi_def_cfa_offset 16
 200              		.cfi_offset 3, -16
 201              		.cfi_offset 4, -12
 202              		.cfi_offset 5, -8
 203              		.cfi_offset 14, -4
 204              	.LVL13:
 275:./Drivers/STM32F1xx_HAL_Driver/Src/stm32f1xx_hal_iwdg.c ****   uint32_t tickstart = 0;
 276:./Drivers/STM32F1xx_HAL_Driver/Src/stm32f1xx_hal_iwdg.c **** 
 277:./Drivers/STM32F1xx_HAL_Driver/Src/stm32f1xx_hal_iwdg.c ****   /* Process Locked */
 278:./Drivers/STM32F1xx_HAL_Driver/Src/stm32f1xx_hal_iwdg.c ****   __HAL_LOCK(hiwdg);
 205              		.loc 1 278 0
 206 0002 037B     		ldrb	r3, [r0, #12]	@ zero_extendqisi2
 207 0004 012B     		cmp	r3, #1
 208 0006 20D0     		beq	.L16
 209 0008 0446     		mov	r4, r0
 210              		.loc 1 278 0 is_stmt 0 discriminator 2
 211 000a 0123     		movs	r3, #1
 212 000c 0373     		strb	r3, [r0, #12]
 279:./Drivers/STM32F1xx_HAL_Driver/Src/stm32f1xx_hal_iwdg.c **** 
 280:./Drivers/STM32F1xx_HAL_Driver/Src/stm32f1xx_hal_iwdg.c ****     /* Change IWDG peripheral state */
 281:./Drivers/STM32F1xx_HAL_Driver/Src/stm32f1xx_hal_iwdg.c ****   hiwdg->State = HAL_IWDG_STATE_BUSY;
 213              		.loc 1 281 0 is_stmt 1 discriminator 2
 214 000e 0223     		movs	r3, #2
 215 0010 4373     		strb	r3, [r0, #13]
 282:./Drivers/STM32F1xx_HAL_Driver/Src/stm32f1xx_hal_iwdg.c **** 
 283:./Drivers/STM32F1xx_HAL_Driver/Src/stm32f1xx_hal_iwdg.c ****   tickstart = HAL_GetTick();
 216              		.loc 1 283 0 discriminator 2
 217 0012 FFF7FEFF 		bl	HAL_GetTick
 218              	.LVL14:
ARM GAS  /tmp/ccmw1d2H.s 			page 10


 219 0016 0546     		mov	r5, r0
 220              	.LVL15:
 284:./Drivers/STM32F1xx_HAL_Driver/Src/stm32f1xx_hal_iwdg.c **** 
 285:./Drivers/STM32F1xx_HAL_Driver/Src/stm32f1xx_hal_iwdg.c ****   /* Wait until RVU flag is RESET */
 286:./Drivers/STM32F1xx_HAL_Driver/Src/stm32f1xx_hal_iwdg.c ****   while(__HAL_IWDG_GET_FLAG(hiwdg, IWDG_FLAG_RVU) != RESET)
 221              		.loc 1 286 0 discriminator 2
 222 0018 0AE0     		b	.L14
 223              	.LVL16:
 224              	.L15:
 287:./Drivers/STM32F1xx_HAL_Driver/Src/stm32f1xx_hal_iwdg.c ****   {
 288:./Drivers/STM32F1xx_HAL_Driver/Src/stm32f1xx_hal_iwdg.c ****     if((HAL_GetTick() - tickstart ) > IWDG_DEFAULT_TIMEOUT)
 225              		.loc 1 288 0
 226 001a FFF7FEFF 		bl	HAL_GetTick
 227              	.LVL17:
 228 001e 401B     		subs	r0, r0, r5
 229 0020 B0F57A7F 		cmp	r0, #1000
 230 0024 04D9     		bls	.L14
 289:./Drivers/STM32F1xx_HAL_Driver/Src/stm32f1xx_hal_iwdg.c ****     {
 290:./Drivers/STM32F1xx_HAL_Driver/Src/stm32f1xx_hal_iwdg.c ****       /* Set IWDG state */
 291:./Drivers/STM32F1xx_HAL_Driver/Src/stm32f1xx_hal_iwdg.c ****       hiwdg->State = HAL_IWDG_STATE_TIMEOUT;
 231              		.loc 1 291 0
 232 0026 0320     		movs	r0, #3
 233 0028 6073     		strb	r0, [r4, #13]
 292:./Drivers/STM32F1xx_HAL_Driver/Src/stm32f1xx_hal_iwdg.c **** 
 293:./Drivers/STM32F1xx_HAL_Driver/Src/stm32f1xx_hal_iwdg.c ****        /* Process unlocked */
 294:./Drivers/STM32F1xx_HAL_Driver/Src/stm32f1xx_hal_iwdg.c ****       __HAL_UNLOCK(hiwdg);
 234              		.loc 1 294 0
 235 002a 0023     		movs	r3, #0
 236 002c 2373     		strb	r3, [r4, #12]
 295:./Drivers/STM32F1xx_HAL_Driver/Src/stm32f1xx_hal_iwdg.c **** 
 296:./Drivers/STM32F1xx_HAL_Driver/Src/stm32f1xx_hal_iwdg.c ****       return HAL_TIMEOUT;
 237              		.loc 1 296 0
 238 002e 38BD     		pop	{r3, r4, r5, pc}
 239              	.LVL18:
 240              	.L14:
 286:./Drivers/STM32F1xx_HAL_Driver/Src/stm32f1xx_hal_iwdg.c ****   {
 241              		.loc 1 286 0
 242 0030 2368     		ldr	r3, [r4]
 243 0032 DA68     		ldr	r2, [r3, #12]
 244 0034 12F0020F 		tst	r2, #2
 245 0038 EFD1     		bne	.L15
 297:./Drivers/STM32F1xx_HAL_Driver/Src/stm32f1xx_hal_iwdg.c ****     }
 298:./Drivers/STM32F1xx_HAL_Driver/Src/stm32f1xx_hal_iwdg.c ****   }
 299:./Drivers/STM32F1xx_HAL_Driver/Src/stm32f1xx_hal_iwdg.c ****   
 300:./Drivers/STM32F1xx_HAL_Driver/Src/stm32f1xx_hal_iwdg.c ****   /* Reload IWDG counter with value defined in the reload register */
 301:./Drivers/STM32F1xx_HAL_Driver/Src/stm32f1xx_hal_iwdg.c ****   __HAL_IWDG_RELOAD_COUNTER(hiwdg);
 246              		.loc 1 301 0
 247 003a 4AF6AA22 		movw	r2, #43690
 248 003e 1A60     		str	r2, [r3]
 302:./Drivers/STM32F1xx_HAL_Driver/Src/stm32f1xx_hal_iwdg.c ****     
 303:./Drivers/STM32F1xx_HAL_Driver/Src/stm32f1xx_hal_iwdg.c ****   /* Change IWDG peripheral state */    
 304:./Drivers/STM32F1xx_HAL_Driver/Src/stm32f1xx_hal_iwdg.c ****   hiwdg->State = HAL_IWDG_STATE_READY; 
 249              		.loc 1 304 0
 250 0040 0123     		movs	r3, #1
 251 0042 6373     		strb	r3, [r4, #13]
 305:./Drivers/STM32F1xx_HAL_Driver/Src/stm32f1xx_hal_iwdg.c ****   
 306:./Drivers/STM32F1xx_HAL_Driver/Src/stm32f1xx_hal_iwdg.c ****   /* Process Unlocked */
ARM GAS  /tmp/ccmw1d2H.s 			page 11


 307:./Drivers/STM32F1xx_HAL_Driver/Src/stm32f1xx_hal_iwdg.c ****   __HAL_UNLOCK(hiwdg);
 252              		.loc 1 307 0
 253 0044 0020     		movs	r0, #0
 254 0046 2073     		strb	r0, [r4, #12]
 308:./Drivers/STM32F1xx_HAL_Driver/Src/stm32f1xx_hal_iwdg.c ****   
 309:./Drivers/STM32F1xx_HAL_Driver/Src/stm32f1xx_hal_iwdg.c ****   /* Return function status */
 310:./Drivers/STM32F1xx_HAL_Driver/Src/stm32f1xx_hal_iwdg.c ****   return HAL_OK;
 255              		.loc 1 310 0
 256 0048 38BD     		pop	{r3, r4, r5, pc}
 257              	.LVL19:
 258              	.L16:
 278:./Drivers/STM32F1xx_HAL_Driver/Src/stm32f1xx_hal_iwdg.c **** 
 259              		.loc 1 278 0
 260 004a 0220     		movs	r0, #2
 261              	.LVL20:
 311:./Drivers/STM32F1xx_HAL_Driver/Src/stm32f1xx_hal_iwdg.c **** }
 262              		.loc 1 311 0
 263 004c 38BD     		pop	{r3, r4, r5, pc}
 264              		.cfi_endproc
 265              	.LFE66:
 267 004e 00BF     		.section	.text.HAL_IWDG_GetState,"ax",%progbits
 268              		.align	2
 269              		.global	HAL_IWDG_GetState
 270              		.thumb
 271              		.thumb_func
 273              	HAL_IWDG_GetState:
 274              	.LFB67:
 312:./Drivers/STM32F1xx_HAL_Driver/Src/stm32f1xx_hal_iwdg.c **** 
 313:./Drivers/STM32F1xx_HAL_Driver/Src/stm32f1xx_hal_iwdg.c **** /**
 314:./Drivers/STM32F1xx_HAL_Driver/Src/stm32f1xx_hal_iwdg.c ****   * @}
 315:./Drivers/STM32F1xx_HAL_Driver/Src/stm32f1xx_hal_iwdg.c ****   */
 316:./Drivers/STM32F1xx_HAL_Driver/Src/stm32f1xx_hal_iwdg.c **** 
 317:./Drivers/STM32F1xx_HAL_Driver/Src/stm32f1xx_hal_iwdg.c **** /** @defgroup IWDG_Exported_Functions_Group3 Peripheral State functions 
 318:./Drivers/STM32F1xx_HAL_Driver/Src/stm32f1xx_hal_iwdg.c ****  *  @brief    Peripheral State functions. 
 319:./Drivers/STM32F1xx_HAL_Driver/Src/stm32f1xx_hal_iwdg.c ****  *
 320:./Drivers/STM32F1xx_HAL_Driver/Src/stm32f1xx_hal_iwdg.c **** @verbatim   
 321:./Drivers/STM32F1xx_HAL_Driver/Src/stm32f1xx_hal_iwdg.c ****  ===============================================================================
 322:./Drivers/STM32F1xx_HAL_Driver/Src/stm32f1xx_hal_iwdg.c ****                       ##### Peripheral State functions #####
 323:./Drivers/STM32F1xx_HAL_Driver/Src/stm32f1xx_hal_iwdg.c ****  ===============================================================================  
 324:./Drivers/STM32F1xx_HAL_Driver/Src/stm32f1xx_hal_iwdg.c ****     [..]
 325:./Drivers/STM32F1xx_HAL_Driver/Src/stm32f1xx_hal_iwdg.c ****     This subsection permits to get in run-time the status of the peripheral 
 326:./Drivers/STM32F1xx_HAL_Driver/Src/stm32f1xx_hal_iwdg.c ****     and the data flow.
 327:./Drivers/STM32F1xx_HAL_Driver/Src/stm32f1xx_hal_iwdg.c **** 
 328:./Drivers/STM32F1xx_HAL_Driver/Src/stm32f1xx_hal_iwdg.c **** @endverbatim
 329:./Drivers/STM32F1xx_HAL_Driver/Src/stm32f1xx_hal_iwdg.c ****   * @{
 330:./Drivers/STM32F1xx_HAL_Driver/Src/stm32f1xx_hal_iwdg.c ****   */
 331:./Drivers/STM32F1xx_HAL_Driver/Src/stm32f1xx_hal_iwdg.c **** 
 332:./Drivers/STM32F1xx_HAL_Driver/Src/stm32f1xx_hal_iwdg.c **** /**
 333:./Drivers/STM32F1xx_HAL_Driver/Src/stm32f1xx_hal_iwdg.c ****   * @brief  Returns the IWDG state.
 334:./Drivers/STM32F1xx_HAL_Driver/Src/stm32f1xx_hal_iwdg.c ****   * @param  hiwdg: pointer to a IWDG_HandleTypeDef structure that contains
 335:./Drivers/STM32F1xx_HAL_Driver/Src/stm32f1xx_hal_iwdg.c ****   *                the configuration information for the specified IWDG module.
 336:./Drivers/STM32F1xx_HAL_Driver/Src/stm32f1xx_hal_iwdg.c ****   * @retval HAL state
 337:./Drivers/STM32F1xx_HAL_Driver/Src/stm32f1xx_hal_iwdg.c ****   */
 338:./Drivers/STM32F1xx_HAL_Driver/Src/stm32f1xx_hal_iwdg.c **** HAL_IWDG_StateTypeDef HAL_IWDG_GetState(IWDG_HandleTypeDef *hiwdg)
 339:./Drivers/STM32F1xx_HAL_Driver/Src/stm32f1xx_hal_iwdg.c **** {
 275              		.loc 1 339 0
 276              		.cfi_startproc
ARM GAS  /tmp/ccmw1d2H.s 			page 12


 277              		@ args = 0, pretend = 0, frame = 0
 278              		@ frame_needed = 0, uses_anonymous_args = 0
 279              		@ link register save eliminated.
 280              	.LVL21:
 340:./Drivers/STM32F1xx_HAL_Driver/Src/stm32f1xx_hal_iwdg.c ****   return hiwdg->State;
 281              		.loc 1 340 0
 282 0000 407B     		ldrb	r0, [r0, #13]	@ zero_extendqisi2
 283              	.LVL22:
 341:./Drivers/STM32F1xx_HAL_Driver/Src/stm32f1xx_hal_iwdg.c **** }
 284              		.loc 1 341 0
 285 0002 7047     		bx	lr
 286              		.cfi_endproc
 287              	.LFE67:
 289              		.text
 290              	.Letext0:
 291              		.file 2 "/usr/include/newlib/machine/_default_types.h"
 292              		.file 3 "/usr/include/newlib/sys/_stdint.h"
 293              		.file 4 "./Drivers/CMSIS/Device/ST/STM32F1xx/Include/stm32f103xe.h"
 294              		.file 5 "./Drivers/CMSIS/Device/ST/STM32F1xx/Include/stm32f1xx.h"
 295              		.file 6 "./Drivers/STM32F1xx_HAL_Driver/Inc/stm32f1xx_hal_def.h"
 296              		.file 7 "./Drivers/STM32F1xx_HAL_Driver/Inc/stm32f1xx_hal_iwdg.h"
 297              		.file 8 "./Drivers/CMSIS/Include/core_cm3.h"
 298              		.file 9 "./Drivers/STM32F1xx_HAL_Driver/Inc/stm32f1xx_hal.h"
ARM GAS  /tmp/ccmw1d2H.s 			page 13

