ARM GAS  /tmp/cc4JjNI1.s 			page 1


   1              		.syntax unified
   2              		.cpu cortex-m3
   3              		.fpu softvfp
   4              		.eabi_attribute 20, 1
   5              		.eabi_attribute 21, 1
   6              		.eabi_attribute 23, 3
   7              		.eabi_attribute 24, 1
   8              		.eabi_attribute 25, 1
   9              		.eabi_attribute 26, 1
  10              		.eabi_attribute 30, 1
  11              		.eabi_attribute 34, 1
  12              		.eabi_attribute 18, 4
  13              		.thumb
  14              		.file	"stm32f1xx_hal_dma.c"
  15              		.text
  16              	.Ltext0:
  17              		.cfi_sections	.debug_frame
  18              		.section	.text.DMA_SetConfig,"ax",%progbits
  19              		.align	2
  20              		.thumb
  21              		.thumb_func
  23              	DMA_SetConfig:
  24              	.LFB72:
  25              		.file 1 "./Drivers/STM32F1xx_HAL_Driver/Src/stm32f1xx_hal_dma.c"
   1:./Drivers/STM32F1xx_HAL_Driver/Src/stm32f1xx_hal_dma.c **** /**
   2:./Drivers/STM32F1xx_HAL_Driver/Src/stm32f1xx_hal_dma.c ****   ******************************************************************************
   3:./Drivers/STM32F1xx_HAL_Driver/Src/stm32f1xx_hal_dma.c ****   * @file    stm32f1xx_hal_dma.c
   4:./Drivers/STM32F1xx_HAL_Driver/Src/stm32f1xx_hal_dma.c ****   * @author  MCD Application Team
   5:./Drivers/STM32F1xx_HAL_Driver/Src/stm32f1xx_hal_dma.c ****   * @version V1.0.4
   6:./Drivers/STM32F1xx_HAL_Driver/Src/stm32f1xx_hal_dma.c ****   * @date    29-April-2016
   7:./Drivers/STM32F1xx_HAL_Driver/Src/stm32f1xx_hal_dma.c ****   * @brief   DMA HAL module driver.
   8:./Drivers/STM32F1xx_HAL_Driver/Src/stm32f1xx_hal_dma.c ****   *    
   9:./Drivers/STM32F1xx_HAL_Driver/Src/stm32f1xx_hal_dma.c ****   *          This file provides firmware functions to manage the following 
  10:./Drivers/STM32F1xx_HAL_Driver/Src/stm32f1xx_hal_dma.c ****   *          functionalities of the Direct Memory Access (DMA) peripheral:
  11:./Drivers/STM32F1xx_HAL_Driver/Src/stm32f1xx_hal_dma.c ****   *           + Initialization and de-initialization functions
  12:./Drivers/STM32F1xx_HAL_Driver/Src/stm32f1xx_hal_dma.c ****   *           + IO operation functions
  13:./Drivers/STM32F1xx_HAL_Driver/Src/stm32f1xx_hal_dma.c ****   *           + Peripheral State and errors functions
  14:./Drivers/STM32F1xx_HAL_Driver/Src/stm32f1xx_hal_dma.c ****   @verbatim     
  15:./Drivers/STM32F1xx_HAL_Driver/Src/stm32f1xx_hal_dma.c ****   ==============================================================================      
  16:./Drivers/STM32F1xx_HAL_Driver/Src/stm32f1xx_hal_dma.c ****                         ##### How to use this driver #####
  17:./Drivers/STM32F1xx_HAL_Driver/Src/stm32f1xx_hal_dma.c ****   ============================================================================== 
  18:./Drivers/STM32F1xx_HAL_Driver/Src/stm32f1xx_hal_dma.c ****   [..]
  19:./Drivers/STM32F1xx_HAL_Driver/Src/stm32f1xx_hal_dma.c ****    (#) Enable and configure the peripheral to be connected to the DMA Channel
  20:./Drivers/STM32F1xx_HAL_Driver/Src/stm32f1xx_hal_dma.c ****        (except for internal SRAM / FLASH memories: no initialization is 
  21:./Drivers/STM32F1xx_HAL_Driver/Src/stm32f1xx_hal_dma.c ****        necessary) please refer to Reference manual for connection between peripherals
  22:./Drivers/STM32F1xx_HAL_Driver/Src/stm32f1xx_hal_dma.c ****        and DMA requests.
  23:./Drivers/STM32F1xx_HAL_Driver/Src/stm32f1xx_hal_dma.c **** 
  24:./Drivers/STM32F1xx_HAL_Driver/Src/stm32f1xx_hal_dma.c ****    (#) For a given Channel, program the required configuration through the following parameters:   
  25:./Drivers/STM32F1xx_HAL_Driver/Src/stm32f1xx_hal_dma.c ****        Transfer Direction, Source and Destination data formats, 
  26:./Drivers/STM32F1xx_HAL_Driver/Src/stm32f1xx_hal_dma.c ****        Circular or Normal mode, Channel Priority level, Source and Destination Increment mode, 
  27:./Drivers/STM32F1xx_HAL_Driver/Src/stm32f1xx_hal_dma.c ****        using HAL_DMA_Init() function.
  28:./Drivers/STM32F1xx_HAL_Driver/Src/stm32f1xx_hal_dma.c **** 
  29:./Drivers/STM32F1xx_HAL_Driver/Src/stm32f1xx_hal_dma.c ****    (#) Use HAL_DMA_GetState() function to return the DMA state and HAL_DMA_GetError() in case of er
  30:./Drivers/STM32F1xx_HAL_Driver/Src/stm32f1xx_hal_dma.c ****        detection.
  31:./Drivers/STM32F1xx_HAL_Driver/Src/stm32f1xx_hal_dma.c ****                     
  32:./Drivers/STM32F1xx_HAL_Driver/Src/stm32f1xx_hal_dma.c ****    (#) Use HAL_DMA_Abort() function to abort the current transfer
  33:./Drivers/STM32F1xx_HAL_Driver/Src/stm32f1xx_hal_dma.c ****                    
ARM GAS  /tmp/cc4JjNI1.s 			page 2


  34:./Drivers/STM32F1xx_HAL_Driver/Src/stm32f1xx_hal_dma.c ****      -@-   In Memory-to-Memory transfer mode, Circular mode is not allowed.
  35:./Drivers/STM32F1xx_HAL_Driver/Src/stm32f1xx_hal_dma.c ****      *** Polling mode IO operation ***
  36:./Drivers/STM32F1xx_HAL_Driver/Src/stm32f1xx_hal_dma.c ****      =================================   
  37:./Drivers/STM32F1xx_HAL_Driver/Src/stm32f1xx_hal_dma.c ****     [..] 
  38:./Drivers/STM32F1xx_HAL_Driver/Src/stm32f1xx_hal_dma.c ****       (+) Use HAL_DMA_Start() to start DMA transfer after the configuration of Source 
  39:./Drivers/STM32F1xx_HAL_Driver/Src/stm32f1xx_hal_dma.c ****           address and destination address and the Length of data to be transferred
  40:./Drivers/STM32F1xx_HAL_Driver/Src/stm32f1xx_hal_dma.c ****       (+) Use HAL_DMA_PollForTransfer() to poll for the end of current transfer, in this  
  41:./Drivers/STM32F1xx_HAL_Driver/Src/stm32f1xx_hal_dma.c ****           case a fixed Timeout can be configured by User depending from his application.
  42:./Drivers/STM32F1xx_HAL_Driver/Src/stm32f1xx_hal_dma.c **** 
  43:./Drivers/STM32F1xx_HAL_Driver/Src/stm32f1xx_hal_dma.c ****      *** Interrupt mode IO operation ***    
  44:./Drivers/STM32F1xx_HAL_Driver/Src/stm32f1xx_hal_dma.c ****      =================================== 
  45:./Drivers/STM32F1xx_HAL_Driver/Src/stm32f1xx_hal_dma.c ****     [..]
  46:./Drivers/STM32F1xx_HAL_Driver/Src/stm32f1xx_hal_dma.c ****       (+) Configure the DMA interrupt priority using HAL_NVIC_SetPriority()
  47:./Drivers/STM32F1xx_HAL_Driver/Src/stm32f1xx_hal_dma.c ****       (+) Enable the DMA IRQ handler using HAL_NVIC_EnableIRQ() 
  48:./Drivers/STM32F1xx_HAL_Driver/Src/stm32f1xx_hal_dma.c ****       (+) Use HAL_DMA_Start_IT() to start DMA transfer after the configuration of  
  49:./Drivers/STM32F1xx_HAL_Driver/Src/stm32f1xx_hal_dma.c ****           Source address and destination address and the Length of data to be transferred. 
  50:./Drivers/STM32F1xx_HAL_Driver/Src/stm32f1xx_hal_dma.c ****           In this case the DMA interrupt is configured 
  51:./Drivers/STM32F1xx_HAL_Driver/Src/stm32f1xx_hal_dma.c ****       (+) Use HAL_DMAy_Channelx_IRQHandler() called under DMA_IRQHandler() Interrupt subroutine
  52:./Drivers/STM32F1xx_HAL_Driver/Src/stm32f1xx_hal_dma.c ****       (+) At the end of data transfer HAL_DMA_IRQHandler() function is executed and user can 
  53:./Drivers/STM32F1xx_HAL_Driver/Src/stm32f1xx_hal_dma.c ****           add his own function by customization of function pointer XferCpltCallback and 
  54:./Drivers/STM32F1xx_HAL_Driver/Src/stm32f1xx_hal_dma.c ****           XferErrorCallback (i.e a member of DMA handle structure). 
  55:./Drivers/STM32F1xx_HAL_Driver/Src/stm32f1xx_hal_dma.c **** 
  56:./Drivers/STM32F1xx_HAL_Driver/Src/stm32f1xx_hal_dma.c ****      *** DMA HAL driver macros list ***
  57:./Drivers/STM32F1xx_HAL_Driver/Src/stm32f1xx_hal_dma.c ****      ============================================= 
  58:./Drivers/STM32F1xx_HAL_Driver/Src/stm32f1xx_hal_dma.c ****      [..]
  59:./Drivers/STM32F1xx_HAL_Driver/Src/stm32f1xx_hal_dma.c ****        Below the list of most used macros in DMA HAL driver.
  60:./Drivers/STM32F1xx_HAL_Driver/Src/stm32f1xx_hal_dma.c **** 
  61:./Drivers/STM32F1xx_HAL_Driver/Src/stm32f1xx_hal_dma.c ****        (+) __HAL_DMA_ENABLE: Enable the specified DMA Channel.
  62:./Drivers/STM32F1xx_HAL_Driver/Src/stm32f1xx_hal_dma.c ****        (+) __HAL_DMA_DISABLE: Disable the specified DMA Channel.
  63:./Drivers/STM32F1xx_HAL_Driver/Src/stm32f1xx_hal_dma.c ****        (+) __HAL_DMA_GET_FLAG: Get the DMA Channel pending flags.
  64:./Drivers/STM32F1xx_HAL_Driver/Src/stm32f1xx_hal_dma.c ****        (+) __HAL_DMA_CLEAR_FLAG: Clear the DMA Channel pending flags.
  65:./Drivers/STM32F1xx_HAL_Driver/Src/stm32f1xx_hal_dma.c ****        (+) __HAL_DMA_ENABLE_IT: Enable the specified DMA Channel interrupts.
  66:./Drivers/STM32F1xx_HAL_Driver/Src/stm32f1xx_hal_dma.c ****        (+) __HAL_DMA_DISABLE_IT: Disable the specified DMA Channel interrupts.
  67:./Drivers/STM32F1xx_HAL_Driver/Src/stm32f1xx_hal_dma.c ****        (+) __HAL_DMA_GET_IT_SOURCE: Check whether the specified DMA Channel interrupt has occurred 
  68:./Drivers/STM32F1xx_HAL_Driver/Src/stm32f1xx_hal_dma.c **** 
  69:./Drivers/STM32F1xx_HAL_Driver/Src/stm32f1xx_hal_dma.c ****      [..] 
  70:./Drivers/STM32F1xx_HAL_Driver/Src/stm32f1xx_hal_dma.c ****       (@) You can refer to the DMA HAL driver header file for more useful macros  
  71:./Drivers/STM32F1xx_HAL_Driver/Src/stm32f1xx_hal_dma.c **** 
  72:./Drivers/STM32F1xx_HAL_Driver/Src/stm32f1xx_hal_dma.c ****   @endverbatim
  73:./Drivers/STM32F1xx_HAL_Driver/Src/stm32f1xx_hal_dma.c ****   ******************************************************************************
  74:./Drivers/STM32F1xx_HAL_Driver/Src/stm32f1xx_hal_dma.c ****   * @attention
  75:./Drivers/STM32F1xx_HAL_Driver/Src/stm32f1xx_hal_dma.c ****   *
  76:./Drivers/STM32F1xx_HAL_Driver/Src/stm32f1xx_hal_dma.c ****   * <h2><center>&copy; COPYRIGHT(c) 2016 STMicroelectronics</center></h2>
  77:./Drivers/STM32F1xx_HAL_Driver/Src/stm32f1xx_hal_dma.c ****   *
  78:./Drivers/STM32F1xx_HAL_Driver/Src/stm32f1xx_hal_dma.c ****   * Redistribution and use in source and binary forms, with or without modification,
  79:./Drivers/STM32F1xx_HAL_Driver/Src/stm32f1xx_hal_dma.c ****   * are permitted provided that the following conditions are met:
  80:./Drivers/STM32F1xx_HAL_Driver/Src/stm32f1xx_hal_dma.c ****   *   1. Redistributions of source code must retain the above copyright notice,
  81:./Drivers/STM32F1xx_HAL_Driver/Src/stm32f1xx_hal_dma.c ****   *      this list of conditions and the following disclaimer.
  82:./Drivers/STM32F1xx_HAL_Driver/Src/stm32f1xx_hal_dma.c ****   *   2. Redistributions in binary form must reproduce the above copyright notice,
  83:./Drivers/STM32F1xx_HAL_Driver/Src/stm32f1xx_hal_dma.c ****   *      this list of conditions and the following disclaimer in the documentation
  84:./Drivers/STM32F1xx_HAL_Driver/Src/stm32f1xx_hal_dma.c ****   *      and/or other materials provided with the distribution.
  85:./Drivers/STM32F1xx_HAL_Driver/Src/stm32f1xx_hal_dma.c ****   *   3. Neither the name of STMicroelectronics nor the names of its contributors
  86:./Drivers/STM32F1xx_HAL_Driver/Src/stm32f1xx_hal_dma.c ****   *      may be used to endorse or promote products derived from this software
  87:./Drivers/STM32F1xx_HAL_Driver/Src/stm32f1xx_hal_dma.c ****   *      without specific prior written permission.
  88:./Drivers/STM32F1xx_HAL_Driver/Src/stm32f1xx_hal_dma.c ****   *
  89:./Drivers/STM32F1xx_HAL_Driver/Src/stm32f1xx_hal_dma.c ****   * THIS SOFTWARE IS PROVIDED BY THE COPYRIGHT HOLDERS AND CONTRIBUTORS "AS IS"
  90:./Drivers/STM32F1xx_HAL_Driver/Src/stm32f1xx_hal_dma.c ****   * AND ANY EXPRESS OR IMPLIED WARRANTIES, INCLUDING, BUT NOT LIMITED TO, THE
ARM GAS  /tmp/cc4JjNI1.s 			page 3


  91:./Drivers/STM32F1xx_HAL_Driver/Src/stm32f1xx_hal_dma.c ****   * IMPLIED WARRANTIES OF MERCHANTABILITY AND FITNESS FOR A PARTICULAR PURPOSE ARE
  92:./Drivers/STM32F1xx_HAL_Driver/Src/stm32f1xx_hal_dma.c ****   * DISCLAIMED. IN NO EVENT SHALL THE COPYRIGHT HOLDER OR CONTRIBUTORS BE LIABLE
  93:./Drivers/STM32F1xx_HAL_Driver/Src/stm32f1xx_hal_dma.c ****   * FOR ANY DIRECT, INDIRECT, INCIDENTAL, SPECIAL, EXEMPLARY, OR CONSEQUENTIAL
  94:./Drivers/STM32F1xx_HAL_Driver/Src/stm32f1xx_hal_dma.c ****   * DAMAGES (INCLUDING, BUT NOT LIMITED TO, PROCUREMENT OF SUBSTITUTE GOODS OR
  95:./Drivers/STM32F1xx_HAL_Driver/Src/stm32f1xx_hal_dma.c ****   * SERVICES; LOSS OF USE, DATA, OR PROFITS; OR BUSINESS INTERRUPTION) HOWEVER
  96:./Drivers/STM32F1xx_HAL_Driver/Src/stm32f1xx_hal_dma.c ****   * CAUSED AND ON ANY THEORY OF LIABILITY, WHETHER IN CONTRACT, STRICT LIABILITY,
  97:./Drivers/STM32F1xx_HAL_Driver/Src/stm32f1xx_hal_dma.c ****   * OR TORT (INCLUDING NEGLIGENCE OR OTHERWISE) ARISING IN ANY WAY OUT OF THE USE
  98:./Drivers/STM32F1xx_HAL_Driver/Src/stm32f1xx_hal_dma.c ****   * OF THIS SOFTWARE, EVEN IF ADVISED OF THE POSSIBILITY OF SUCH DAMAGE.
  99:./Drivers/STM32F1xx_HAL_Driver/Src/stm32f1xx_hal_dma.c ****   *
 100:./Drivers/STM32F1xx_HAL_Driver/Src/stm32f1xx_hal_dma.c ****   ******************************************************************************
 101:./Drivers/STM32F1xx_HAL_Driver/Src/stm32f1xx_hal_dma.c ****   */ 
 102:./Drivers/STM32F1xx_HAL_Driver/Src/stm32f1xx_hal_dma.c **** 
 103:./Drivers/STM32F1xx_HAL_Driver/Src/stm32f1xx_hal_dma.c **** /* Includes ------------------------------------------------------------------*/
 104:./Drivers/STM32F1xx_HAL_Driver/Src/stm32f1xx_hal_dma.c **** #include "stm32f1xx_hal.h"
 105:./Drivers/STM32F1xx_HAL_Driver/Src/stm32f1xx_hal_dma.c **** 
 106:./Drivers/STM32F1xx_HAL_Driver/Src/stm32f1xx_hal_dma.c **** /** @addtogroup STM32F1xx_HAL_Driver
 107:./Drivers/STM32F1xx_HAL_Driver/Src/stm32f1xx_hal_dma.c ****   * @{
 108:./Drivers/STM32F1xx_HAL_Driver/Src/stm32f1xx_hal_dma.c ****   */
 109:./Drivers/STM32F1xx_HAL_Driver/Src/stm32f1xx_hal_dma.c **** 
 110:./Drivers/STM32F1xx_HAL_Driver/Src/stm32f1xx_hal_dma.c **** /** @defgroup DMA DMA
 111:./Drivers/STM32F1xx_HAL_Driver/Src/stm32f1xx_hal_dma.c ****   * @brief DMA HAL module driver
 112:./Drivers/STM32F1xx_HAL_Driver/Src/stm32f1xx_hal_dma.c ****   * @{
 113:./Drivers/STM32F1xx_HAL_Driver/Src/stm32f1xx_hal_dma.c ****   */
 114:./Drivers/STM32F1xx_HAL_Driver/Src/stm32f1xx_hal_dma.c **** 
 115:./Drivers/STM32F1xx_HAL_Driver/Src/stm32f1xx_hal_dma.c **** #ifdef HAL_DMA_MODULE_ENABLED
 116:./Drivers/STM32F1xx_HAL_Driver/Src/stm32f1xx_hal_dma.c **** 
 117:./Drivers/STM32F1xx_HAL_Driver/Src/stm32f1xx_hal_dma.c **** /* Private typedef -----------------------------------------------------------*/
 118:./Drivers/STM32F1xx_HAL_Driver/Src/stm32f1xx_hal_dma.c **** /* Private define ------------------------------------------------------------*/
 119:./Drivers/STM32F1xx_HAL_Driver/Src/stm32f1xx_hal_dma.c **** /** @defgroup DMA_Private_Constants DMA Private Constants
 120:./Drivers/STM32F1xx_HAL_Driver/Src/stm32f1xx_hal_dma.c ****   * @{
 121:./Drivers/STM32F1xx_HAL_Driver/Src/stm32f1xx_hal_dma.c ****   */
 122:./Drivers/STM32F1xx_HAL_Driver/Src/stm32f1xx_hal_dma.c **** #define HAL_TIMEOUT_DMA_ABORT    ((uint32_t)1000)  /* 1s */
 123:./Drivers/STM32F1xx_HAL_Driver/Src/stm32f1xx_hal_dma.c **** /**
 124:./Drivers/STM32F1xx_HAL_Driver/Src/stm32f1xx_hal_dma.c ****   * @}
 125:./Drivers/STM32F1xx_HAL_Driver/Src/stm32f1xx_hal_dma.c ****   */
 126:./Drivers/STM32F1xx_HAL_Driver/Src/stm32f1xx_hal_dma.c **** 
 127:./Drivers/STM32F1xx_HAL_Driver/Src/stm32f1xx_hal_dma.c **** /* Private macro -------------------------------------------------------------*/
 128:./Drivers/STM32F1xx_HAL_Driver/Src/stm32f1xx_hal_dma.c **** /* Private variables ---------------------------------------------------------*/
 129:./Drivers/STM32F1xx_HAL_Driver/Src/stm32f1xx_hal_dma.c **** /* Private function prototypes -----------------------------------------------*/
 130:./Drivers/STM32F1xx_HAL_Driver/Src/stm32f1xx_hal_dma.c **** /** @defgroup DMA_Private_Functions DMA Private Functions
 131:./Drivers/STM32F1xx_HAL_Driver/Src/stm32f1xx_hal_dma.c ****   * @{
 132:./Drivers/STM32F1xx_HAL_Driver/Src/stm32f1xx_hal_dma.c ****   */
 133:./Drivers/STM32F1xx_HAL_Driver/Src/stm32f1xx_hal_dma.c **** static void DMA_SetConfig(DMA_HandleTypeDef *hdma, uint32_t SrcAddress, uint32_t DstAddress, uint32
 134:./Drivers/STM32F1xx_HAL_Driver/Src/stm32f1xx_hal_dma.c **** /**
 135:./Drivers/STM32F1xx_HAL_Driver/Src/stm32f1xx_hal_dma.c ****   * @}
 136:./Drivers/STM32F1xx_HAL_Driver/Src/stm32f1xx_hal_dma.c ****   */
 137:./Drivers/STM32F1xx_HAL_Driver/Src/stm32f1xx_hal_dma.c **** 
 138:./Drivers/STM32F1xx_HAL_Driver/Src/stm32f1xx_hal_dma.c **** /* Exported functions ---------------------------------------------------------*/
 139:./Drivers/STM32F1xx_HAL_Driver/Src/stm32f1xx_hal_dma.c **** 
 140:./Drivers/STM32F1xx_HAL_Driver/Src/stm32f1xx_hal_dma.c **** /** @defgroup DMA_Exported_Functions DMA Exported Functions
 141:./Drivers/STM32F1xx_HAL_Driver/Src/stm32f1xx_hal_dma.c ****   * @{
 142:./Drivers/STM32F1xx_HAL_Driver/Src/stm32f1xx_hal_dma.c ****   */
 143:./Drivers/STM32F1xx_HAL_Driver/Src/stm32f1xx_hal_dma.c **** 
 144:./Drivers/STM32F1xx_HAL_Driver/Src/stm32f1xx_hal_dma.c **** /** @defgroup DMA_Exported_Functions_Group1 Initialization and de-initialization functions
 145:./Drivers/STM32F1xx_HAL_Driver/Src/stm32f1xx_hal_dma.c ****  *  @brief   Initialization and de-initialization functions 
 146:./Drivers/STM32F1xx_HAL_Driver/Src/stm32f1xx_hal_dma.c ****  *
 147:./Drivers/STM32F1xx_HAL_Driver/Src/stm32f1xx_hal_dma.c **** @verbatim   
ARM GAS  /tmp/cc4JjNI1.s 			page 4


 148:./Drivers/STM32F1xx_HAL_Driver/Src/stm32f1xx_hal_dma.c ****  ===============================================================================
 149:./Drivers/STM32F1xx_HAL_Driver/Src/stm32f1xx_hal_dma.c ****              ##### Initialization and de-initialization functions  #####
 150:./Drivers/STM32F1xx_HAL_Driver/Src/stm32f1xx_hal_dma.c ****  ===============================================================================  
 151:./Drivers/STM32F1xx_HAL_Driver/Src/stm32f1xx_hal_dma.c ****     [..]
 152:./Drivers/STM32F1xx_HAL_Driver/Src/stm32f1xx_hal_dma.c ****     This section provides functions allowing to initialize the DMA Channel source
 153:./Drivers/STM32F1xx_HAL_Driver/Src/stm32f1xx_hal_dma.c ****     and destination addresses, incrementation and data sizes, transfer direction, 
 154:./Drivers/STM32F1xx_HAL_Driver/Src/stm32f1xx_hal_dma.c ****     circular/normal mode selection, memory-to-memory mode selection and Channel priority value.
 155:./Drivers/STM32F1xx_HAL_Driver/Src/stm32f1xx_hal_dma.c ****     [..]
 156:./Drivers/STM32F1xx_HAL_Driver/Src/stm32f1xx_hal_dma.c ****     The HAL_DMA_Init() function follows the DMA configuration procedures as described in
 157:./Drivers/STM32F1xx_HAL_Driver/Src/stm32f1xx_hal_dma.c ****     reference manual.  
 158:./Drivers/STM32F1xx_HAL_Driver/Src/stm32f1xx_hal_dma.c **** 
 159:./Drivers/STM32F1xx_HAL_Driver/Src/stm32f1xx_hal_dma.c **** @endverbatim
 160:./Drivers/STM32F1xx_HAL_Driver/Src/stm32f1xx_hal_dma.c ****   * @{
 161:./Drivers/STM32F1xx_HAL_Driver/Src/stm32f1xx_hal_dma.c ****   */
 162:./Drivers/STM32F1xx_HAL_Driver/Src/stm32f1xx_hal_dma.c ****   
 163:./Drivers/STM32F1xx_HAL_Driver/Src/stm32f1xx_hal_dma.c **** /**
 164:./Drivers/STM32F1xx_HAL_Driver/Src/stm32f1xx_hal_dma.c ****   * @brief  Initializes the DMA according to the specified
 165:./Drivers/STM32F1xx_HAL_Driver/Src/stm32f1xx_hal_dma.c ****   *         parameters in the DMA_InitTypeDef and create the associated handle.
 166:./Drivers/STM32F1xx_HAL_Driver/Src/stm32f1xx_hal_dma.c ****   * @param  hdma: Pointer to a DMA_HandleTypeDef structure that contains
 167:./Drivers/STM32F1xx_HAL_Driver/Src/stm32f1xx_hal_dma.c ****   *               the configuration information for the specified DMA Channel.  
 168:./Drivers/STM32F1xx_HAL_Driver/Src/stm32f1xx_hal_dma.c ****   * @retval HAL status
 169:./Drivers/STM32F1xx_HAL_Driver/Src/stm32f1xx_hal_dma.c ****   */
 170:./Drivers/STM32F1xx_HAL_Driver/Src/stm32f1xx_hal_dma.c **** HAL_StatusTypeDef HAL_DMA_Init(DMA_HandleTypeDef *hdma)
 171:./Drivers/STM32F1xx_HAL_Driver/Src/stm32f1xx_hal_dma.c **** { 
 172:./Drivers/STM32F1xx_HAL_Driver/Src/stm32f1xx_hal_dma.c ****   uint32_t tmp = 0;
 173:./Drivers/STM32F1xx_HAL_Driver/Src/stm32f1xx_hal_dma.c ****   
 174:./Drivers/STM32F1xx_HAL_Driver/Src/stm32f1xx_hal_dma.c ****   /* Check the DMA handle allocation */
 175:./Drivers/STM32F1xx_HAL_Driver/Src/stm32f1xx_hal_dma.c ****   if(hdma == NULL)
 176:./Drivers/STM32F1xx_HAL_Driver/Src/stm32f1xx_hal_dma.c ****   {
 177:./Drivers/STM32F1xx_HAL_Driver/Src/stm32f1xx_hal_dma.c ****     return HAL_ERROR;
 178:./Drivers/STM32F1xx_HAL_Driver/Src/stm32f1xx_hal_dma.c ****   }
 179:./Drivers/STM32F1xx_HAL_Driver/Src/stm32f1xx_hal_dma.c ****   
 180:./Drivers/STM32F1xx_HAL_Driver/Src/stm32f1xx_hal_dma.c ****   /* Check the parameters */
 181:./Drivers/STM32F1xx_HAL_Driver/Src/stm32f1xx_hal_dma.c ****   assert_param(IS_DMA_ALL_INSTANCE(hdma->Instance));
 182:./Drivers/STM32F1xx_HAL_Driver/Src/stm32f1xx_hal_dma.c ****   assert_param(IS_DMA_DIRECTION(hdma->Init.Direction));
 183:./Drivers/STM32F1xx_HAL_Driver/Src/stm32f1xx_hal_dma.c ****   assert_param(IS_DMA_PERIPHERAL_INC_STATE(hdma->Init.PeriphInc));
 184:./Drivers/STM32F1xx_HAL_Driver/Src/stm32f1xx_hal_dma.c ****   assert_param(IS_DMA_MEMORY_INC_STATE(hdma->Init.MemInc));
 185:./Drivers/STM32F1xx_HAL_Driver/Src/stm32f1xx_hal_dma.c ****   assert_param(IS_DMA_PERIPHERAL_DATA_SIZE(hdma->Init.PeriphDataAlignment));
 186:./Drivers/STM32F1xx_HAL_Driver/Src/stm32f1xx_hal_dma.c ****   assert_param(IS_DMA_MEMORY_DATA_SIZE(hdma->Init.MemDataAlignment));
 187:./Drivers/STM32F1xx_HAL_Driver/Src/stm32f1xx_hal_dma.c ****   assert_param(IS_DMA_MODE(hdma->Init.Mode));
 188:./Drivers/STM32F1xx_HAL_Driver/Src/stm32f1xx_hal_dma.c ****   assert_param(IS_DMA_PRIORITY(hdma->Init.Priority));
 189:./Drivers/STM32F1xx_HAL_Driver/Src/stm32f1xx_hal_dma.c ****   
 190:./Drivers/STM32F1xx_HAL_Driver/Src/stm32f1xx_hal_dma.c ****   if(hdma->State == HAL_DMA_STATE_RESET)
 191:./Drivers/STM32F1xx_HAL_Driver/Src/stm32f1xx_hal_dma.c ****   {  
 192:./Drivers/STM32F1xx_HAL_Driver/Src/stm32f1xx_hal_dma.c ****     /* Allocate lock resource and initialize it */
 193:./Drivers/STM32F1xx_HAL_Driver/Src/stm32f1xx_hal_dma.c ****     hdma->Lock = HAL_UNLOCKED;
 194:./Drivers/STM32F1xx_HAL_Driver/Src/stm32f1xx_hal_dma.c ****   }
 195:./Drivers/STM32F1xx_HAL_Driver/Src/stm32f1xx_hal_dma.c ****   
 196:./Drivers/STM32F1xx_HAL_Driver/Src/stm32f1xx_hal_dma.c ****   /* Change DMA peripheral state */
 197:./Drivers/STM32F1xx_HAL_Driver/Src/stm32f1xx_hal_dma.c ****   hdma->State = HAL_DMA_STATE_BUSY;
 198:./Drivers/STM32F1xx_HAL_Driver/Src/stm32f1xx_hal_dma.c **** 
 199:./Drivers/STM32F1xx_HAL_Driver/Src/stm32f1xx_hal_dma.c ****   /* Get the CR register value */
 200:./Drivers/STM32F1xx_HAL_Driver/Src/stm32f1xx_hal_dma.c ****   tmp = hdma->Instance->CCR;
 201:./Drivers/STM32F1xx_HAL_Driver/Src/stm32f1xx_hal_dma.c ****   
 202:./Drivers/STM32F1xx_HAL_Driver/Src/stm32f1xx_hal_dma.c ****   /* Clear PL, MSIZE, PSIZE, MINC, PINC, CIRC, DIR bits */
 203:./Drivers/STM32F1xx_HAL_Driver/Src/stm32f1xx_hal_dma.c ****   tmp &= ((uint32_t)~(DMA_CCR_PL    | DMA_CCR_MSIZE  | DMA_CCR_PSIZE  | \
 204:./Drivers/STM32F1xx_HAL_Driver/Src/stm32f1xx_hal_dma.c ****                       DMA_CCR_MINC  | DMA_CCR_PINC   | DMA_CCR_CIRC   | \
ARM GAS  /tmp/cc4JjNI1.s 			page 5


 205:./Drivers/STM32F1xx_HAL_Driver/Src/stm32f1xx_hal_dma.c ****                       DMA_CCR_DIR));
 206:./Drivers/STM32F1xx_HAL_Driver/Src/stm32f1xx_hal_dma.c ****   
 207:./Drivers/STM32F1xx_HAL_Driver/Src/stm32f1xx_hal_dma.c ****   /* Prepare the DMA Channel configuration */
 208:./Drivers/STM32F1xx_HAL_Driver/Src/stm32f1xx_hal_dma.c ****   tmp |=  hdma->Init.Direction        |
 209:./Drivers/STM32F1xx_HAL_Driver/Src/stm32f1xx_hal_dma.c ****           hdma->Init.PeriphInc           | hdma->Init.MemInc           |
 210:./Drivers/STM32F1xx_HAL_Driver/Src/stm32f1xx_hal_dma.c ****           hdma->Init.PeriphDataAlignment | hdma->Init.MemDataAlignment |
 211:./Drivers/STM32F1xx_HAL_Driver/Src/stm32f1xx_hal_dma.c ****           hdma->Init.Mode                | hdma->Init.Priority;
 212:./Drivers/STM32F1xx_HAL_Driver/Src/stm32f1xx_hal_dma.c **** 
 213:./Drivers/STM32F1xx_HAL_Driver/Src/stm32f1xx_hal_dma.c ****   /* Write to DMA Channel CR register */
 214:./Drivers/STM32F1xx_HAL_Driver/Src/stm32f1xx_hal_dma.c ****   hdma->Instance->CCR = tmp;  
 215:./Drivers/STM32F1xx_HAL_Driver/Src/stm32f1xx_hal_dma.c ****   
 216:./Drivers/STM32F1xx_HAL_Driver/Src/stm32f1xx_hal_dma.c ****   /* Initialise the error code */
 217:./Drivers/STM32F1xx_HAL_Driver/Src/stm32f1xx_hal_dma.c ****   hdma->ErrorCode = HAL_DMA_ERROR_NONE;
 218:./Drivers/STM32F1xx_HAL_Driver/Src/stm32f1xx_hal_dma.c **** 
 219:./Drivers/STM32F1xx_HAL_Driver/Src/stm32f1xx_hal_dma.c ****   /* Initialize the DMA state*/
 220:./Drivers/STM32F1xx_HAL_Driver/Src/stm32f1xx_hal_dma.c ****   hdma->State = HAL_DMA_STATE_READY;
 221:./Drivers/STM32F1xx_HAL_Driver/Src/stm32f1xx_hal_dma.c ****   
 222:./Drivers/STM32F1xx_HAL_Driver/Src/stm32f1xx_hal_dma.c ****   return HAL_OK;
 223:./Drivers/STM32F1xx_HAL_Driver/Src/stm32f1xx_hal_dma.c **** }
 224:./Drivers/STM32F1xx_HAL_Driver/Src/stm32f1xx_hal_dma.c **** 
 225:./Drivers/STM32F1xx_HAL_Driver/Src/stm32f1xx_hal_dma.c **** /**
 226:./Drivers/STM32F1xx_HAL_Driver/Src/stm32f1xx_hal_dma.c ****   * @brief  DeInitializes the DMA peripheral 
 227:./Drivers/STM32F1xx_HAL_Driver/Src/stm32f1xx_hal_dma.c ****   * @param  hdma: pointer to a DMA_HandleTypeDef structure that contains
 228:./Drivers/STM32F1xx_HAL_Driver/Src/stm32f1xx_hal_dma.c ****   *               the configuration information for the specified DMA Channel.  
 229:./Drivers/STM32F1xx_HAL_Driver/Src/stm32f1xx_hal_dma.c ****   * @retval HAL status
 230:./Drivers/STM32F1xx_HAL_Driver/Src/stm32f1xx_hal_dma.c ****   */
 231:./Drivers/STM32F1xx_HAL_Driver/Src/stm32f1xx_hal_dma.c **** HAL_StatusTypeDef HAL_DMA_DeInit(DMA_HandleTypeDef *hdma)
 232:./Drivers/STM32F1xx_HAL_Driver/Src/stm32f1xx_hal_dma.c **** {
 233:./Drivers/STM32F1xx_HAL_Driver/Src/stm32f1xx_hal_dma.c ****   /* Check the DMA handle allocation */
 234:./Drivers/STM32F1xx_HAL_Driver/Src/stm32f1xx_hal_dma.c ****   if(hdma == NULL)
 235:./Drivers/STM32F1xx_HAL_Driver/Src/stm32f1xx_hal_dma.c ****   {
 236:./Drivers/STM32F1xx_HAL_Driver/Src/stm32f1xx_hal_dma.c ****     return HAL_ERROR;
 237:./Drivers/STM32F1xx_HAL_Driver/Src/stm32f1xx_hal_dma.c ****   }
 238:./Drivers/STM32F1xx_HAL_Driver/Src/stm32f1xx_hal_dma.c ****   
 239:./Drivers/STM32F1xx_HAL_Driver/Src/stm32f1xx_hal_dma.c ****   /* Check the parameters */
 240:./Drivers/STM32F1xx_HAL_Driver/Src/stm32f1xx_hal_dma.c ****   assert_param(IS_DMA_ALL_INSTANCE(hdma->Instance));
 241:./Drivers/STM32F1xx_HAL_Driver/Src/stm32f1xx_hal_dma.c **** 
 242:./Drivers/STM32F1xx_HAL_Driver/Src/stm32f1xx_hal_dma.c ****   /* Check the DMA peripheral state */
 243:./Drivers/STM32F1xx_HAL_Driver/Src/stm32f1xx_hal_dma.c ****   if(hdma->State == HAL_DMA_STATE_BUSY)
 244:./Drivers/STM32F1xx_HAL_Driver/Src/stm32f1xx_hal_dma.c ****   {
 245:./Drivers/STM32F1xx_HAL_Driver/Src/stm32f1xx_hal_dma.c ****      return HAL_ERROR;
 246:./Drivers/STM32F1xx_HAL_Driver/Src/stm32f1xx_hal_dma.c ****   }
 247:./Drivers/STM32F1xx_HAL_Driver/Src/stm32f1xx_hal_dma.c **** 
 248:./Drivers/STM32F1xx_HAL_Driver/Src/stm32f1xx_hal_dma.c ****   /* Disable the selected DMA Channelx */
 249:./Drivers/STM32F1xx_HAL_Driver/Src/stm32f1xx_hal_dma.c ****   __HAL_DMA_DISABLE(hdma);
 250:./Drivers/STM32F1xx_HAL_Driver/Src/stm32f1xx_hal_dma.c ****   
 251:./Drivers/STM32F1xx_HAL_Driver/Src/stm32f1xx_hal_dma.c ****   /* Reset DMA Channel control register */
 252:./Drivers/STM32F1xx_HAL_Driver/Src/stm32f1xx_hal_dma.c ****   hdma->Instance->CCR  = 0;
 253:./Drivers/STM32F1xx_HAL_Driver/Src/stm32f1xx_hal_dma.c ****   
 254:./Drivers/STM32F1xx_HAL_Driver/Src/stm32f1xx_hal_dma.c ****   /* Reset DMA Channel Number of Data to Transfer register */
 255:./Drivers/STM32F1xx_HAL_Driver/Src/stm32f1xx_hal_dma.c ****   hdma->Instance->CNDTR = 0;
 256:./Drivers/STM32F1xx_HAL_Driver/Src/stm32f1xx_hal_dma.c ****   
 257:./Drivers/STM32F1xx_HAL_Driver/Src/stm32f1xx_hal_dma.c ****   /* Reset DMA Channel peripheral address register */
 258:./Drivers/STM32F1xx_HAL_Driver/Src/stm32f1xx_hal_dma.c ****   hdma->Instance->CPAR  = 0;
 259:./Drivers/STM32F1xx_HAL_Driver/Src/stm32f1xx_hal_dma.c ****   
 260:./Drivers/STM32F1xx_HAL_Driver/Src/stm32f1xx_hal_dma.c ****   /* Reset DMA Channel memory address register */
 261:./Drivers/STM32F1xx_HAL_Driver/Src/stm32f1xx_hal_dma.c ****   hdma->Instance->CMAR = 0;
ARM GAS  /tmp/cc4JjNI1.s 			page 6


 262:./Drivers/STM32F1xx_HAL_Driver/Src/stm32f1xx_hal_dma.c **** 
 263:./Drivers/STM32F1xx_HAL_Driver/Src/stm32f1xx_hal_dma.c ****   /* Clear all flags */
 264:./Drivers/STM32F1xx_HAL_Driver/Src/stm32f1xx_hal_dma.c ****   __HAL_DMA_CLEAR_FLAG(hdma, __HAL_DMA_GET_TC_FLAG_INDEX(hdma));
 265:./Drivers/STM32F1xx_HAL_Driver/Src/stm32f1xx_hal_dma.c ****   __HAL_DMA_CLEAR_FLAG(hdma, __HAL_DMA_GET_TE_FLAG_INDEX(hdma));
 266:./Drivers/STM32F1xx_HAL_Driver/Src/stm32f1xx_hal_dma.c ****   __HAL_DMA_CLEAR_FLAG(hdma, __HAL_DMA_GET_HT_FLAG_INDEX(hdma));
 267:./Drivers/STM32F1xx_HAL_Driver/Src/stm32f1xx_hal_dma.c ****   
 268:./Drivers/STM32F1xx_HAL_Driver/Src/stm32f1xx_hal_dma.c ****   /* Initialize the error code */
 269:./Drivers/STM32F1xx_HAL_Driver/Src/stm32f1xx_hal_dma.c ****   hdma->ErrorCode = HAL_DMA_ERROR_NONE;
 270:./Drivers/STM32F1xx_HAL_Driver/Src/stm32f1xx_hal_dma.c **** 
 271:./Drivers/STM32F1xx_HAL_Driver/Src/stm32f1xx_hal_dma.c ****   /* Initialize the DMA state */
 272:./Drivers/STM32F1xx_HAL_Driver/Src/stm32f1xx_hal_dma.c ****   hdma->State = HAL_DMA_STATE_RESET;
 273:./Drivers/STM32F1xx_HAL_Driver/Src/stm32f1xx_hal_dma.c **** 
 274:./Drivers/STM32F1xx_HAL_Driver/Src/stm32f1xx_hal_dma.c ****   /* Release Lock */
 275:./Drivers/STM32F1xx_HAL_Driver/Src/stm32f1xx_hal_dma.c ****   __HAL_UNLOCK(hdma);
 276:./Drivers/STM32F1xx_HAL_Driver/Src/stm32f1xx_hal_dma.c **** 
 277:./Drivers/STM32F1xx_HAL_Driver/Src/stm32f1xx_hal_dma.c ****   return HAL_OK;
 278:./Drivers/STM32F1xx_HAL_Driver/Src/stm32f1xx_hal_dma.c **** }
 279:./Drivers/STM32F1xx_HAL_Driver/Src/stm32f1xx_hal_dma.c **** 
 280:./Drivers/STM32F1xx_HAL_Driver/Src/stm32f1xx_hal_dma.c **** /**
 281:./Drivers/STM32F1xx_HAL_Driver/Src/stm32f1xx_hal_dma.c ****   * @}
 282:./Drivers/STM32F1xx_HAL_Driver/Src/stm32f1xx_hal_dma.c ****   */
 283:./Drivers/STM32F1xx_HAL_Driver/Src/stm32f1xx_hal_dma.c **** 
 284:./Drivers/STM32F1xx_HAL_Driver/Src/stm32f1xx_hal_dma.c **** /** @defgroup DMA_Exported_Functions_Group2 Input and Output operation functions 
 285:./Drivers/STM32F1xx_HAL_Driver/Src/stm32f1xx_hal_dma.c ****  *  @brief   I/O operation functions  
 286:./Drivers/STM32F1xx_HAL_Driver/Src/stm32f1xx_hal_dma.c ****  *
 287:./Drivers/STM32F1xx_HAL_Driver/Src/stm32f1xx_hal_dma.c **** @verbatim   
 288:./Drivers/STM32F1xx_HAL_Driver/Src/stm32f1xx_hal_dma.c ****  ===============================================================================
 289:./Drivers/STM32F1xx_HAL_Driver/Src/stm32f1xx_hal_dma.c ****                       #####  IO operation functions  #####
 290:./Drivers/STM32F1xx_HAL_Driver/Src/stm32f1xx_hal_dma.c ****  ===============================================================================  
 291:./Drivers/STM32F1xx_HAL_Driver/Src/stm32f1xx_hal_dma.c ****     [..]  This section provides functions allowing to:
 292:./Drivers/STM32F1xx_HAL_Driver/Src/stm32f1xx_hal_dma.c ****       (+) Configure the source, destination address and data length and Start DMA transfer
 293:./Drivers/STM32F1xx_HAL_Driver/Src/stm32f1xx_hal_dma.c ****       (+) Configure the source, destination address and data length and 
 294:./Drivers/STM32F1xx_HAL_Driver/Src/stm32f1xx_hal_dma.c ****           Start DMA transfer with interrupt
 295:./Drivers/STM32F1xx_HAL_Driver/Src/stm32f1xx_hal_dma.c ****       (+) Abort DMA transfer
 296:./Drivers/STM32F1xx_HAL_Driver/Src/stm32f1xx_hal_dma.c ****       (+) Poll for transfer complete
 297:./Drivers/STM32F1xx_HAL_Driver/Src/stm32f1xx_hal_dma.c ****       (+) Handle DMA interrupt request  
 298:./Drivers/STM32F1xx_HAL_Driver/Src/stm32f1xx_hal_dma.c **** 
 299:./Drivers/STM32F1xx_HAL_Driver/Src/stm32f1xx_hal_dma.c **** @endverbatim
 300:./Drivers/STM32F1xx_HAL_Driver/Src/stm32f1xx_hal_dma.c ****   * @{
 301:./Drivers/STM32F1xx_HAL_Driver/Src/stm32f1xx_hal_dma.c ****   */
 302:./Drivers/STM32F1xx_HAL_Driver/Src/stm32f1xx_hal_dma.c **** 
 303:./Drivers/STM32F1xx_HAL_Driver/Src/stm32f1xx_hal_dma.c **** /**
 304:./Drivers/STM32F1xx_HAL_Driver/Src/stm32f1xx_hal_dma.c ****   * @brief  Starts the DMA Transfer.
 305:./Drivers/STM32F1xx_HAL_Driver/Src/stm32f1xx_hal_dma.c ****   * @param  hdma      : pointer to a DMA_HandleTypeDef structure that contains
 306:./Drivers/STM32F1xx_HAL_Driver/Src/stm32f1xx_hal_dma.c ****   *                     the configuration information for the specified DMA Channel.  
 307:./Drivers/STM32F1xx_HAL_Driver/Src/stm32f1xx_hal_dma.c ****   * @param  SrcAddress: The source memory Buffer address
 308:./Drivers/STM32F1xx_HAL_Driver/Src/stm32f1xx_hal_dma.c ****   * @param  DstAddress: The destination memory Buffer address
 309:./Drivers/STM32F1xx_HAL_Driver/Src/stm32f1xx_hal_dma.c ****   * @param  DataLength: The length of data to be transferred from source to destination
 310:./Drivers/STM32F1xx_HAL_Driver/Src/stm32f1xx_hal_dma.c ****   * @retval HAL status
 311:./Drivers/STM32F1xx_HAL_Driver/Src/stm32f1xx_hal_dma.c ****   */
 312:./Drivers/STM32F1xx_HAL_Driver/Src/stm32f1xx_hal_dma.c **** HAL_StatusTypeDef HAL_DMA_Start(DMA_HandleTypeDef *hdma, uint32_t SrcAddress, uint32_t DstAddress, 
 313:./Drivers/STM32F1xx_HAL_Driver/Src/stm32f1xx_hal_dma.c **** {
 314:./Drivers/STM32F1xx_HAL_Driver/Src/stm32f1xx_hal_dma.c ****   /* Process locked */
 315:./Drivers/STM32F1xx_HAL_Driver/Src/stm32f1xx_hal_dma.c ****   __HAL_LOCK(hdma);
 316:./Drivers/STM32F1xx_HAL_Driver/Src/stm32f1xx_hal_dma.c **** 
 317:./Drivers/STM32F1xx_HAL_Driver/Src/stm32f1xx_hal_dma.c ****   /* Change DMA peripheral state */
 318:./Drivers/STM32F1xx_HAL_Driver/Src/stm32f1xx_hal_dma.c ****   hdma->State = HAL_DMA_STATE_BUSY;
ARM GAS  /tmp/cc4JjNI1.s 			page 7


 319:./Drivers/STM32F1xx_HAL_Driver/Src/stm32f1xx_hal_dma.c **** 
 320:./Drivers/STM32F1xx_HAL_Driver/Src/stm32f1xx_hal_dma.c ****    /* Check the parameters */
 321:./Drivers/STM32F1xx_HAL_Driver/Src/stm32f1xx_hal_dma.c ****   assert_param(IS_DMA_BUFFER_SIZE(DataLength));
 322:./Drivers/STM32F1xx_HAL_Driver/Src/stm32f1xx_hal_dma.c ****   
 323:./Drivers/STM32F1xx_HAL_Driver/Src/stm32f1xx_hal_dma.c ****   /* Disable the peripheral */
 324:./Drivers/STM32F1xx_HAL_Driver/Src/stm32f1xx_hal_dma.c ****   __HAL_DMA_DISABLE(hdma);
 325:./Drivers/STM32F1xx_HAL_Driver/Src/stm32f1xx_hal_dma.c ****   
 326:./Drivers/STM32F1xx_HAL_Driver/Src/stm32f1xx_hal_dma.c ****   /* Configure the source, destination address and the data length */
 327:./Drivers/STM32F1xx_HAL_Driver/Src/stm32f1xx_hal_dma.c ****   DMA_SetConfig(hdma, SrcAddress, DstAddress, DataLength);
 328:./Drivers/STM32F1xx_HAL_Driver/Src/stm32f1xx_hal_dma.c **** 
 329:./Drivers/STM32F1xx_HAL_Driver/Src/stm32f1xx_hal_dma.c ****   /* Enable the Peripheral */
 330:./Drivers/STM32F1xx_HAL_Driver/Src/stm32f1xx_hal_dma.c ****   __HAL_DMA_ENABLE(hdma);
 331:./Drivers/STM32F1xx_HAL_Driver/Src/stm32f1xx_hal_dma.c **** 
 332:./Drivers/STM32F1xx_HAL_Driver/Src/stm32f1xx_hal_dma.c ****   return HAL_OK; 
 333:./Drivers/STM32F1xx_HAL_Driver/Src/stm32f1xx_hal_dma.c **** }
 334:./Drivers/STM32F1xx_HAL_Driver/Src/stm32f1xx_hal_dma.c **** 
 335:./Drivers/STM32F1xx_HAL_Driver/Src/stm32f1xx_hal_dma.c **** /**
 336:./Drivers/STM32F1xx_HAL_Driver/Src/stm32f1xx_hal_dma.c ****   * @brief  Start the DMA Transfer with interrupt enabled.
 337:./Drivers/STM32F1xx_HAL_Driver/Src/stm32f1xx_hal_dma.c ****   * @param  hdma:       pointer to a DMA_HandleTypeDef structure that contains
 338:./Drivers/STM32F1xx_HAL_Driver/Src/stm32f1xx_hal_dma.c ****   *                     the configuration information for the specified DMA Channel.  
 339:./Drivers/STM32F1xx_HAL_Driver/Src/stm32f1xx_hal_dma.c ****   * @param  SrcAddress: The source memory Buffer address
 340:./Drivers/STM32F1xx_HAL_Driver/Src/stm32f1xx_hal_dma.c ****   * @param  DstAddress: The destination memory Buffer address
 341:./Drivers/STM32F1xx_HAL_Driver/Src/stm32f1xx_hal_dma.c ****   * @param  DataLength: The length of data to be transferred from source to destination
 342:./Drivers/STM32F1xx_HAL_Driver/Src/stm32f1xx_hal_dma.c ****   * @retval HAL status
 343:./Drivers/STM32F1xx_HAL_Driver/Src/stm32f1xx_hal_dma.c ****   */
 344:./Drivers/STM32F1xx_HAL_Driver/Src/stm32f1xx_hal_dma.c **** HAL_StatusTypeDef HAL_DMA_Start_IT(DMA_HandleTypeDef *hdma, uint32_t SrcAddress, uint32_t DstAddres
 345:./Drivers/STM32F1xx_HAL_Driver/Src/stm32f1xx_hal_dma.c **** {
 346:./Drivers/STM32F1xx_HAL_Driver/Src/stm32f1xx_hal_dma.c ****   /* Process locked */
 347:./Drivers/STM32F1xx_HAL_Driver/Src/stm32f1xx_hal_dma.c ****   __HAL_LOCK(hdma);
 348:./Drivers/STM32F1xx_HAL_Driver/Src/stm32f1xx_hal_dma.c **** 
 349:./Drivers/STM32F1xx_HAL_Driver/Src/stm32f1xx_hal_dma.c ****   /* Change DMA peripheral state */
 350:./Drivers/STM32F1xx_HAL_Driver/Src/stm32f1xx_hal_dma.c ****   hdma->State = HAL_DMA_STATE_BUSY;
 351:./Drivers/STM32F1xx_HAL_Driver/Src/stm32f1xx_hal_dma.c **** 
 352:./Drivers/STM32F1xx_HAL_Driver/Src/stm32f1xx_hal_dma.c ****    /* Check the parameters */
 353:./Drivers/STM32F1xx_HAL_Driver/Src/stm32f1xx_hal_dma.c ****   assert_param(IS_DMA_BUFFER_SIZE(DataLength));
 354:./Drivers/STM32F1xx_HAL_Driver/Src/stm32f1xx_hal_dma.c ****   
 355:./Drivers/STM32F1xx_HAL_Driver/Src/stm32f1xx_hal_dma.c ****   /* Disable the peripheral */
 356:./Drivers/STM32F1xx_HAL_Driver/Src/stm32f1xx_hal_dma.c ****   __HAL_DMA_DISABLE(hdma);
 357:./Drivers/STM32F1xx_HAL_Driver/Src/stm32f1xx_hal_dma.c ****   
 358:./Drivers/STM32F1xx_HAL_Driver/Src/stm32f1xx_hal_dma.c ****   /* Configure the source, destination address and the data length */
 359:./Drivers/STM32F1xx_HAL_Driver/Src/stm32f1xx_hal_dma.c ****   DMA_SetConfig(hdma, SrcAddress, DstAddress, DataLength);
 360:./Drivers/STM32F1xx_HAL_Driver/Src/stm32f1xx_hal_dma.c ****   
 361:./Drivers/STM32F1xx_HAL_Driver/Src/stm32f1xx_hal_dma.c ****   /* Enable the transfer complete interrupt */
 362:./Drivers/STM32F1xx_HAL_Driver/Src/stm32f1xx_hal_dma.c ****   __HAL_DMA_ENABLE_IT(hdma, DMA_IT_TC);
 363:./Drivers/STM32F1xx_HAL_Driver/Src/stm32f1xx_hal_dma.c **** 
 364:./Drivers/STM32F1xx_HAL_Driver/Src/stm32f1xx_hal_dma.c ****   /* Enable the Half transfer complete interrupt */
 365:./Drivers/STM32F1xx_HAL_Driver/Src/stm32f1xx_hal_dma.c ****   __HAL_DMA_ENABLE_IT(hdma, DMA_IT_HT);  
 366:./Drivers/STM32F1xx_HAL_Driver/Src/stm32f1xx_hal_dma.c **** 
 367:./Drivers/STM32F1xx_HAL_Driver/Src/stm32f1xx_hal_dma.c ****   /* Enable the transfer Error interrupt */
 368:./Drivers/STM32F1xx_HAL_Driver/Src/stm32f1xx_hal_dma.c ****   __HAL_DMA_ENABLE_IT(hdma, DMA_IT_TE);
 369:./Drivers/STM32F1xx_HAL_Driver/Src/stm32f1xx_hal_dma.c ****   
 370:./Drivers/STM32F1xx_HAL_Driver/Src/stm32f1xx_hal_dma.c ****    /* Enable the Peripheral */
 371:./Drivers/STM32F1xx_HAL_Driver/Src/stm32f1xx_hal_dma.c ****   __HAL_DMA_ENABLE(hdma);
 372:./Drivers/STM32F1xx_HAL_Driver/Src/stm32f1xx_hal_dma.c ****   
 373:./Drivers/STM32F1xx_HAL_Driver/Src/stm32f1xx_hal_dma.c ****   return HAL_OK;
 374:./Drivers/STM32F1xx_HAL_Driver/Src/stm32f1xx_hal_dma.c **** } 
 375:./Drivers/STM32F1xx_HAL_Driver/Src/stm32f1xx_hal_dma.c **** 
ARM GAS  /tmp/cc4JjNI1.s 			page 8


 376:./Drivers/STM32F1xx_HAL_Driver/Src/stm32f1xx_hal_dma.c **** /**
 377:./Drivers/STM32F1xx_HAL_Driver/Src/stm32f1xx_hal_dma.c ****   * @brief  Aborts the DMA Transfer.
 378:./Drivers/STM32F1xx_HAL_Driver/Src/stm32f1xx_hal_dma.c ****   * @param  hdma  : pointer to a DMA_HandleTypeDef structure that contains
 379:./Drivers/STM32F1xx_HAL_Driver/Src/stm32f1xx_hal_dma.c ****   *                 the configuration information for the specified DMA Channel.
 380:./Drivers/STM32F1xx_HAL_Driver/Src/stm32f1xx_hal_dma.c ****   *                   
 381:./Drivers/STM32F1xx_HAL_Driver/Src/stm32f1xx_hal_dma.c ****   * @note  After disabling a DMA Channel, a check for wait until the DMA Channel is 
 382:./Drivers/STM32F1xx_HAL_Driver/Src/stm32f1xx_hal_dma.c ****   *        effectively disabled is added. If a Channel is disabled 
 383:./Drivers/STM32F1xx_HAL_Driver/Src/stm32f1xx_hal_dma.c ****   *        while a data transfer is ongoing, the current data will be transferred
 384:./Drivers/STM32F1xx_HAL_Driver/Src/stm32f1xx_hal_dma.c ****   *        and the Channel will be effectively disabled only after the transfer of
 385:./Drivers/STM32F1xx_HAL_Driver/Src/stm32f1xx_hal_dma.c ****   *        this single data is finished.  
 386:./Drivers/STM32F1xx_HAL_Driver/Src/stm32f1xx_hal_dma.c ****   * @retval HAL status
 387:./Drivers/STM32F1xx_HAL_Driver/Src/stm32f1xx_hal_dma.c ****   */
 388:./Drivers/STM32F1xx_HAL_Driver/Src/stm32f1xx_hal_dma.c **** HAL_StatusTypeDef HAL_DMA_Abort(DMA_HandleTypeDef *hdma)
 389:./Drivers/STM32F1xx_HAL_Driver/Src/stm32f1xx_hal_dma.c **** {
 390:./Drivers/STM32F1xx_HAL_Driver/Src/stm32f1xx_hal_dma.c ****   uint32_t tickstart = 0x00;
 391:./Drivers/STM32F1xx_HAL_Driver/Src/stm32f1xx_hal_dma.c ****   
 392:./Drivers/STM32F1xx_HAL_Driver/Src/stm32f1xx_hal_dma.c ****   /* Disable the channel */
 393:./Drivers/STM32F1xx_HAL_Driver/Src/stm32f1xx_hal_dma.c ****   __HAL_DMA_DISABLE(hdma);
 394:./Drivers/STM32F1xx_HAL_Driver/Src/stm32f1xx_hal_dma.c **** 
 395:./Drivers/STM32F1xx_HAL_Driver/Src/stm32f1xx_hal_dma.c ****   /* Get tick */
 396:./Drivers/STM32F1xx_HAL_Driver/Src/stm32f1xx_hal_dma.c ****   tickstart = HAL_GetTick();
 397:./Drivers/STM32F1xx_HAL_Driver/Src/stm32f1xx_hal_dma.c ****   
 398:./Drivers/STM32F1xx_HAL_Driver/Src/stm32f1xx_hal_dma.c ****   /* Check if the DMA Channel is effectively disabled */
 399:./Drivers/STM32F1xx_HAL_Driver/Src/stm32f1xx_hal_dma.c ****   while((hdma->Instance->CCR & DMA_CCR_EN) != 0)
 400:./Drivers/STM32F1xx_HAL_Driver/Src/stm32f1xx_hal_dma.c ****   {
 401:./Drivers/STM32F1xx_HAL_Driver/Src/stm32f1xx_hal_dma.c ****     /* Check for the Timeout */
 402:./Drivers/STM32F1xx_HAL_Driver/Src/stm32f1xx_hal_dma.c ****     if((HAL_GetTick() - tickstart) > HAL_TIMEOUT_DMA_ABORT)
 403:./Drivers/STM32F1xx_HAL_Driver/Src/stm32f1xx_hal_dma.c ****     {
 404:./Drivers/STM32F1xx_HAL_Driver/Src/stm32f1xx_hal_dma.c ****       /* Update error code */
 405:./Drivers/STM32F1xx_HAL_Driver/Src/stm32f1xx_hal_dma.c ****       SET_BIT(hdma->ErrorCode, HAL_DMA_ERROR_TIMEOUT);
 406:./Drivers/STM32F1xx_HAL_Driver/Src/stm32f1xx_hal_dma.c **** 
 407:./Drivers/STM32F1xx_HAL_Driver/Src/stm32f1xx_hal_dma.c ****       /* Change the DMA state */
 408:./Drivers/STM32F1xx_HAL_Driver/Src/stm32f1xx_hal_dma.c ****       hdma->State = HAL_DMA_STATE_TIMEOUT;
 409:./Drivers/STM32F1xx_HAL_Driver/Src/stm32f1xx_hal_dma.c **** 
 410:./Drivers/STM32F1xx_HAL_Driver/Src/stm32f1xx_hal_dma.c ****       /* Process Unlocked */
 411:./Drivers/STM32F1xx_HAL_Driver/Src/stm32f1xx_hal_dma.c ****       __HAL_UNLOCK(hdma);
 412:./Drivers/STM32F1xx_HAL_Driver/Src/stm32f1xx_hal_dma.c **** 
 413:./Drivers/STM32F1xx_HAL_Driver/Src/stm32f1xx_hal_dma.c ****       return HAL_TIMEOUT;
 414:./Drivers/STM32F1xx_HAL_Driver/Src/stm32f1xx_hal_dma.c ****     }
 415:./Drivers/STM32F1xx_HAL_Driver/Src/stm32f1xx_hal_dma.c ****   }
 416:./Drivers/STM32F1xx_HAL_Driver/Src/stm32f1xx_hal_dma.c ****   /* Change the DMA state */
 417:./Drivers/STM32F1xx_HAL_Driver/Src/stm32f1xx_hal_dma.c ****   hdma->State = HAL_DMA_STATE_READY;
 418:./Drivers/STM32F1xx_HAL_Driver/Src/stm32f1xx_hal_dma.c ****   
 419:./Drivers/STM32F1xx_HAL_Driver/Src/stm32f1xx_hal_dma.c ****   /* Process Unlocked */
 420:./Drivers/STM32F1xx_HAL_Driver/Src/stm32f1xx_hal_dma.c ****   __HAL_UNLOCK(hdma);
 421:./Drivers/STM32F1xx_HAL_Driver/Src/stm32f1xx_hal_dma.c ****   
 422:./Drivers/STM32F1xx_HAL_Driver/Src/stm32f1xx_hal_dma.c ****   return HAL_OK;
 423:./Drivers/STM32F1xx_HAL_Driver/Src/stm32f1xx_hal_dma.c **** }
 424:./Drivers/STM32F1xx_HAL_Driver/Src/stm32f1xx_hal_dma.c **** 
 425:./Drivers/STM32F1xx_HAL_Driver/Src/stm32f1xx_hal_dma.c **** /**
 426:./Drivers/STM32F1xx_HAL_Driver/Src/stm32f1xx_hal_dma.c ****   * @brief  Polling for transfer complete.
 427:./Drivers/STM32F1xx_HAL_Driver/Src/stm32f1xx_hal_dma.c ****   * @param  hdma:    pointer to a DMA_HandleTypeDef structure that contains
 428:./Drivers/STM32F1xx_HAL_Driver/Src/stm32f1xx_hal_dma.c ****   *                  the configuration information for the specified DMA Channel.
 429:./Drivers/STM32F1xx_HAL_Driver/Src/stm32f1xx_hal_dma.c ****   * @param  CompleteLevel: Specifies the DMA level complete.  
 430:./Drivers/STM32F1xx_HAL_Driver/Src/stm32f1xx_hal_dma.c ****   * @param  Timeout:       Timeout duration.
 431:./Drivers/STM32F1xx_HAL_Driver/Src/stm32f1xx_hal_dma.c ****   * @retval HAL status
 432:./Drivers/STM32F1xx_HAL_Driver/Src/stm32f1xx_hal_dma.c ****   */
ARM GAS  /tmp/cc4JjNI1.s 			page 9


 433:./Drivers/STM32F1xx_HAL_Driver/Src/stm32f1xx_hal_dma.c **** HAL_StatusTypeDef HAL_DMA_PollForTransfer(DMA_HandleTypeDef *hdma, uint32_t CompleteLevel, uint32_t
 434:./Drivers/STM32F1xx_HAL_Driver/Src/stm32f1xx_hal_dma.c **** {
 435:./Drivers/STM32F1xx_HAL_Driver/Src/stm32f1xx_hal_dma.c ****   uint32_t temp;
 436:./Drivers/STM32F1xx_HAL_Driver/Src/stm32f1xx_hal_dma.c ****   uint32_t tickstart = 0x00;
 437:./Drivers/STM32F1xx_HAL_Driver/Src/stm32f1xx_hal_dma.c ****   
 438:./Drivers/STM32F1xx_HAL_Driver/Src/stm32f1xx_hal_dma.c ****   /* Get the level transfer complete flag */
 439:./Drivers/STM32F1xx_HAL_Driver/Src/stm32f1xx_hal_dma.c ****   if(CompleteLevel == HAL_DMA_FULL_TRANSFER)
 440:./Drivers/STM32F1xx_HAL_Driver/Src/stm32f1xx_hal_dma.c ****   {
 441:./Drivers/STM32F1xx_HAL_Driver/Src/stm32f1xx_hal_dma.c ****     /* Transfer Complete flag */
 442:./Drivers/STM32F1xx_HAL_Driver/Src/stm32f1xx_hal_dma.c ****     temp = __HAL_DMA_GET_TC_FLAG_INDEX(hdma);
 443:./Drivers/STM32F1xx_HAL_Driver/Src/stm32f1xx_hal_dma.c ****   }
 444:./Drivers/STM32F1xx_HAL_Driver/Src/stm32f1xx_hal_dma.c ****   else
 445:./Drivers/STM32F1xx_HAL_Driver/Src/stm32f1xx_hal_dma.c ****   {
 446:./Drivers/STM32F1xx_HAL_Driver/Src/stm32f1xx_hal_dma.c ****     /* Half Transfer Complete flag */
 447:./Drivers/STM32F1xx_HAL_Driver/Src/stm32f1xx_hal_dma.c ****     temp = __HAL_DMA_GET_HT_FLAG_INDEX(hdma);
 448:./Drivers/STM32F1xx_HAL_Driver/Src/stm32f1xx_hal_dma.c ****   }
 449:./Drivers/STM32F1xx_HAL_Driver/Src/stm32f1xx_hal_dma.c **** 
 450:./Drivers/STM32F1xx_HAL_Driver/Src/stm32f1xx_hal_dma.c ****   /* Get tick */
 451:./Drivers/STM32F1xx_HAL_Driver/Src/stm32f1xx_hal_dma.c ****   tickstart = HAL_GetTick();
 452:./Drivers/STM32F1xx_HAL_Driver/Src/stm32f1xx_hal_dma.c **** 
 453:./Drivers/STM32F1xx_HAL_Driver/Src/stm32f1xx_hal_dma.c ****   while(__HAL_DMA_GET_FLAG(hdma, temp) == RESET)
 454:./Drivers/STM32F1xx_HAL_Driver/Src/stm32f1xx_hal_dma.c ****   {
 455:./Drivers/STM32F1xx_HAL_Driver/Src/stm32f1xx_hal_dma.c ****     if((__HAL_DMA_GET_FLAG(hdma, __HAL_DMA_GET_TE_FLAG_INDEX(hdma)) != RESET))
 456:./Drivers/STM32F1xx_HAL_Driver/Src/stm32f1xx_hal_dma.c ****     {      
 457:./Drivers/STM32F1xx_HAL_Driver/Src/stm32f1xx_hal_dma.c ****       /* Clear the transfer error flags */
 458:./Drivers/STM32F1xx_HAL_Driver/Src/stm32f1xx_hal_dma.c ****       __HAL_DMA_CLEAR_FLAG(hdma, __HAL_DMA_GET_TE_FLAG_INDEX(hdma));
 459:./Drivers/STM32F1xx_HAL_Driver/Src/stm32f1xx_hal_dma.c ****       
 460:./Drivers/STM32F1xx_HAL_Driver/Src/stm32f1xx_hal_dma.c ****       /* Update error code */
 461:./Drivers/STM32F1xx_HAL_Driver/Src/stm32f1xx_hal_dma.c ****       SET_BIT(hdma->ErrorCode, HAL_DMA_ERROR_TE);
 462:./Drivers/STM32F1xx_HAL_Driver/Src/stm32f1xx_hal_dma.c **** 
 463:./Drivers/STM32F1xx_HAL_Driver/Src/stm32f1xx_hal_dma.c ****       /* Change the DMA state */
 464:./Drivers/STM32F1xx_HAL_Driver/Src/stm32f1xx_hal_dma.c ****       hdma->State= HAL_DMA_STATE_ERROR;
 465:./Drivers/STM32F1xx_HAL_Driver/Src/stm32f1xx_hal_dma.c ****       
 466:./Drivers/STM32F1xx_HAL_Driver/Src/stm32f1xx_hal_dma.c ****       /* Process Unlocked */
 467:./Drivers/STM32F1xx_HAL_Driver/Src/stm32f1xx_hal_dma.c ****       __HAL_UNLOCK(hdma);
 468:./Drivers/STM32F1xx_HAL_Driver/Src/stm32f1xx_hal_dma.c ****       
 469:./Drivers/STM32F1xx_HAL_Driver/Src/stm32f1xx_hal_dma.c ****       return HAL_ERROR;
 470:./Drivers/STM32F1xx_HAL_Driver/Src/stm32f1xx_hal_dma.c ****     }
 471:./Drivers/STM32F1xx_HAL_Driver/Src/stm32f1xx_hal_dma.c ****     /* Check for the Timeout */
 472:./Drivers/STM32F1xx_HAL_Driver/Src/stm32f1xx_hal_dma.c ****     if(Timeout != HAL_MAX_DELAY)
 473:./Drivers/STM32F1xx_HAL_Driver/Src/stm32f1xx_hal_dma.c ****     {
 474:./Drivers/STM32F1xx_HAL_Driver/Src/stm32f1xx_hal_dma.c ****       if((Timeout == 0) || ((HAL_GetTick() - tickstart) > Timeout))
 475:./Drivers/STM32F1xx_HAL_Driver/Src/stm32f1xx_hal_dma.c ****       {
 476:./Drivers/STM32F1xx_HAL_Driver/Src/stm32f1xx_hal_dma.c ****         /* Update error code */
 477:./Drivers/STM32F1xx_HAL_Driver/Src/stm32f1xx_hal_dma.c ****         SET_BIT(hdma->ErrorCode, HAL_DMA_ERROR_TIMEOUT);
 478:./Drivers/STM32F1xx_HAL_Driver/Src/stm32f1xx_hal_dma.c ****         
 479:./Drivers/STM32F1xx_HAL_Driver/Src/stm32f1xx_hal_dma.c ****         /* Change the DMA state */
 480:./Drivers/STM32F1xx_HAL_Driver/Src/stm32f1xx_hal_dma.c ****         hdma->State = HAL_DMA_STATE_TIMEOUT;
 481:./Drivers/STM32F1xx_HAL_Driver/Src/stm32f1xx_hal_dma.c **** 
 482:./Drivers/STM32F1xx_HAL_Driver/Src/stm32f1xx_hal_dma.c ****         /* Process Unlocked */
 483:./Drivers/STM32F1xx_HAL_Driver/Src/stm32f1xx_hal_dma.c ****         __HAL_UNLOCK(hdma);
 484:./Drivers/STM32F1xx_HAL_Driver/Src/stm32f1xx_hal_dma.c ****         
 485:./Drivers/STM32F1xx_HAL_Driver/Src/stm32f1xx_hal_dma.c ****         return HAL_TIMEOUT;
 486:./Drivers/STM32F1xx_HAL_Driver/Src/stm32f1xx_hal_dma.c ****       }
 487:./Drivers/STM32F1xx_HAL_Driver/Src/stm32f1xx_hal_dma.c ****     }
 488:./Drivers/STM32F1xx_HAL_Driver/Src/stm32f1xx_hal_dma.c ****   }
 489:./Drivers/STM32F1xx_HAL_Driver/Src/stm32f1xx_hal_dma.c **** 
ARM GAS  /tmp/cc4JjNI1.s 			page 10


 490:./Drivers/STM32F1xx_HAL_Driver/Src/stm32f1xx_hal_dma.c ****   if(CompleteLevel == HAL_DMA_FULL_TRANSFER)
 491:./Drivers/STM32F1xx_HAL_Driver/Src/stm32f1xx_hal_dma.c ****   {
 492:./Drivers/STM32F1xx_HAL_Driver/Src/stm32f1xx_hal_dma.c ****     /* Clear the transfer complete flag */
 493:./Drivers/STM32F1xx_HAL_Driver/Src/stm32f1xx_hal_dma.c ****     __HAL_DMA_CLEAR_FLAG(hdma, __HAL_DMA_GET_TC_FLAG_INDEX(hdma));
 494:./Drivers/STM32F1xx_HAL_Driver/Src/stm32f1xx_hal_dma.c **** 
 495:./Drivers/STM32F1xx_HAL_Driver/Src/stm32f1xx_hal_dma.c ****     /* The selected Channelx EN bit is cleared (DMA is disabled and 
 496:./Drivers/STM32F1xx_HAL_Driver/Src/stm32f1xx_hal_dma.c ****     all transfers are complete) */
 497:./Drivers/STM32F1xx_HAL_Driver/Src/stm32f1xx_hal_dma.c ****     hdma->State = HAL_DMA_STATE_READY;
 498:./Drivers/STM32F1xx_HAL_Driver/Src/stm32f1xx_hal_dma.c **** 
 499:./Drivers/STM32F1xx_HAL_Driver/Src/stm32f1xx_hal_dma.c ****   }
 500:./Drivers/STM32F1xx_HAL_Driver/Src/stm32f1xx_hal_dma.c ****   else
 501:./Drivers/STM32F1xx_HAL_Driver/Src/stm32f1xx_hal_dma.c ****   { 
 502:./Drivers/STM32F1xx_HAL_Driver/Src/stm32f1xx_hal_dma.c ****     /* Clear the half transfer complete flag */
 503:./Drivers/STM32F1xx_HAL_Driver/Src/stm32f1xx_hal_dma.c ****     __HAL_DMA_CLEAR_FLAG(hdma, __HAL_DMA_GET_HT_FLAG_INDEX(hdma));
 504:./Drivers/STM32F1xx_HAL_Driver/Src/stm32f1xx_hal_dma.c ****   
 505:./Drivers/STM32F1xx_HAL_Driver/Src/stm32f1xx_hal_dma.c ****     /* The selected Channelx EN bit is cleared (DMA is disabled and 
 506:./Drivers/STM32F1xx_HAL_Driver/Src/stm32f1xx_hal_dma.c ****     all transfers of half buffer are complete) */
 507:./Drivers/STM32F1xx_HAL_Driver/Src/stm32f1xx_hal_dma.c ****     hdma->State = HAL_DMA_STATE_READY_HALF;
 508:./Drivers/STM32F1xx_HAL_Driver/Src/stm32f1xx_hal_dma.c ****   }
 509:./Drivers/STM32F1xx_HAL_Driver/Src/stm32f1xx_hal_dma.c ****   
 510:./Drivers/STM32F1xx_HAL_Driver/Src/stm32f1xx_hal_dma.c ****   /* Process unlocked */
 511:./Drivers/STM32F1xx_HAL_Driver/Src/stm32f1xx_hal_dma.c ****   __HAL_UNLOCK(hdma);
 512:./Drivers/STM32F1xx_HAL_Driver/Src/stm32f1xx_hal_dma.c **** 
 513:./Drivers/STM32F1xx_HAL_Driver/Src/stm32f1xx_hal_dma.c ****   return HAL_OK;
 514:./Drivers/STM32F1xx_HAL_Driver/Src/stm32f1xx_hal_dma.c **** }
 515:./Drivers/STM32F1xx_HAL_Driver/Src/stm32f1xx_hal_dma.c **** 
 516:./Drivers/STM32F1xx_HAL_Driver/Src/stm32f1xx_hal_dma.c **** /**
 517:./Drivers/STM32F1xx_HAL_Driver/Src/stm32f1xx_hal_dma.c ****   * @brief  Handles DMA interrupt request.
 518:./Drivers/STM32F1xx_HAL_Driver/Src/stm32f1xx_hal_dma.c ****   * @param  hdma: pointer to a DMA_HandleTypeDef structure that contains
 519:./Drivers/STM32F1xx_HAL_Driver/Src/stm32f1xx_hal_dma.c ****   *               the configuration information for the specified DMA Channel.  
 520:./Drivers/STM32F1xx_HAL_Driver/Src/stm32f1xx_hal_dma.c ****   * @retval None
 521:./Drivers/STM32F1xx_HAL_Driver/Src/stm32f1xx_hal_dma.c ****   */
 522:./Drivers/STM32F1xx_HAL_Driver/Src/stm32f1xx_hal_dma.c **** void HAL_DMA_IRQHandler(DMA_HandleTypeDef *hdma)
 523:./Drivers/STM32F1xx_HAL_Driver/Src/stm32f1xx_hal_dma.c **** {
 524:./Drivers/STM32F1xx_HAL_Driver/Src/stm32f1xx_hal_dma.c ****   /* Transfer Error Interrupt management ***************************************/
 525:./Drivers/STM32F1xx_HAL_Driver/Src/stm32f1xx_hal_dma.c ****   if(__HAL_DMA_GET_FLAG(hdma, __HAL_DMA_GET_TE_FLAG_INDEX(hdma)) != RESET)
 526:./Drivers/STM32F1xx_HAL_Driver/Src/stm32f1xx_hal_dma.c ****   {
 527:./Drivers/STM32F1xx_HAL_Driver/Src/stm32f1xx_hal_dma.c ****     if(__HAL_DMA_GET_IT_SOURCE(hdma, DMA_IT_TE) != RESET)
 528:./Drivers/STM32F1xx_HAL_Driver/Src/stm32f1xx_hal_dma.c ****     {
 529:./Drivers/STM32F1xx_HAL_Driver/Src/stm32f1xx_hal_dma.c ****       /* Disable the transfer error interrupt */
 530:./Drivers/STM32F1xx_HAL_Driver/Src/stm32f1xx_hal_dma.c ****       __HAL_DMA_DISABLE_IT(hdma, DMA_IT_TE);
 531:./Drivers/STM32F1xx_HAL_Driver/Src/stm32f1xx_hal_dma.c ****       
 532:./Drivers/STM32F1xx_HAL_Driver/Src/stm32f1xx_hal_dma.c ****       /* Clear the transfer error flag */
 533:./Drivers/STM32F1xx_HAL_Driver/Src/stm32f1xx_hal_dma.c ****       __HAL_DMA_CLEAR_FLAG(hdma, __HAL_DMA_GET_TE_FLAG_INDEX(hdma));
 534:./Drivers/STM32F1xx_HAL_Driver/Src/stm32f1xx_hal_dma.c ****       
 535:./Drivers/STM32F1xx_HAL_Driver/Src/stm32f1xx_hal_dma.c ****       /* Update error code */
 536:./Drivers/STM32F1xx_HAL_Driver/Src/stm32f1xx_hal_dma.c ****       SET_BIT(hdma->ErrorCode, HAL_DMA_ERROR_TE);
 537:./Drivers/STM32F1xx_HAL_Driver/Src/stm32f1xx_hal_dma.c ****       
 538:./Drivers/STM32F1xx_HAL_Driver/Src/stm32f1xx_hal_dma.c ****       /* Change the DMA state */
 539:./Drivers/STM32F1xx_HAL_Driver/Src/stm32f1xx_hal_dma.c ****       hdma->State = HAL_DMA_STATE_ERROR;
 540:./Drivers/STM32F1xx_HAL_Driver/Src/stm32f1xx_hal_dma.c ****       
 541:./Drivers/STM32F1xx_HAL_Driver/Src/stm32f1xx_hal_dma.c ****       /* Process Unlocked */
 542:./Drivers/STM32F1xx_HAL_Driver/Src/stm32f1xx_hal_dma.c ****       __HAL_UNLOCK(hdma); 
 543:./Drivers/STM32F1xx_HAL_Driver/Src/stm32f1xx_hal_dma.c ****       
 544:./Drivers/STM32F1xx_HAL_Driver/Src/stm32f1xx_hal_dma.c ****       if (hdma->XferErrorCallback != NULL)
 545:./Drivers/STM32F1xx_HAL_Driver/Src/stm32f1xx_hal_dma.c ****       {
 546:./Drivers/STM32F1xx_HAL_Driver/Src/stm32f1xx_hal_dma.c ****         /* Transfer error callback */
ARM GAS  /tmp/cc4JjNI1.s 			page 11


 547:./Drivers/STM32F1xx_HAL_Driver/Src/stm32f1xx_hal_dma.c ****         hdma->XferErrorCallback(hdma);
 548:./Drivers/STM32F1xx_HAL_Driver/Src/stm32f1xx_hal_dma.c ****       }
 549:./Drivers/STM32F1xx_HAL_Driver/Src/stm32f1xx_hal_dma.c ****     }
 550:./Drivers/STM32F1xx_HAL_Driver/Src/stm32f1xx_hal_dma.c ****   }
 551:./Drivers/STM32F1xx_HAL_Driver/Src/stm32f1xx_hal_dma.c **** 
 552:./Drivers/STM32F1xx_HAL_Driver/Src/stm32f1xx_hal_dma.c ****   /* Half Transfer Complete Interrupt management ******************************/
 553:./Drivers/STM32F1xx_HAL_Driver/Src/stm32f1xx_hal_dma.c ****   if(__HAL_DMA_GET_FLAG(hdma, __HAL_DMA_GET_HT_FLAG_INDEX(hdma)) != RESET)
 554:./Drivers/STM32F1xx_HAL_Driver/Src/stm32f1xx_hal_dma.c ****   {
 555:./Drivers/STM32F1xx_HAL_Driver/Src/stm32f1xx_hal_dma.c ****     if(__HAL_DMA_GET_IT_SOURCE(hdma, DMA_IT_HT) != RESET)
 556:./Drivers/STM32F1xx_HAL_Driver/Src/stm32f1xx_hal_dma.c ****     { 
 557:./Drivers/STM32F1xx_HAL_Driver/Src/stm32f1xx_hal_dma.c ****       /* Disable the half transfer interrupt if the DMA mode is not CIRCULAR */
 558:./Drivers/STM32F1xx_HAL_Driver/Src/stm32f1xx_hal_dma.c ****       if((hdma->Instance->CCR & DMA_CCR_CIRC) == 0)
 559:./Drivers/STM32F1xx_HAL_Driver/Src/stm32f1xx_hal_dma.c ****       {
 560:./Drivers/STM32F1xx_HAL_Driver/Src/stm32f1xx_hal_dma.c ****         /* Disable the half transfer interrupt */
 561:./Drivers/STM32F1xx_HAL_Driver/Src/stm32f1xx_hal_dma.c ****         __HAL_DMA_DISABLE_IT(hdma, DMA_IT_HT);
 562:./Drivers/STM32F1xx_HAL_Driver/Src/stm32f1xx_hal_dma.c ****       }
 563:./Drivers/STM32F1xx_HAL_Driver/Src/stm32f1xx_hal_dma.c ****       /* Clear the half transfer complete flag */
 564:./Drivers/STM32F1xx_HAL_Driver/Src/stm32f1xx_hal_dma.c ****       __HAL_DMA_CLEAR_FLAG(hdma, __HAL_DMA_GET_HT_FLAG_INDEX(hdma));
 565:./Drivers/STM32F1xx_HAL_Driver/Src/stm32f1xx_hal_dma.c **** 
 566:./Drivers/STM32F1xx_HAL_Driver/Src/stm32f1xx_hal_dma.c ****       /* Change DMA peripheral state */
 567:./Drivers/STM32F1xx_HAL_Driver/Src/stm32f1xx_hal_dma.c ****       hdma->State = HAL_DMA_STATE_READY_HALF;
 568:./Drivers/STM32F1xx_HAL_Driver/Src/stm32f1xx_hal_dma.c **** 
 569:./Drivers/STM32F1xx_HAL_Driver/Src/stm32f1xx_hal_dma.c ****       if(hdma->XferHalfCpltCallback != NULL)
 570:./Drivers/STM32F1xx_HAL_Driver/Src/stm32f1xx_hal_dma.c ****       {
 571:./Drivers/STM32F1xx_HAL_Driver/Src/stm32f1xx_hal_dma.c ****         /* Half transfer callback */
 572:./Drivers/STM32F1xx_HAL_Driver/Src/stm32f1xx_hal_dma.c ****         hdma->XferHalfCpltCallback(hdma);
 573:./Drivers/STM32F1xx_HAL_Driver/Src/stm32f1xx_hal_dma.c ****       }
 574:./Drivers/STM32F1xx_HAL_Driver/Src/stm32f1xx_hal_dma.c ****     }
 575:./Drivers/STM32F1xx_HAL_Driver/Src/stm32f1xx_hal_dma.c ****   }
 576:./Drivers/STM32F1xx_HAL_Driver/Src/stm32f1xx_hal_dma.c ****   
 577:./Drivers/STM32F1xx_HAL_Driver/Src/stm32f1xx_hal_dma.c ****   /* Transfer Complete Interrupt management ***********************************/
 578:./Drivers/STM32F1xx_HAL_Driver/Src/stm32f1xx_hal_dma.c ****   if(__HAL_DMA_GET_FLAG(hdma, __HAL_DMA_GET_TC_FLAG_INDEX(hdma)) != RESET)
 579:./Drivers/STM32F1xx_HAL_Driver/Src/stm32f1xx_hal_dma.c ****   {
 580:./Drivers/STM32F1xx_HAL_Driver/Src/stm32f1xx_hal_dma.c ****     if(__HAL_DMA_GET_IT_SOURCE(hdma, DMA_IT_TC) != RESET)
 581:./Drivers/STM32F1xx_HAL_Driver/Src/stm32f1xx_hal_dma.c ****     {
 582:./Drivers/STM32F1xx_HAL_Driver/Src/stm32f1xx_hal_dma.c ****       if((hdma->Instance->CCR & DMA_CCR_CIRC) == 0)
 583:./Drivers/STM32F1xx_HAL_Driver/Src/stm32f1xx_hal_dma.c ****       {
 584:./Drivers/STM32F1xx_HAL_Driver/Src/stm32f1xx_hal_dma.c ****         /* Disable the transfer complete interrupt */
 585:./Drivers/STM32F1xx_HAL_Driver/Src/stm32f1xx_hal_dma.c ****         __HAL_DMA_DISABLE_IT(hdma, DMA_IT_TC);
 586:./Drivers/STM32F1xx_HAL_Driver/Src/stm32f1xx_hal_dma.c ****       }
 587:./Drivers/STM32F1xx_HAL_Driver/Src/stm32f1xx_hal_dma.c ****       /* Clear the transfer complete flag */
 588:./Drivers/STM32F1xx_HAL_Driver/Src/stm32f1xx_hal_dma.c ****       __HAL_DMA_CLEAR_FLAG(hdma, __HAL_DMA_GET_TC_FLAG_INDEX(hdma));
 589:./Drivers/STM32F1xx_HAL_Driver/Src/stm32f1xx_hal_dma.c ****     
 590:./Drivers/STM32F1xx_HAL_Driver/Src/stm32f1xx_hal_dma.c ****       /* Update error code */
 591:./Drivers/STM32F1xx_HAL_Driver/Src/stm32f1xx_hal_dma.c ****       SET_BIT(hdma->ErrorCode, HAL_DMA_ERROR_NONE);
 592:./Drivers/STM32F1xx_HAL_Driver/Src/stm32f1xx_hal_dma.c **** 
 593:./Drivers/STM32F1xx_HAL_Driver/Src/stm32f1xx_hal_dma.c ****       /* Change the DMA state */
 594:./Drivers/STM32F1xx_HAL_Driver/Src/stm32f1xx_hal_dma.c ****       hdma->State = HAL_DMA_STATE_READY;
 595:./Drivers/STM32F1xx_HAL_Driver/Src/stm32f1xx_hal_dma.c ****     
 596:./Drivers/STM32F1xx_HAL_Driver/Src/stm32f1xx_hal_dma.c ****       /* Process Unlocked */
 597:./Drivers/STM32F1xx_HAL_Driver/Src/stm32f1xx_hal_dma.c ****       __HAL_UNLOCK(hdma);
 598:./Drivers/STM32F1xx_HAL_Driver/Src/stm32f1xx_hal_dma.c ****     
 599:./Drivers/STM32F1xx_HAL_Driver/Src/stm32f1xx_hal_dma.c ****       if(hdma->XferCpltCallback != NULL)
 600:./Drivers/STM32F1xx_HAL_Driver/Src/stm32f1xx_hal_dma.c ****       {       
 601:./Drivers/STM32F1xx_HAL_Driver/Src/stm32f1xx_hal_dma.c ****         /* Transfer complete callback */
 602:./Drivers/STM32F1xx_HAL_Driver/Src/stm32f1xx_hal_dma.c ****         hdma->XferCpltCallback(hdma);
 603:./Drivers/STM32F1xx_HAL_Driver/Src/stm32f1xx_hal_dma.c ****       }
ARM GAS  /tmp/cc4JjNI1.s 			page 12


 604:./Drivers/STM32F1xx_HAL_Driver/Src/stm32f1xx_hal_dma.c ****     }
 605:./Drivers/STM32F1xx_HAL_Driver/Src/stm32f1xx_hal_dma.c ****   }
 606:./Drivers/STM32F1xx_HAL_Driver/Src/stm32f1xx_hal_dma.c **** }
 607:./Drivers/STM32F1xx_HAL_Driver/Src/stm32f1xx_hal_dma.c **** 
 608:./Drivers/STM32F1xx_HAL_Driver/Src/stm32f1xx_hal_dma.c **** /**
 609:./Drivers/STM32F1xx_HAL_Driver/Src/stm32f1xx_hal_dma.c ****   * @}
 610:./Drivers/STM32F1xx_HAL_Driver/Src/stm32f1xx_hal_dma.c ****   */
 611:./Drivers/STM32F1xx_HAL_Driver/Src/stm32f1xx_hal_dma.c **** 
 612:./Drivers/STM32F1xx_HAL_Driver/Src/stm32f1xx_hal_dma.c **** /** @defgroup DMA_Exported_Functions_Group3 Peripheral State functions
 613:./Drivers/STM32F1xx_HAL_Driver/Src/stm32f1xx_hal_dma.c ****  *  @brief    Peripheral State functions 
 614:./Drivers/STM32F1xx_HAL_Driver/Src/stm32f1xx_hal_dma.c ****  *
 615:./Drivers/STM32F1xx_HAL_Driver/Src/stm32f1xx_hal_dma.c **** @verbatim   
 616:./Drivers/STM32F1xx_HAL_Driver/Src/stm32f1xx_hal_dma.c ****  ===============================================================================
 617:./Drivers/STM32F1xx_HAL_Driver/Src/stm32f1xx_hal_dma.c ****                     ##### State and Errors functions #####
 618:./Drivers/STM32F1xx_HAL_Driver/Src/stm32f1xx_hal_dma.c ****  ===============================================================================
 619:./Drivers/STM32F1xx_HAL_Driver/Src/stm32f1xx_hal_dma.c ****     [..]
 620:./Drivers/STM32F1xx_HAL_Driver/Src/stm32f1xx_hal_dma.c ****     This subsection provides functions allowing to
 621:./Drivers/STM32F1xx_HAL_Driver/Src/stm32f1xx_hal_dma.c ****       (+) Check the DMA state
 622:./Drivers/STM32F1xx_HAL_Driver/Src/stm32f1xx_hal_dma.c ****       (+) Get error code
 623:./Drivers/STM32F1xx_HAL_Driver/Src/stm32f1xx_hal_dma.c **** 
 624:./Drivers/STM32F1xx_HAL_Driver/Src/stm32f1xx_hal_dma.c **** @endverbatim
 625:./Drivers/STM32F1xx_HAL_Driver/Src/stm32f1xx_hal_dma.c ****   * @{
 626:./Drivers/STM32F1xx_HAL_Driver/Src/stm32f1xx_hal_dma.c ****   */
 627:./Drivers/STM32F1xx_HAL_Driver/Src/stm32f1xx_hal_dma.c **** 
 628:./Drivers/STM32F1xx_HAL_Driver/Src/stm32f1xx_hal_dma.c **** /**
 629:./Drivers/STM32F1xx_HAL_Driver/Src/stm32f1xx_hal_dma.c ****   * @brief  Returns the DMA state.
 630:./Drivers/STM32F1xx_HAL_Driver/Src/stm32f1xx_hal_dma.c ****   * @param  hdma: pointer to a DMA_HandleTypeDef structure that contains
 631:./Drivers/STM32F1xx_HAL_Driver/Src/stm32f1xx_hal_dma.c ****   *               the configuration information for the specified DMA Channel.  
 632:./Drivers/STM32F1xx_HAL_Driver/Src/stm32f1xx_hal_dma.c ****   * @retval HAL state
 633:./Drivers/STM32F1xx_HAL_Driver/Src/stm32f1xx_hal_dma.c ****   */
 634:./Drivers/STM32F1xx_HAL_Driver/Src/stm32f1xx_hal_dma.c **** HAL_DMA_StateTypeDef HAL_DMA_GetState(DMA_HandleTypeDef *hdma)
 635:./Drivers/STM32F1xx_HAL_Driver/Src/stm32f1xx_hal_dma.c **** {
 636:./Drivers/STM32F1xx_HAL_Driver/Src/stm32f1xx_hal_dma.c ****   return hdma->State;
 637:./Drivers/STM32F1xx_HAL_Driver/Src/stm32f1xx_hal_dma.c **** }
 638:./Drivers/STM32F1xx_HAL_Driver/Src/stm32f1xx_hal_dma.c **** 
 639:./Drivers/STM32F1xx_HAL_Driver/Src/stm32f1xx_hal_dma.c **** /**
 640:./Drivers/STM32F1xx_HAL_Driver/Src/stm32f1xx_hal_dma.c ****   * @brief  Return the DMA error code
 641:./Drivers/STM32F1xx_HAL_Driver/Src/stm32f1xx_hal_dma.c ****   * @param  hdma : pointer to a DMA_HandleTypeDef structure that contains
 642:./Drivers/STM32F1xx_HAL_Driver/Src/stm32f1xx_hal_dma.c ****   *              the configuration information for the specified DMA Channel.
 643:./Drivers/STM32F1xx_HAL_Driver/Src/stm32f1xx_hal_dma.c ****   * @retval DMA Error Code
 644:./Drivers/STM32F1xx_HAL_Driver/Src/stm32f1xx_hal_dma.c ****   */
 645:./Drivers/STM32F1xx_HAL_Driver/Src/stm32f1xx_hal_dma.c **** uint32_t HAL_DMA_GetError(DMA_HandleTypeDef *hdma)
 646:./Drivers/STM32F1xx_HAL_Driver/Src/stm32f1xx_hal_dma.c **** {
 647:./Drivers/STM32F1xx_HAL_Driver/Src/stm32f1xx_hal_dma.c ****   return hdma->ErrorCode;
 648:./Drivers/STM32F1xx_HAL_Driver/Src/stm32f1xx_hal_dma.c **** }
 649:./Drivers/STM32F1xx_HAL_Driver/Src/stm32f1xx_hal_dma.c **** 
 650:./Drivers/STM32F1xx_HAL_Driver/Src/stm32f1xx_hal_dma.c **** /**
 651:./Drivers/STM32F1xx_HAL_Driver/Src/stm32f1xx_hal_dma.c ****   * @}
 652:./Drivers/STM32F1xx_HAL_Driver/Src/stm32f1xx_hal_dma.c ****   */
 653:./Drivers/STM32F1xx_HAL_Driver/Src/stm32f1xx_hal_dma.c **** 
 654:./Drivers/STM32F1xx_HAL_Driver/Src/stm32f1xx_hal_dma.c **** /**
 655:./Drivers/STM32F1xx_HAL_Driver/Src/stm32f1xx_hal_dma.c ****   * @}
 656:./Drivers/STM32F1xx_HAL_Driver/Src/stm32f1xx_hal_dma.c ****   */
 657:./Drivers/STM32F1xx_HAL_Driver/Src/stm32f1xx_hal_dma.c **** 
 658:./Drivers/STM32F1xx_HAL_Driver/Src/stm32f1xx_hal_dma.c **** /** @addtogroup DMA_Private_Functions DMA Private Functions
 659:./Drivers/STM32F1xx_HAL_Driver/Src/stm32f1xx_hal_dma.c ****   * @{
 660:./Drivers/STM32F1xx_HAL_Driver/Src/stm32f1xx_hal_dma.c ****   */
ARM GAS  /tmp/cc4JjNI1.s 			page 13


 661:./Drivers/STM32F1xx_HAL_Driver/Src/stm32f1xx_hal_dma.c **** 
 662:./Drivers/STM32F1xx_HAL_Driver/Src/stm32f1xx_hal_dma.c **** /**
 663:./Drivers/STM32F1xx_HAL_Driver/Src/stm32f1xx_hal_dma.c ****   * @brief  Sets the DMA Transfer parameter.
 664:./Drivers/STM32F1xx_HAL_Driver/Src/stm32f1xx_hal_dma.c ****   * @param  hdma:       pointer to a DMA_HandleTypeDef structure that contains
 665:./Drivers/STM32F1xx_HAL_Driver/Src/stm32f1xx_hal_dma.c ****   *                     the configuration information for the specified DMA Channel.  
 666:./Drivers/STM32F1xx_HAL_Driver/Src/stm32f1xx_hal_dma.c ****   * @param  SrcAddress: The source memory Buffer address
 667:./Drivers/STM32F1xx_HAL_Driver/Src/stm32f1xx_hal_dma.c ****   * @param  DstAddress: The destination memory Buffer address
 668:./Drivers/STM32F1xx_HAL_Driver/Src/stm32f1xx_hal_dma.c ****   * @param  DataLength: The length of data to be transferred from source to destination
 669:./Drivers/STM32F1xx_HAL_Driver/Src/stm32f1xx_hal_dma.c ****   * @retval HAL status
 670:./Drivers/STM32F1xx_HAL_Driver/Src/stm32f1xx_hal_dma.c ****   */
 671:./Drivers/STM32F1xx_HAL_Driver/Src/stm32f1xx_hal_dma.c **** static void DMA_SetConfig(DMA_HandleTypeDef *hdma, uint32_t SrcAddress, uint32_t DstAddress, uint32
 672:./Drivers/STM32F1xx_HAL_Driver/Src/stm32f1xx_hal_dma.c **** {
  26              		.loc 1 672 0
  27              		.cfi_startproc
  28              		@ args = 0, pretend = 0, frame = 0
  29              		@ frame_needed = 0, uses_anonymous_args = 0
  30              		@ link register save eliminated.
  31              	.LVL0:
  32 0000 10B4     		push	{r4}
  33              	.LCFI0:
  34              		.cfi_def_cfa_offset 4
  35              		.cfi_offset 4, -4
 673:./Drivers/STM32F1xx_HAL_Driver/Src/stm32f1xx_hal_dma.c ****   /* Configure DMA Channel data length */
 674:./Drivers/STM32F1xx_HAL_Driver/Src/stm32f1xx_hal_dma.c ****   hdma->Instance->CNDTR = DataLength;
  36              		.loc 1 674 0
  37 0002 0468     		ldr	r4, [r0]
  38 0004 6360     		str	r3, [r4, #4]
 675:./Drivers/STM32F1xx_HAL_Driver/Src/stm32f1xx_hal_dma.c ****   
 676:./Drivers/STM32F1xx_HAL_Driver/Src/stm32f1xx_hal_dma.c ****   /* Peripheral to Memory */
 677:./Drivers/STM32F1xx_HAL_Driver/Src/stm32f1xx_hal_dma.c ****   if((hdma->Init.Direction) == DMA_MEMORY_TO_PERIPH)
  39              		.loc 1 677 0
  40 0006 4368     		ldr	r3, [r0, #4]
  41              	.LVL1:
  42 0008 102B     		cmp	r3, #16
  43 000a 04D1     		bne	.L2
 678:./Drivers/STM32F1xx_HAL_Driver/Src/stm32f1xx_hal_dma.c ****   {
 679:./Drivers/STM32F1xx_HAL_Driver/Src/stm32f1xx_hal_dma.c ****     /* Configure DMA Channel destination address */
 680:./Drivers/STM32F1xx_HAL_Driver/Src/stm32f1xx_hal_dma.c ****     hdma->Instance->CPAR = DstAddress;
  44              		.loc 1 680 0
  45 000c 0368     		ldr	r3, [r0]
  46 000e 9A60     		str	r2, [r3, #8]
  47              	.LVL2:
 681:./Drivers/STM32F1xx_HAL_Driver/Src/stm32f1xx_hal_dma.c ****     
 682:./Drivers/STM32F1xx_HAL_Driver/Src/stm32f1xx_hal_dma.c ****     /* Configure DMA Channel source address */
 683:./Drivers/STM32F1xx_HAL_Driver/Src/stm32f1xx_hal_dma.c ****     hdma->Instance->CMAR = SrcAddress;
  48              		.loc 1 683 0
  49 0010 0368     		ldr	r3, [r0]
  50 0012 D960     		str	r1, [r3, #12]
  51 0014 03E0     		b	.L1
  52              	.LVL3:
  53              	.L2:
 684:./Drivers/STM32F1xx_HAL_Driver/Src/stm32f1xx_hal_dma.c ****   }
 685:./Drivers/STM32F1xx_HAL_Driver/Src/stm32f1xx_hal_dma.c ****   /* Memory to Peripheral */
 686:./Drivers/STM32F1xx_HAL_Driver/Src/stm32f1xx_hal_dma.c ****   else
 687:./Drivers/STM32F1xx_HAL_Driver/Src/stm32f1xx_hal_dma.c ****   {
 688:./Drivers/STM32F1xx_HAL_Driver/Src/stm32f1xx_hal_dma.c ****     /* Configure DMA Channel source address */
 689:./Drivers/STM32F1xx_HAL_Driver/Src/stm32f1xx_hal_dma.c ****     hdma->Instance->CPAR = SrcAddress;
ARM GAS  /tmp/cc4JjNI1.s 			page 14


  54              		.loc 1 689 0
  55 0016 0368     		ldr	r3, [r0]
  56 0018 9960     		str	r1, [r3, #8]
  57              	.LVL4:
 690:./Drivers/STM32F1xx_HAL_Driver/Src/stm32f1xx_hal_dma.c ****     
 691:./Drivers/STM32F1xx_HAL_Driver/Src/stm32f1xx_hal_dma.c ****     /* Configure DMA Channel destination address */
 692:./Drivers/STM32F1xx_HAL_Driver/Src/stm32f1xx_hal_dma.c ****     hdma->Instance->CMAR = DstAddress;
  58              		.loc 1 692 0
  59 001a 0368     		ldr	r3, [r0]
  60 001c DA60     		str	r2, [r3, #12]
  61              	.L1:
 693:./Drivers/STM32F1xx_HAL_Driver/Src/stm32f1xx_hal_dma.c ****   }
 694:./Drivers/STM32F1xx_HAL_Driver/Src/stm32f1xx_hal_dma.c **** }
  62              		.loc 1 694 0
  63 001e 5DF8044B 		ldr	r4, [sp], #4
  64              	.LCFI1:
  65              		.cfi_restore 4
  66              		.cfi_def_cfa_offset 0
  67 0022 7047     		bx	lr
  68              		.cfi_endproc
  69              	.LFE72:
  71              		.section	.text.HAL_DMA_Init,"ax",%progbits
  72              		.align	2
  73              		.global	HAL_DMA_Init
  74              		.thumb
  75              		.thumb_func
  77              	HAL_DMA_Init:
  78              	.LFB63:
 171:./Drivers/STM32F1xx_HAL_Driver/Src/stm32f1xx_hal_dma.c ****   uint32_t tmp = 0;
  79              		.loc 1 171 0
  80              		.cfi_startproc
  81              		@ args = 0, pretend = 0, frame = 0
  82              		@ frame_needed = 0, uses_anonymous_args = 0
  83              		@ link register save eliminated.
  84              	.LVL5:
 175:./Drivers/STM32F1xx_HAL_Driver/Src/stm32f1xx_hal_dma.c ****   {
  85              		.loc 1 175 0
  86 0000 20B3     		cbz	r0, .L8
 171:./Drivers/STM32F1xx_HAL_Driver/Src/stm32f1xx_hal_dma.c ****   uint32_t tmp = 0;
  87              		.loc 1 171 0
  88 0002 10B4     		push	{r4}
  89              	.LCFI2:
  90              		.cfi_def_cfa_offset 4
  91              		.cfi_offset 4, -4
  92 0004 0346     		mov	r3, r0
 190:./Drivers/STM32F1xx_HAL_Driver/Src/stm32f1xx_hal_dma.c ****   {  
  93              		.loc 1 190 0
  94 0006 90F82120 		ldrb	r2, [r0, #33]	@ zero_extendqisi2
  95 000a 0AB9     		cbnz	r2, .L7
 193:./Drivers/STM32F1xx_HAL_Driver/Src/stm32f1xx_hal_dma.c ****   }
  96              		.loc 1 193 0
  97 000c 80F82020 		strb	r2, [r0, #32]
  98              	.L7:
 197:./Drivers/STM32F1xx_HAL_Driver/Src/stm32f1xx_hal_dma.c **** 
  99              		.loc 1 197 0
 100 0010 0222     		movs	r2, #2
 101 0012 83F82120 		strb	r2, [r3, #33]
ARM GAS  /tmp/cc4JjNI1.s 			page 15


 200:./Drivers/STM32F1xx_HAL_Driver/Src/stm32f1xx_hal_dma.c ****   
 102              		.loc 1 200 0
 103 0016 1C68     		ldr	r4, [r3]
 104 0018 2268     		ldr	r2, [r4]
 105              	.LVL6:
 203:./Drivers/STM32F1xx_HAL_Driver/Src/stm32f1xx_hal_dma.c ****                       DMA_CCR_MINC  | DMA_CCR_PINC   | DMA_CCR_CIRC   | \
 106              		.loc 1 203 0
 107 001a 22F47F52 		bic	r2, r2, #16320
 108              	.LVL7:
 109 001e 22F03002 		bic	r2, r2, #48
 110              	.LVL8:
 208:./Drivers/STM32F1xx_HAL_Driver/Src/stm32f1xx_hal_dma.c ****           hdma->Init.PeriphInc           | hdma->Init.MemInc           |
 111              		.loc 1 208 0
 112 0022 5868     		ldr	r0, [r3, #4]
 113              	.LVL9:
 209:./Drivers/STM32F1xx_HAL_Driver/Src/stm32f1xx_hal_dma.c ****           hdma->Init.PeriphDataAlignment | hdma->Init.MemDataAlignment |
 114              		.loc 1 209 0
 115 0024 9968     		ldr	r1, [r3, #8]
 208:./Drivers/STM32F1xx_HAL_Driver/Src/stm32f1xx_hal_dma.c ****           hdma->Init.PeriphInc           | hdma->Init.MemInc           |
 116              		.loc 1 208 0
 117 0026 0843     		orrs	r0, r0, r1
 209:./Drivers/STM32F1xx_HAL_Driver/Src/stm32f1xx_hal_dma.c ****           hdma->Init.PeriphDataAlignment | hdma->Init.MemDataAlignment |
 118              		.loc 1 209 0
 119 0028 D968     		ldr	r1, [r3, #12]
 120 002a 0843     		orrs	r0, r0, r1
 210:./Drivers/STM32F1xx_HAL_Driver/Src/stm32f1xx_hal_dma.c ****           hdma->Init.Mode                | hdma->Init.Priority;
 121              		.loc 1 210 0
 122 002c 1969     		ldr	r1, [r3, #16]
 209:./Drivers/STM32F1xx_HAL_Driver/Src/stm32f1xx_hal_dma.c ****           hdma->Init.PeriphDataAlignment | hdma->Init.MemDataAlignment |
 123              		.loc 1 209 0
 124 002e 0843     		orrs	r0, r0, r1
 210:./Drivers/STM32F1xx_HAL_Driver/Src/stm32f1xx_hal_dma.c ****           hdma->Init.Mode                | hdma->Init.Priority;
 125              		.loc 1 210 0
 126 0030 5969     		ldr	r1, [r3, #20]
 127 0032 0843     		orrs	r0, r0, r1
 211:./Drivers/STM32F1xx_HAL_Driver/Src/stm32f1xx_hal_dma.c **** 
 128              		.loc 1 211 0
 129 0034 9969     		ldr	r1, [r3, #24]
 210:./Drivers/STM32F1xx_HAL_Driver/Src/stm32f1xx_hal_dma.c ****           hdma->Init.Mode                | hdma->Init.Priority;
 130              		.loc 1 210 0
 131 0036 0843     		orrs	r0, r0, r1
 211:./Drivers/STM32F1xx_HAL_Driver/Src/stm32f1xx_hal_dma.c **** 
 132              		.loc 1 211 0
 133 0038 D969     		ldr	r1, [r3, #28]
 134 003a 0143     		orrs	r1, r1, r0
 208:./Drivers/STM32F1xx_HAL_Driver/Src/stm32f1xx_hal_dma.c ****           hdma->Init.PeriphInc           | hdma->Init.MemInc           |
 135              		.loc 1 208 0
 136 003c 0A43     		orrs	r2, r2, r1
 137              	.LVL10:
 214:./Drivers/STM32F1xx_HAL_Driver/Src/stm32f1xx_hal_dma.c ****   
 138              		.loc 1 214 0
 139 003e 2260     		str	r2, [r4]
 217:./Drivers/STM32F1xx_HAL_Driver/Src/stm32f1xx_hal_dma.c **** 
 140              		.loc 1 217 0
 141 0040 0020     		movs	r0, #0
 142 0042 5863     		str	r0, [r3, #52]
 220:./Drivers/STM32F1xx_HAL_Driver/Src/stm32f1xx_hal_dma.c ****   
ARM GAS  /tmp/cc4JjNI1.s 			page 16


 143              		.loc 1 220 0
 144 0044 0122     		movs	r2, #1
 145              	.LVL11:
 146 0046 83F82120 		strb	r2, [r3, #33]
 222:./Drivers/STM32F1xx_HAL_Driver/Src/stm32f1xx_hal_dma.c **** }
 147              		.loc 1 222 0
 148 004a 01E0     		b	.L6
 149              	.LVL12:
 150              	.L8:
 151              	.LCFI3:
 152              		.cfi_def_cfa_offset 0
 153              		.cfi_restore 4
 177:./Drivers/STM32F1xx_HAL_Driver/Src/stm32f1xx_hal_dma.c ****   }
 154              		.loc 1 177 0
 155 004c 0120     		movs	r0, #1
 156              	.LVL13:
 157 004e 7047     		bx	lr
 158              	.LVL14:
 159              	.L6:
 160              	.LCFI4:
 161              		.cfi_def_cfa_offset 4
 162              		.cfi_offset 4, -4
 223:./Drivers/STM32F1xx_HAL_Driver/Src/stm32f1xx_hal_dma.c **** 
 163              		.loc 1 223 0
 164 0050 5DF8044B 		ldr	r4, [sp], #4
 165              	.LCFI5:
 166              		.cfi_restore 4
 167              		.cfi_def_cfa_offset 0
 168 0054 7047     		bx	lr
 169              		.cfi_endproc
 170              	.LFE63:
 172 0056 00BF     		.section	.text.HAL_DMA_DeInit,"ax",%progbits
 173              		.align	2
 174              		.global	HAL_DMA_DeInit
 175              		.thumb
 176              		.thumb_func
 178              	HAL_DMA_DeInit:
 179              	.LFB64:
 232:./Drivers/STM32F1xx_HAL_Driver/Src/stm32f1xx_hal_dma.c ****   /* Check the DMA handle allocation */
 180              		.loc 1 232 0
 181              		.cfi_startproc
 182              		@ args = 0, pretend = 0, frame = 0
 183              		@ frame_needed = 0, uses_anonymous_args = 0
 184              		@ link register save eliminated.
 185              	.LVL15:
 234:./Drivers/STM32F1xx_HAL_Driver/Src/stm32f1xx_hal_dma.c ****   {
 186              		.loc 1 234 0
 187 0000 0346     		mov	r3, r0
 188 0002 0028     		cmp	r0, #0
 189 0004 00F0C481 		beq	.L85
 243:./Drivers/STM32F1xx_HAL_Driver/Src/stm32f1xx_hal_dma.c ****   {
 190              		.loc 1 243 0
 191 0008 90F82120 		ldrb	r2, [r0, #33]	@ zero_extendqisi2
 192 000c 022A     		cmp	r2, #2
 193 000e 00F0C181 		beq	.L86
 249:./Drivers/STM32F1xx_HAL_Driver/Src/stm32f1xx_hal_dma.c ****   
 194              		.loc 1 249 0
ARM GAS  /tmp/cc4JjNI1.s 			page 17


 195 0012 0168     		ldr	r1, [r0]
 196 0014 0A68     		ldr	r2, [r1]
 197 0016 22F00102 		bic	r2, r2, #1
 198 001a 0A60     		str	r2, [r1]
 252:./Drivers/STM32F1xx_HAL_Driver/Src/stm32f1xx_hal_dma.c ****   
 199              		.loc 1 252 0
 200 001c 0168     		ldr	r1, [r0]
 201 001e 0022     		movs	r2, #0
 202 0020 0A60     		str	r2, [r1]
 255:./Drivers/STM32F1xx_HAL_Driver/Src/stm32f1xx_hal_dma.c ****   
 203              		.loc 1 255 0
 204 0022 0168     		ldr	r1, [r0]
 205 0024 4A60     		str	r2, [r1, #4]
 258:./Drivers/STM32F1xx_HAL_Driver/Src/stm32f1xx_hal_dma.c ****   
 206              		.loc 1 258 0
 207 0026 0168     		ldr	r1, [r0]
 208 0028 8A60     		str	r2, [r1, #8]
 261:./Drivers/STM32F1xx_HAL_Driver/Src/stm32f1xx_hal_dma.c **** 
 209              		.loc 1 261 0
 210 002a 0168     		ldr	r1, [r0]
 211 002c CA60     		str	r2, [r1, #12]
 264:./Drivers/STM32F1xx_HAL_Driver/Src/stm32f1xx_hal_dma.c ****   __HAL_DMA_CLEAR_FLAG(hdma, __HAL_DMA_GET_TE_FLAG_INDEX(hdma));
 212              		.loc 1 264 0
 213 002e 0268     		ldr	r2, [r0]
 214 0030 AE49     		ldr	r1, .L153
 215 0032 8A42     		cmp	r2, r1
 216 0034 43D9     		bls	.L13
 264:./Drivers/STM32F1xx_HAL_Driver/Src/stm32f1xx_hal_dma.c ****   __HAL_DMA_CLEAR_FLAG(hdma, __HAL_DMA_GET_TE_FLAG_INDEX(hdma));
 217              		.loc 1 264 0 is_stmt 0 discriminator 1
 218 0036 7839     		subs	r1, r1, #120
 219 0038 8A42     		cmp	r2, r1
 220 003a 3CD0     		beq	.L87
 264:./Drivers/STM32F1xx_HAL_Driver/Src/stm32f1xx_hal_dma.c ****   __HAL_DMA_CLEAR_FLAG(hdma, __HAL_DMA_GET_TE_FLAG_INDEX(hdma));
 221              		.loc 1 264 0 discriminator 3
 222 003c 1431     		adds	r1, r1, #20
 223 003e 8A42     		cmp	r2, r1
 224 0040 37D0     		beq	.L88
 264:./Drivers/STM32F1xx_HAL_Driver/Src/stm32f1xx_hal_dma.c ****   __HAL_DMA_CLEAR_FLAG(hdma, __HAL_DMA_GET_TE_FLAG_INDEX(hdma));
 225              		.loc 1 264 0 discriminator 5
 226 0042 1431     		adds	r1, r1, #20
 227 0044 8A42     		cmp	r2, r1
 228 0046 31D0     		beq	.L89
 264:./Drivers/STM32F1xx_HAL_Driver/Src/stm32f1xx_hal_dma.c ****   __HAL_DMA_CLEAR_FLAG(hdma, __HAL_DMA_GET_TE_FLAG_INDEX(hdma));
 229              		.loc 1 264 0 discriminator 7
 230 0048 1431     		adds	r1, r1, #20
 231 004a 8A42     		cmp	r2, r1
 232 004c 2BD0     		beq	.L90
 264:./Drivers/STM32F1xx_HAL_Driver/Src/stm32f1xx_hal_dma.c ****   __HAL_DMA_CLEAR_FLAG(hdma, __HAL_DMA_GET_TE_FLAG_INDEX(hdma));
 233              		.loc 1 264 0 discriminator 9
 234 004e 1431     		adds	r1, r1, #20
 235 0050 8A42     		cmp	r2, r1
 236 0052 25D0     		beq	.L91
 264:./Drivers/STM32F1xx_HAL_Driver/Src/stm32f1xx_hal_dma.c ****   __HAL_DMA_CLEAR_FLAG(hdma, __HAL_DMA_GET_TE_FLAG_INDEX(hdma));
 237              		.loc 1 264 0 discriminator 11
 238 0054 1431     		adds	r1, r1, #20
 239 0056 8A42     		cmp	r2, r1
 240 0058 1FD0     		beq	.L92
ARM GAS  /tmp/cc4JjNI1.s 			page 18


 264:./Drivers/STM32F1xx_HAL_Driver/Src/stm32f1xx_hal_dma.c ****   __HAL_DMA_CLEAR_FLAG(hdma, __HAL_DMA_GET_TE_FLAG_INDEX(hdma));
 241              		.loc 1 264 0 discriminator 13
 242 005a 1431     		adds	r1, r1, #20
 243 005c 8A42     		cmp	r2, r1
 244 005e 19D0     		beq	.L93
 264:./Drivers/STM32F1xx_HAL_Driver/Src/stm32f1xx_hal_dma.c ****   __HAL_DMA_CLEAR_FLAG(hdma, __HAL_DMA_GET_TE_FLAG_INDEX(hdma));
 245              		.loc 1 264 0 discriminator 15
 246 0060 01F56271 		add	r1, r1, #904
 247 0064 8A42     		cmp	r2, r1
 248 0066 13D0     		beq	.L94
 264:./Drivers/STM32F1xx_HAL_Driver/Src/stm32f1xx_hal_dma.c ****   __HAL_DMA_CLEAR_FLAG(hdma, __HAL_DMA_GET_TE_FLAG_INDEX(hdma));
 249              		.loc 1 264 0 discriminator 17
 250 0068 1431     		adds	r1, r1, #20
 251 006a 8A42     		cmp	r2, r1
 252 006c 0ED0     		beq	.L95
 264:./Drivers/STM32F1xx_HAL_Driver/Src/stm32f1xx_hal_dma.c ****   __HAL_DMA_CLEAR_FLAG(hdma, __HAL_DMA_GET_TE_FLAG_INDEX(hdma));
 253              		.loc 1 264 0 discriminator 19
 254 006e 1431     		adds	r1, r1, #20
 255 0070 8A42     		cmp	r2, r1
 256 0072 08D0     		beq	.L96
 264:./Drivers/STM32F1xx_HAL_Driver/Src/stm32f1xx_hal_dma.c ****   __HAL_DMA_CLEAR_FLAG(hdma, __HAL_DMA_GET_TE_FLAG_INDEX(hdma));
 257              		.loc 1 264 0 discriminator 21
 258 0074 1431     		adds	r1, r1, #20
 259 0076 8A42     		cmp	r2, r1
 260 0078 02D1     		bne	.L97
 264:./Drivers/STM32F1xx_HAL_Driver/Src/stm32f1xx_hal_dma.c ****   __HAL_DMA_CLEAR_FLAG(hdma, __HAL_DMA_GET_TE_FLAG_INDEX(hdma));
 261              		.loc 1 264 0
 262 007a 4FF40051 		mov	r1, #8192
 263 007e 1BE0     		b	.L14
 264              	.L97:
 265 0080 4FF40031 		mov	r1, #131072
 266 0084 18E0     		b	.L14
 267              	.L96:
 268 0086 4FF40071 		mov	r1, #512
 269 008a 15E0     		b	.L14
 270              	.L95:
 271 008c 2021     		movs	r1, #32
 272 008e 13E0     		b	.L14
 273              	.L94:
 274 0090 0221     		movs	r1, #2
 275 0092 11E0     		b	.L14
 276              	.L93:
 277 0094 4FF00071 		mov	r1, #33554432
 278 0098 0EE0     		b	.L14
 279              	.L92:
 280 009a 4FF40011 		mov	r1, #2097152
 281 009e 0BE0     		b	.L14
 282              	.L91:
 283 00a0 4FF40031 		mov	r1, #131072
 284 00a4 08E0     		b	.L14
 285              	.L90:
 286 00a6 4FF40051 		mov	r1, #8192
 287 00aa 05E0     		b	.L14
 288              	.L89:
 289 00ac 4FF40071 		mov	r1, #512
 290 00b0 02E0     		b	.L14
 291              	.L88:
ARM GAS  /tmp/cc4JjNI1.s 			page 19


 292 00b2 2021     		movs	r1, #32
 293 00b4 00E0     		b	.L14
 294              	.L87:
 295 00b6 0221     		movs	r1, #2
 296              	.L14:
 264:./Drivers/STM32F1xx_HAL_Driver/Src/stm32f1xx_hal_dma.c ****   __HAL_DMA_CLEAR_FLAG(hdma, __HAL_DMA_GET_TE_FLAG_INDEX(hdma));
 297              		.loc 1 264 0 discriminator 46
 298 00b8 8D4A     		ldr	r2, .L153+4
 299 00ba 5160     		str	r1, [r2, #4]
 300 00bc 42E0     		b	.L25
 301              	.L13:
 264:./Drivers/STM32F1xx_HAL_Driver/Src/stm32f1xx_hal_dma.c ****   __HAL_DMA_CLEAR_FLAG(hdma, __HAL_DMA_GET_TE_FLAG_INDEX(hdma));
 302              		.loc 1 264 0 discriminator 2
 303 00be 8D49     		ldr	r1, .L153+8
 304 00c0 8A42     		cmp	r2, r1
 305 00c2 3CD0     		beq	.L98
 264:./Drivers/STM32F1xx_HAL_Driver/Src/stm32f1xx_hal_dma.c ****   __HAL_DMA_CLEAR_FLAG(hdma, __HAL_DMA_GET_TE_FLAG_INDEX(hdma));
 306              		.loc 1 264 0 discriminator 47
 307 00c4 1431     		adds	r1, r1, #20
 308 00c6 8A42     		cmp	r2, r1
 309 00c8 37D0     		beq	.L99
 264:./Drivers/STM32F1xx_HAL_Driver/Src/stm32f1xx_hal_dma.c ****   __HAL_DMA_CLEAR_FLAG(hdma, __HAL_DMA_GET_TE_FLAG_INDEX(hdma));
 310              		.loc 1 264 0 discriminator 49
 311 00ca 1431     		adds	r1, r1, #20
 312 00cc 8A42     		cmp	r2, r1
 313 00ce 31D0     		beq	.L100
 264:./Drivers/STM32F1xx_HAL_Driver/Src/stm32f1xx_hal_dma.c ****   __HAL_DMA_CLEAR_FLAG(hdma, __HAL_DMA_GET_TE_FLAG_INDEX(hdma));
 314              		.loc 1 264 0 discriminator 51
 315 00d0 1431     		adds	r1, r1, #20
 316 00d2 8A42     		cmp	r2, r1
 317 00d4 2BD0     		beq	.L101
 264:./Drivers/STM32F1xx_HAL_Driver/Src/stm32f1xx_hal_dma.c ****   __HAL_DMA_CLEAR_FLAG(hdma, __HAL_DMA_GET_TE_FLAG_INDEX(hdma));
 318              		.loc 1 264 0 discriminator 53
 319 00d6 1431     		adds	r1, r1, #20
 320 00d8 8A42     		cmp	r2, r1
 321 00da 25D0     		beq	.L102
 264:./Drivers/STM32F1xx_HAL_Driver/Src/stm32f1xx_hal_dma.c ****   __HAL_DMA_CLEAR_FLAG(hdma, __HAL_DMA_GET_TE_FLAG_INDEX(hdma));
 322              		.loc 1 264 0 discriminator 55
 323 00dc 1431     		adds	r1, r1, #20
 324 00de 8A42     		cmp	r2, r1
 325 00e0 1FD0     		beq	.L103
 264:./Drivers/STM32F1xx_HAL_Driver/Src/stm32f1xx_hal_dma.c ****   __HAL_DMA_CLEAR_FLAG(hdma, __HAL_DMA_GET_TE_FLAG_INDEX(hdma));
 326              		.loc 1 264 0 discriminator 57
 327 00e2 1431     		adds	r1, r1, #20
 328 00e4 8A42     		cmp	r2, r1
 329 00e6 19D0     		beq	.L104
 264:./Drivers/STM32F1xx_HAL_Driver/Src/stm32f1xx_hal_dma.c ****   __HAL_DMA_CLEAR_FLAG(hdma, __HAL_DMA_GET_TE_FLAG_INDEX(hdma));
 330              		.loc 1 264 0 discriminator 59
 331 00e8 01F56271 		add	r1, r1, #904
 332 00ec 8A42     		cmp	r2, r1
 333 00ee 13D0     		beq	.L105
 264:./Drivers/STM32F1xx_HAL_Driver/Src/stm32f1xx_hal_dma.c ****   __HAL_DMA_CLEAR_FLAG(hdma, __HAL_DMA_GET_TE_FLAG_INDEX(hdma));
 334              		.loc 1 264 0 discriminator 61
 335 00f0 1431     		adds	r1, r1, #20
 336 00f2 8A42     		cmp	r2, r1
 337 00f4 0ED0     		beq	.L106
 264:./Drivers/STM32F1xx_HAL_Driver/Src/stm32f1xx_hal_dma.c ****   __HAL_DMA_CLEAR_FLAG(hdma, __HAL_DMA_GET_TE_FLAG_INDEX(hdma));
ARM GAS  /tmp/cc4JjNI1.s 			page 20


 338              		.loc 1 264 0 discriminator 63
 339 00f6 1431     		adds	r1, r1, #20
 340 00f8 8A42     		cmp	r2, r1
 341 00fa 08D0     		beq	.L107
 264:./Drivers/STM32F1xx_HAL_Driver/Src/stm32f1xx_hal_dma.c ****   __HAL_DMA_CLEAR_FLAG(hdma, __HAL_DMA_GET_TE_FLAG_INDEX(hdma));
 342              		.loc 1 264 0 discriminator 65
 343 00fc 1431     		adds	r1, r1, #20
 344 00fe 8A42     		cmp	r2, r1
 345 0100 02D1     		bne	.L108
 264:./Drivers/STM32F1xx_HAL_Driver/Src/stm32f1xx_hal_dma.c ****   __HAL_DMA_CLEAR_FLAG(hdma, __HAL_DMA_GET_TE_FLAG_INDEX(hdma));
 346              		.loc 1 264 0
 347 0102 4FF40051 		mov	r1, #8192
 348 0106 1BE0     		b	.L26
 349              	.L108:
 350 0108 4FF40031 		mov	r1, #131072
 351 010c 18E0     		b	.L26
 352              	.L107:
 353 010e 4FF40071 		mov	r1, #512
 354 0112 15E0     		b	.L26
 355              	.L106:
 356 0114 2021     		movs	r1, #32
 357 0116 13E0     		b	.L26
 358              	.L105:
 359 0118 0221     		movs	r1, #2
 360 011a 11E0     		b	.L26
 361              	.L104:
 362 011c 4FF00071 		mov	r1, #33554432
 363 0120 0EE0     		b	.L26
 364              	.L103:
 365 0122 4FF40011 		mov	r1, #2097152
 366 0126 0BE0     		b	.L26
 367              	.L102:
 368 0128 4FF40031 		mov	r1, #131072
 369 012c 08E0     		b	.L26
 370              	.L101:
 371 012e 4FF40051 		mov	r1, #8192
 372 0132 05E0     		b	.L26
 373              	.L100:
 374 0134 4FF40071 		mov	r1, #512
 375 0138 02E0     		b	.L26
 376              	.L99:
 377 013a 2021     		movs	r1, #32
 378 013c 00E0     		b	.L26
 379              	.L98:
 380 013e 0221     		movs	r1, #2
 381              	.L26:
 264:./Drivers/STM32F1xx_HAL_Driver/Src/stm32f1xx_hal_dma.c ****   __HAL_DMA_CLEAR_FLAG(hdma, __HAL_DMA_GET_TE_FLAG_INDEX(hdma));
 382              		.loc 1 264 0 discriminator 90
 383 0140 6D4A     		ldr	r2, .L153+12
 384 0142 5160     		str	r1, [r2, #4]
 385              	.L25:
 265:./Drivers/STM32F1xx_HAL_Driver/Src/stm32f1xx_hal_dma.c ****   __HAL_DMA_CLEAR_FLAG(hdma, __HAL_DMA_GET_HT_FLAG_INDEX(hdma));
 386              		.loc 1 265 0 is_stmt 1
 387 0144 1A68     		ldr	r2, [r3]
 388 0146 6949     		ldr	r1, .L153
 389 0148 8A42     		cmp	r2, r1
 390 014a 43D9     		bls	.L37
ARM GAS  /tmp/cc4JjNI1.s 			page 21


 265:./Drivers/STM32F1xx_HAL_Driver/Src/stm32f1xx_hal_dma.c ****   __HAL_DMA_CLEAR_FLAG(hdma, __HAL_DMA_GET_HT_FLAG_INDEX(hdma));
 391              		.loc 1 265 0 is_stmt 0 discriminator 1
 392 014c 7839     		subs	r1, r1, #120
 393 014e 8A42     		cmp	r2, r1
 394 0150 3CD0     		beq	.L109
 265:./Drivers/STM32F1xx_HAL_Driver/Src/stm32f1xx_hal_dma.c ****   __HAL_DMA_CLEAR_FLAG(hdma, __HAL_DMA_GET_HT_FLAG_INDEX(hdma));
 395              		.loc 1 265 0 discriminator 3
 396 0152 1431     		adds	r1, r1, #20
 397 0154 8A42     		cmp	r2, r1
 398 0156 37D0     		beq	.L110
 265:./Drivers/STM32F1xx_HAL_Driver/Src/stm32f1xx_hal_dma.c ****   __HAL_DMA_CLEAR_FLAG(hdma, __HAL_DMA_GET_HT_FLAG_INDEX(hdma));
 399              		.loc 1 265 0 discriminator 5
 400 0158 1431     		adds	r1, r1, #20
 401 015a 8A42     		cmp	r2, r1
 402 015c 31D0     		beq	.L111
 265:./Drivers/STM32F1xx_HAL_Driver/Src/stm32f1xx_hal_dma.c ****   __HAL_DMA_CLEAR_FLAG(hdma, __HAL_DMA_GET_HT_FLAG_INDEX(hdma));
 403              		.loc 1 265 0 discriminator 7
 404 015e 1431     		adds	r1, r1, #20
 405 0160 8A42     		cmp	r2, r1
 406 0162 2BD0     		beq	.L112
 265:./Drivers/STM32F1xx_HAL_Driver/Src/stm32f1xx_hal_dma.c ****   __HAL_DMA_CLEAR_FLAG(hdma, __HAL_DMA_GET_HT_FLAG_INDEX(hdma));
 407              		.loc 1 265 0 discriminator 9
 408 0164 1431     		adds	r1, r1, #20
 409 0166 8A42     		cmp	r2, r1
 410 0168 25D0     		beq	.L113
 265:./Drivers/STM32F1xx_HAL_Driver/Src/stm32f1xx_hal_dma.c ****   __HAL_DMA_CLEAR_FLAG(hdma, __HAL_DMA_GET_HT_FLAG_INDEX(hdma));
 411              		.loc 1 265 0 discriminator 11
 412 016a 1431     		adds	r1, r1, #20
 413 016c 8A42     		cmp	r2, r1
 414 016e 1FD0     		beq	.L114
 265:./Drivers/STM32F1xx_HAL_Driver/Src/stm32f1xx_hal_dma.c ****   __HAL_DMA_CLEAR_FLAG(hdma, __HAL_DMA_GET_HT_FLAG_INDEX(hdma));
 415              		.loc 1 265 0 discriminator 13
 416 0170 1431     		adds	r1, r1, #20
 417 0172 8A42     		cmp	r2, r1
 418 0174 19D0     		beq	.L115
 265:./Drivers/STM32F1xx_HAL_Driver/Src/stm32f1xx_hal_dma.c ****   __HAL_DMA_CLEAR_FLAG(hdma, __HAL_DMA_GET_HT_FLAG_INDEX(hdma));
 419              		.loc 1 265 0 discriminator 15
 420 0176 01F56271 		add	r1, r1, #904
 421 017a 8A42     		cmp	r2, r1
 422 017c 13D0     		beq	.L116
 265:./Drivers/STM32F1xx_HAL_Driver/Src/stm32f1xx_hal_dma.c ****   __HAL_DMA_CLEAR_FLAG(hdma, __HAL_DMA_GET_HT_FLAG_INDEX(hdma));
 423              		.loc 1 265 0 discriminator 17
 424 017e 1431     		adds	r1, r1, #20
 425 0180 8A42     		cmp	r2, r1
 426 0182 0ED0     		beq	.L117
 265:./Drivers/STM32F1xx_HAL_Driver/Src/stm32f1xx_hal_dma.c ****   __HAL_DMA_CLEAR_FLAG(hdma, __HAL_DMA_GET_HT_FLAG_INDEX(hdma));
 427              		.loc 1 265 0 discriminator 19
 428 0184 1431     		adds	r1, r1, #20
 429 0186 8A42     		cmp	r2, r1
 430 0188 08D0     		beq	.L118
 265:./Drivers/STM32F1xx_HAL_Driver/Src/stm32f1xx_hal_dma.c ****   __HAL_DMA_CLEAR_FLAG(hdma, __HAL_DMA_GET_HT_FLAG_INDEX(hdma));
 431              		.loc 1 265 0 discriminator 21
 432 018a 1431     		adds	r1, r1, #20
 433 018c 8A42     		cmp	r2, r1
 434 018e 02D1     		bne	.L119
 265:./Drivers/STM32F1xx_HAL_Driver/Src/stm32f1xx_hal_dma.c ****   __HAL_DMA_CLEAR_FLAG(hdma, __HAL_DMA_GET_HT_FLAG_INDEX(hdma));
 435              		.loc 1 265 0
ARM GAS  /tmp/cc4JjNI1.s 			page 22


 436 0190 4FF40041 		mov	r1, #32768
 437 0194 1BE0     		b	.L38
 438              	.L119:
 439 0196 4FF40021 		mov	r1, #524288
 440 019a 18E0     		b	.L38
 441              	.L118:
 442 019c 4FF40061 		mov	r1, #2048
 443 01a0 15E0     		b	.L38
 444              	.L117:
 445 01a2 8021     		movs	r1, #128
 446 01a4 13E0     		b	.L38
 447              	.L116:
 448 01a6 0821     		movs	r1, #8
 449 01a8 11E0     		b	.L38
 450              	.L115:
 451 01aa 4FF00061 		mov	r1, #134217728
 452 01ae 0EE0     		b	.L38
 453              	.L114:
 454 01b0 4FF40001 		mov	r1, #8388608
 455 01b4 0BE0     		b	.L38
 456              	.L113:
 457 01b6 4FF40021 		mov	r1, #524288
 458 01ba 08E0     		b	.L38
 459              	.L112:
 460 01bc 4FF40041 		mov	r1, #32768
 461 01c0 05E0     		b	.L38
 462              	.L111:
 463 01c2 4FF40061 		mov	r1, #2048
 464 01c6 02E0     		b	.L38
 465              	.L110:
 466 01c8 8021     		movs	r1, #128
 467 01ca 00E0     		b	.L38
 468              	.L109:
 469 01cc 0821     		movs	r1, #8
 470              	.L38:
 265:./Drivers/STM32F1xx_HAL_Driver/Src/stm32f1xx_hal_dma.c ****   __HAL_DMA_CLEAR_FLAG(hdma, __HAL_DMA_GET_HT_FLAG_INDEX(hdma));
 471              		.loc 1 265 0 discriminator 46
 472 01ce 484A     		ldr	r2, .L153+4
 473 01d0 5160     		str	r1, [r2, #4]
 474 01d2 42E0     		b	.L49
 475              	.L37:
 265:./Drivers/STM32F1xx_HAL_Driver/Src/stm32f1xx_hal_dma.c ****   __HAL_DMA_CLEAR_FLAG(hdma, __HAL_DMA_GET_HT_FLAG_INDEX(hdma));
 476              		.loc 1 265 0 discriminator 2
 477 01d4 4749     		ldr	r1, .L153+8
 478 01d6 8A42     		cmp	r2, r1
 479 01d8 3CD0     		beq	.L120
 265:./Drivers/STM32F1xx_HAL_Driver/Src/stm32f1xx_hal_dma.c ****   __HAL_DMA_CLEAR_FLAG(hdma, __HAL_DMA_GET_HT_FLAG_INDEX(hdma));
 480              		.loc 1 265 0 discriminator 47
 481 01da 1431     		adds	r1, r1, #20
 482 01dc 8A42     		cmp	r2, r1
 483 01de 37D0     		beq	.L121
 265:./Drivers/STM32F1xx_HAL_Driver/Src/stm32f1xx_hal_dma.c ****   __HAL_DMA_CLEAR_FLAG(hdma, __HAL_DMA_GET_HT_FLAG_INDEX(hdma));
 484              		.loc 1 265 0 discriminator 49
 485 01e0 1431     		adds	r1, r1, #20
 486 01e2 8A42     		cmp	r2, r1
 487 01e4 31D0     		beq	.L122
 265:./Drivers/STM32F1xx_HAL_Driver/Src/stm32f1xx_hal_dma.c ****   __HAL_DMA_CLEAR_FLAG(hdma, __HAL_DMA_GET_HT_FLAG_INDEX(hdma));
ARM GAS  /tmp/cc4JjNI1.s 			page 23


 488              		.loc 1 265 0 discriminator 51
 489 01e6 1431     		adds	r1, r1, #20
 490 01e8 8A42     		cmp	r2, r1
 491 01ea 2BD0     		beq	.L123
 265:./Drivers/STM32F1xx_HAL_Driver/Src/stm32f1xx_hal_dma.c ****   __HAL_DMA_CLEAR_FLAG(hdma, __HAL_DMA_GET_HT_FLAG_INDEX(hdma));
 492              		.loc 1 265 0 discriminator 53
 493 01ec 1431     		adds	r1, r1, #20
 494 01ee 8A42     		cmp	r2, r1
 495 01f0 25D0     		beq	.L124
 265:./Drivers/STM32F1xx_HAL_Driver/Src/stm32f1xx_hal_dma.c ****   __HAL_DMA_CLEAR_FLAG(hdma, __HAL_DMA_GET_HT_FLAG_INDEX(hdma));
 496              		.loc 1 265 0 discriminator 55
 497 01f2 1431     		adds	r1, r1, #20
 498 01f4 8A42     		cmp	r2, r1
 499 01f6 1FD0     		beq	.L125
 265:./Drivers/STM32F1xx_HAL_Driver/Src/stm32f1xx_hal_dma.c ****   __HAL_DMA_CLEAR_FLAG(hdma, __HAL_DMA_GET_HT_FLAG_INDEX(hdma));
 500              		.loc 1 265 0 discriminator 57
 501 01f8 1431     		adds	r1, r1, #20
 502 01fa 8A42     		cmp	r2, r1
 503 01fc 19D0     		beq	.L126
 265:./Drivers/STM32F1xx_HAL_Driver/Src/stm32f1xx_hal_dma.c ****   __HAL_DMA_CLEAR_FLAG(hdma, __HAL_DMA_GET_HT_FLAG_INDEX(hdma));
 504              		.loc 1 265 0 discriminator 59
 505 01fe 01F56271 		add	r1, r1, #904
 506 0202 8A42     		cmp	r2, r1
 507 0204 13D0     		beq	.L127
 265:./Drivers/STM32F1xx_HAL_Driver/Src/stm32f1xx_hal_dma.c ****   __HAL_DMA_CLEAR_FLAG(hdma, __HAL_DMA_GET_HT_FLAG_INDEX(hdma));
 508              		.loc 1 265 0 discriminator 61
 509 0206 1431     		adds	r1, r1, #20
 510 0208 8A42     		cmp	r2, r1
 511 020a 0ED0     		beq	.L128
 265:./Drivers/STM32F1xx_HAL_Driver/Src/stm32f1xx_hal_dma.c ****   __HAL_DMA_CLEAR_FLAG(hdma, __HAL_DMA_GET_HT_FLAG_INDEX(hdma));
 512              		.loc 1 265 0 discriminator 63
 513 020c 1431     		adds	r1, r1, #20
 514 020e 8A42     		cmp	r2, r1
 515 0210 08D0     		beq	.L129
 265:./Drivers/STM32F1xx_HAL_Driver/Src/stm32f1xx_hal_dma.c ****   __HAL_DMA_CLEAR_FLAG(hdma, __HAL_DMA_GET_HT_FLAG_INDEX(hdma));
 516              		.loc 1 265 0 discriminator 65
 517 0212 1431     		adds	r1, r1, #20
 518 0214 8A42     		cmp	r2, r1
 519 0216 02D1     		bne	.L130
 265:./Drivers/STM32F1xx_HAL_Driver/Src/stm32f1xx_hal_dma.c ****   __HAL_DMA_CLEAR_FLAG(hdma, __HAL_DMA_GET_HT_FLAG_INDEX(hdma));
 520              		.loc 1 265 0
 521 0218 4FF40041 		mov	r1, #32768
 522 021c 1BE0     		b	.L50
 523              	.L130:
 524 021e 4FF40021 		mov	r1, #524288
 525 0222 18E0     		b	.L50
 526              	.L129:
 527 0224 4FF40061 		mov	r1, #2048
 528 0228 15E0     		b	.L50
 529              	.L128:
 530 022a 8021     		movs	r1, #128
 531 022c 13E0     		b	.L50
 532              	.L127:
 533 022e 0821     		movs	r1, #8
 534 0230 11E0     		b	.L50
 535              	.L126:
 536 0232 4FF00061 		mov	r1, #134217728
ARM GAS  /tmp/cc4JjNI1.s 			page 24


 537 0236 0EE0     		b	.L50
 538              	.L125:
 539 0238 4FF40001 		mov	r1, #8388608
 540 023c 0BE0     		b	.L50
 541              	.L124:
 542 023e 4FF40021 		mov	r1, #524288
 543 0242 08E0     		b	.L50
 544              	.L123:
 545 0244 4FF40041 		mov	r1, #32768
 546 0248 05E0     		b	.L50
 547              	.L122:
 548 024a 4FF40061 		mov	r1, #2048
 549 024e 02E0     		b	.L50
 550              	.L121:
 551 0250 8021     		movs	r1, #128
 552 0252 00E0     		b	.L50
 553              	.L120:
 554 0254 0821     		movs	r1, #8
 555              	.L50:
 265:./Drivers/STM32F1xx_HAL_Driver/Src/stm32f1xx_hal_dma.c ****   __HAL_DMA_CLEAR_FLAG(hdma, __HAL_DMA_GET_HT_FLAG_INDEX(hdma));
 556              		.loc 1 265 0 discriminator 90
 557 0256 284A     		ldr	r2, .L153+12
 558 0258 5160     		str	r1, [r2, #4]
 559              	.L49:
 266:./Drivers/STM32F1xx_HAL_Driver/Src/stm32f1xx_hal_dma.c ****   
 560              		.loc 1 266 0 is_stmt 1
 561 025a 1A68     		ldr	r2, [r3]
 562 025c 2349     		ldr	r1, .L153
 563 025e 8A42     		cmp	r2, r1
 564 0260 4CD9     		bls	.L61
 266:./Drivers/STM32F1xx_HAL_Driver/Src/stm32f1xx_hal_dma.c ****   
 565              		.loc 1 266 0 is_stmt 0 discriminator 1
 566 0262 7839     		subs	r1, r1, #120
 567 0264 8A42     		cmp	r2, r1
 568 0266 3CD0     		beq	.L131
 266:./Drivers/STM32F1xx_HAL_Driver/Src/stm32f1xx_hal_dma.c ****   
 569              		.loc 1 266 0 discriminator 3
 570 0268 1431     		adds	r1, r1, #20
 571 026a 8A42     		cmp	r2, r1
 572 026c 37D0     		beq	.L132
 266:./Drivers/STM32F1xx_HAL_Driver/Src/stm32f1xx_hal_dma.c ****   
 573              		.loc 1 266 0 discriminator 5
 574 026e 1431     		adds	r1, r1, #20
 575 0270 8A42     		cmp	r2, r1
 576 0272 31D0     		beq	.L133
 266:./Drivers/STM32F1xx_HAL_Driver/Src/stm32f1xx_hal_dma.c ****   
 577              		.loc 1 266 0 discriminator 7
 578 0274 1431     		adds	r1, r1, #20
 579 0276 8A42     		cmp	r2, r1
 580 0278 2BD0     		beq	.L134
 266:./Drivers/STM32F1xx_HAL_Driver/Src/stm32f1xx_hal_dma.c ****   
 581              		.loc 1 266 0 discriminator 9
 582 027a 1431     		adds	r1, r1, #20
 583 027c 8A42     		cmp	r2, r1
 584 027e 25D0     		beq	.L135
 266:./Drivers/STM32F1xx_HAL_Driver/Src/stm32f1xx_hal_dma.c ****   
 585              		.loc 1 266 0 discriminator 11
ARM GAS  /tmp/cc4JjNI1.s 			page 25


 586 0280 1431     		adds	r1, r1, #20
 587 0282 8A42     		cmp	r2, r1
 588 0284 1FD0     		beq	.L136
 266:./Drivers/STM32F1xx_HAL_Driver/Src/stm32f1xx_hal_dma.c ****   
 589              		.loc 1 266 0 discriminator 13
 590 0286 1431     		adds	r1, r1, #20
 591 0288 8A42     		cmp	r2, r1
 592 028a 19D0     		beq	.L137
 266:./Drivers/STM32F1xx_HAL_Driver/Src/stm32f1xx_hal_dma.c ****   
 593              		.loc 1 266 0 discriminator 15
 594 028c 01F56271 		add	r1, r1, #904
 595 0290 8A42     		cmp	r2, r1
 596 0292 13D0     		beq	.L138
 266:./Drivers/STM32F1xx_HAL_Driver/Src/stm32f1xx_hal_dma.c ****   
 597              		.loc 1 266 0 discriminator 17
 598 0294 1431     		adds	r1, r1, #20
 599 0296 8A42     		cmp	r2, r1
 600 0298 0ED0     		beq	.L139
 266:./Drivers/STM32F1xx_HAL_Driver/Src/stm32f1xx_hal_dma.c ****   
 601              		.loc 1 266 0 discriminator 19
 602 029a 1431     		adds	r1, r1, #20
 603 029c 8A42     		cmp	r2, r1
 604 029e 08D0     		beq	.L140
 266:./Drivers/STM32F1xx_HAL_Driver/Src/stm32f1xx_hal_dma.c ****   
 605              		.loc 1 266 0 discriminator 21
 606 02a0 1431     		adds	r1, r1, #20
 607 02a2 8A42     		cmp	r2, r1
 608 02a4 02D1     		bne	.L141
 266:./Drivers/STM32F1xx_HAL_Driver/Src/stm32f1xx_hal_dma.c ****   
 609              		.loc 1 266 0
 610 02a6 4FF48041 		mov	r1, #16384
 611 02aa 1BE0     		b	.L62
 612              	.L141:
 613 02ac 4FF48021 		mov	r1, #262144
 614 02b0 18E0     		b	.L62
 615              	.L140:
 616 02b2 4FF48061 		mov	r1, #1024
 617 02b6 15E0     		b	.L62
 618              	.L139:
 619 02b8 4021     		movs	r1, #64
 620 02ba 13E0     		b	.L62
 621              	.L138:
 622 02bc 0421     		movs	r1, #4
 623 02be 11E0     		b	.L62
 624              	.L137:
 625 02c0 4FF08061 		mov	r1, #67108864
 626 02c4 0EE0     		b	.L62
 627              	.L136:
 628 02c6 4FF48001 		mov	r1, #4194304
 629 02ca 0BE0     		b	.L62
 630              	.L135:
 631 02cc 4FF48021 		mov	r1, #262144
 632 02d0 08E0     		b	.L62
 633              	.L134:
 634 02d2 4FF48041 		mov	r1, #16384
 635 02d6 05E0     		b	.L62
 636              	.L133:
ARM GAS  /tmp/cc4JjNI1.s 			page 26


 637 02d8 4FF48061 		mov	r1, #1024
 638 02dc 02E0     		b	.L62
 639              	.L132:
 640 02de 4021     		movs	r1, #64
 641 02e0 00E0     		b	.L62
 642              	.L131:
 643 02e2 0421     		movs	r1, #4
 644              	.L62:
 266:./Drivers/STM32F1xx_HAL_Driver/Src/stm32f1xx_hal_dma.c ****   
 645              		.loc 1 266 0 discriminator 46
 646 02e4 024A     		ldr	r2, .L153+4
 647 02e6 5160     		str	r1, [r2, #4]
 648 02e8 4BE0     		b	.L73
 649              	.L154:
 650 02ea 00BF     		.align	2
 651              	.L153:
 652 02ec 80000240 		.word	1073873024
 653 02f0 00040240 		.word	1073873920
 654 02f4 08000240 		.word	1073872904
 655 02f8 00000240 		.word	1073872896
 656              	.L61:
 266:./Drivers/STM32F1xx_HAL_Driver/Src/stm32f1xx_hal_dma.c ****   
 657              		.loc 1 266 0 discriminator 2
 658 02fc 2649     		ldr	r1, .L155
 659 02fe 8A42     		cmp	r2, r1
 660 0300 3CD0     		beq	.L142
 266:./Drivers/STM32F1xx_HAL_Driver/Src/stm32f1xx_hal_dma.c ****   
 661              		.loc 1 266 0 discriminator 47
 662 0302 1431     		adds	r1, r1, #20
 663 0304 8A42     		cmp	r2, r1
 664 0306 37D0     		beq	.L143
 266:./Drivers/STM32F1xx_HAL_Driver/Src/stm32f1xx_hal_dma.c ****   
 665              		.loc 1 266 0 discriminator 49
 666 0308 1431     		adds	r1, r1, #20
 667 030a 8A42     		cmp	r2, r1
 668 030c 31D0     		beq	.L144
 266:./Drivers/STM32F1xx_HAL_Driver/Src/stm32f1xx_hal_dma.c ****   
 669              		.loc 1 266 0 discriminator 51
 670 030e 1431     		adds	r1, r1, #20
 671 0310 8A42     		cmp	r2, r1
 672 0312 2BD0     		beq	.L145
 266:./Drivers/STM32F1xx_HAL_Driver/Src/stm32f1xx_hal_dma.c ****   
 673              		.loc 1 266 0 discriminator 53
 674 0314 1431     		adds	r1, r1, #20
 675 0316 8A42     		cmp	r2, r1
 676 0318 25D0     		beq	.L146
 266:./Drivers/STM32F1xx_HAL_Driver/Src/stm32f1xx_hal_dma.c ****   
 677              		.loc 1 266 0 discriminator 55
 678 031a 1431     		adds	r1, r1, #20
 679 031c 8A42     		cmp	r2, r1
 680 031e 1FD0     		beq	.L147
 266:./Drivers/STM32F1xx_HAL_Driver/Src/stm32f1xx_hal_dma.c ****   
 681              		.loc 1 266 0 discriminator 57
 682 0320 1431     		adds	r1, r1, #20
 683 0322 8A42     		cmp	r2, r1
 684 0324 19D0     		beq	.L148
 266:./Drivers/STM32F1xx_HAL_Driver/Src/stm32f1xx_hal_dma.c ****   
ARM GAS  /tmp/cc4JjNI1.s 			page 27


 685              		.loc 1 266 0 discriminator 59
 686 0326 01F56271 		add	r1, r1, #904
 687 032a 8A42     		cmp	r2, r1
 688 032c 13D0     		beq	.L149
 266:./Drivers/STM32F1xx_HAL_Driver/Src/stm32f1xx_hal_dma.c ****   
 689              		.loc 1 266 0 discriminator 61
 690 032e 1431     		adds	r1, r1, #20
 691 0330 8A42     		cmp	r2, r1
 692 0332 0ED0     		beq	.L150
 266:./Drivers/STM32F1xx_HAL_Driver/Src/stm32f1xx_hal_dma.c ****   
 693              		.loc 1 266 0 discriminator 63
 694 0334 1431     		adds	r1, r1, #20
 695 0336 8A42     		cmp	r2, r1
 696 0338 08D0     		beq	.L151
 266:./Drivers/STM32F1xx_HAL_Driver/Src/stm32f1xx_hal_dma.c ****   
 697              		.loc 1 266 0 discriminator 65
 698 033a 1431     		adds	r1, r1, #20
 699 033c 8A42     		cmp	r2, r1
 700 033e 02D1     		bne	.L152
 266:./Drivers/STM32F1xx_HAL_Driver/Src/stm32f1xx_hal_dma.c ****   
 701              		.loc 1 266 0
 702 0340 4FF48041 		mov	r1, #16384
 703 0344 1BE0     		b	.L74
 704              	.L152:
 705 0346 4FF48021 		mov	r1, #262144
 706 034a 18E0     		b	.L74
 707              	.L151:
 708 034c 4FF48061 		mov	r1, #1024
 709 0350 15E0     		b	.L74
 710              	.L150:
 711 0352 4021     		movs	r1, #64
 712 0354 13E0     		b	.L74
 713              	.L149:
 714 0356 0421     		movs	r1, #4
 715 0358 11E0     		b	.L74
 716              	.L148:
 717 035a 4FF08061 		mov	r1, #67108864
 718 035e 0EE0     		b	.L74
 719              	.L147:
 720 0360 4FF48001 		mov	r1, #4194304
 721 0364 0BE0     		b	.L74
 722              	.L146:
 723 0366 4FF48021 		mov	r1, #262144
 724 036a 08E0     		b	.L74
 725              	.L145:
 726 036c 4FF48041 		mov	r1, #16384
 727 0370 05E0     		b	.L74
 728              	.L144:
 729 0372 4FF48061 		mov	r1, #1024
 730 0376 02E0     		b	.L74
 731              	.L143:
 732 0378 4021     		movs	r1, #64
 733 037a 00E0     		b	.L74
 734              	.L142:
 735 037c 0421     		movs	r1, #4
 736              	.L74:
 266:./Drivers/STM32F1xx_HAL_Driver/Src/stm32f1xx_hal_dma.c ****   
ARM GAS  /tmp/cc4JjNI1.s 			page 28


 737              		.loc 1 266 0 discriminator 90
 738 037e 074A     		ldr	r2, .L155+4
 739 0380 5160     		str	r1, [r2, #4]
 740              	.L73:
 269:./Drivers/STM32F1xx_HAL_Driver/Src/stm32f1xx_hal_dma.c **** 
 741              		.loc 1 269 0 is_stmt 1
 742 0382 0020     		movs	r0, #0
 743              	.LVL16:
 744 0384 5863     		str	r0, [r3, #52]
 272:./Drivers/STM32F1xx_HAL_Driver/Src/stm32f1xx_hal_dma.c **** 
 745              		.loc 1 272 0
 746 0386 83F82100 		strb	r0, [r3, #33]
 275:./Drivers/STM32F1xx_HAL_Driver/Src/stm32f1xx_hal_dma.c **** 
 747              		.loc 1 275 0
 748 038a 83F82000 		strb	r0, [r3, #32]
 277:./Drivers/STM32F1xx_HAL_Driver/Src/stm32f1xx_hal_dma.c **** }
 749              		.loc 1 277 0
 750 038e 7047     		bx	lr
 751              	.LVL17:
 752              	.L85:
 236:./Drivers/STM32F1xx_HAL_Driver/Src/stm32f1xx_hal_dma.c ****   }
 753              		.loc 1 236 0
 754 0390 0120     		movs	r0, #1
 755              	.LVL18:
 756 0392 7047     		bx	lr
 757              	.LVL19:
 758              	.L86:
 245:./Drivers/STM32F1xx_HAL_Driver/Src/stm32f1xx_hal_dma.c ****   }
 759              		.loc 1 245 0
 760 0394 0120     		movs	r0, #1
 761              	.LVL20:
 278:./Drivers/STM32F1xx_HAL_Driver/Src/stm32f1xx_hal_dma.c **** 
 762              		.loc 1 278 0
 763 0396 7047     		bx	lr
 764              	.L156:
 765              		.align	2
 766              	.L155:
 767 0398 08000240 		.word	1073872904
 768 039c 00000240 		.word	1073872896
 769              		.cfi_endproc
 770              	.LFE64:
 772              		.section	.text.HAL_DMA_Start,"ax",%progbits
 773              		.align	2
 774              		.global	HAL_DMA_Start
 775              		.thumb
 776              		.thumb_func
 778              	HAL_DMA_Start:
 779              	.LFB65:
 313:./Drivers/STM32F1xx_HAL_Driver/Src/stm32f1xx_hal_dma.c ****   /* Process locked */
 780              		.loc 1 313 0
 781              		.cfi_startproc
 782              		@ args = 0, pretend = 0, frame = 0
 783              		@ frame_needed = 0, uses_anonymous_args = 0
 784              	.LVL21:
 785 0000 38B5     		push	{r3, r4, r5, lr}
 786              	.LCFI6:
 787              		.cfi_def_cfa_offset 16
ARM GAS  /tmp/cc4JjNI1.s 			page 29


 788              		.cfi_offset 3, -16
 789              		.cfi_offset 4, -12
 790              		.cfi_offset 5, -8
 791              		.cfi_offset 14, -4
 315:./Drivers/STM32F1xx_HAL_Driver/Src/stm32f1xx_hal_dma.c **** 
 792              		.loc 1 315 0
 793 0002 90F82040 		ldrb	r4, [r0, #32]	@ zero_extendqisi2
 794 0006 012C     		cmp	r4, #1
 795 0008 15D0     		beq	.L159
 796 000a 0446     		mov	r4, r0
 315:./Drivers/STM32F1xx_HAL_Driver/Src/stm32f1xx_hal_dma.c **** 
 797              		.loc 1 315 0 is_stmt 0 discriminator 2
 798 000c 0120     		movs	r0, #1
 799              	.LVL22:
 800 000e 84F82000 		strb	r0, [r4, #32]
 318:./Drivers/STM32F1xx_HAL_Driver/Src/stm32f1xx_hal_dma.c **** 
 801              		.loc 1 318 0 is_stmt 1 discriminator 2
 802 0012 0220     		movs	r0, #2
 803 0014 84F82100 		strb	r0, [r4, #33]
 324:./Drivers/STM32F1xx_HAL_Driver/Src/stm32f1xx_hal_dma.c ****   
 804              		.loc 1 324 0 discriminator 2
 805 0018 2568     		ldr	r5, [r4]
 806 001a 2868     		ldr	r0, [r5]
 807 001c 20F00100 		bic	r0, r0, #1
 808 0020 2860     		str	r0, [r5]
 327:./Drivers/STM32F1xx_HAL_Driver/Src/stm32f1xx_hal_dma.c **** 
 809              		.loc 1 327 0 discriminator 2
 810 0022 2046     		mov	r0, r4
 811 0024 FFF7FEFF 		bl	DMA_SetConfig
 812              	.LVL23:
 330:./Drivers/STM32F1xx_HAL_Driver/Src/stm32f1xx_hal_dma.c **** 
 813              		.loc 1 330 0 discriminator 2
 814 0028 2268     		ldr	r2, [r4]
 815 002a 1368     		ldr	r3, [r2]
 816 002c 43F00103 		orr	r3, r3, #1
 817 0030 1360     		str	r3, [r2]
 332:./Drivers/STM32F1xx_HAL_Driver/Src/stm32f1xx_hal_dma.c **** }
 818              		.loc 1 332 0 discriminator 2
 819 0032 0020     		movs	r0, #0
 820 0034 38BD     		pop	{r3, r4, r5, pc}
 821              	.LVL24:
 822              	.L159:
 315:./Drivers/STM32F1xx_HAL_Driver/Src/stm32f1xx_hal_dma.c **** 
 823              		.loc 1 315 0
 824 0036 0220     		movs	r0, #2
 825              	.LVL25:
 333:./Drivers/STM32F1xx_HAL_Driver/Src/stm32f1xx_hal_dma.c **** 
 826              		.loc 1 333 0
 827 0038 38BD     		pop	{r3, r4, r5, pc}
 828              		.cfi_endproc
 829              	.LFE65:
 831              		.section	.text.HAL_DMA_Start_IT,"ax",%progbits
 832              		.align	2
 833              		.global	HAL_DMA_Start_IT
 834              		.thumb
 835              		.thumb_func
 837              	HAL_DMA_Start_IT:
ARM GAS  /tmp/cc4JjNI1.s 			page 30


 838              	.LFB66:
 345:./Drivers/STM32F1xx_HAL_Driver/Src/stm32f1xx_hal_dma.c ****   /* Process locked */
 839              		.loc 1 345 0
 840              		.cfi_startproc
 841              		@ args = 0, pretend = 0, frame = 0
 842              		@ frame_needed = 0, uses_anonymous_args = 0
 843              	.LVL26:
 844 0000 38B5     		push	{r3, r4, r5, lr}
 845              	.LCFI7:
 846              		.cfi_def_cfa_offset 16
 847              		.cfi_offset 3, -16
 848              		.cfi_offset 4, -12
 849              		.cfi_offset 5, -8
 850              		.cfi_offset 14, -4
 347:./Drivers/STM32F1xx_HAL_Driver/Src/stm32f1xx_hal_dma.c **** 
 851              		.loc 1 347 0
 852 0002 90F82040 		ldrb	r4, [r0, #32]	@ zero_extendqisi2
 853 0006 012C     		cmp	r4, #1
 854 0008 24D0     		beq	.L163
 855 000a 0446     		mov	r4, r0
 347:./Drivers/STM32F1xx_HAL_Driver/Src/stm32f1xx_hal_dma.c **** 
 856              		.loc 1 347 0 is_stmt 0 discriminator 2
 857 000c 0120     		movs	r0, #1
 858              	.LVL27:
 859 000e 84F82000 		strb	r0, [r4, #32]
 350:./Drivers/STM32F1xx_HAL_Driver/Src/stm32f1xx_hal_dma.c **** 
 860              		.loc 1 350 0 is_stmt 1 discriminator 2
 861 0012 0220     		movs	r0, #2
 862 0014 84F82100 		strb	r0, [r4, #33]
 356:./Drivers/STM32F1xx_HAL_Driver/Src/stm32f1xx_hal_dma.c ****   
 863              		.loc 1 356 0 discriminator 2
 864 0018 2568     		ldr	r5, [r4]
 865 001a 2868     		ldr	r0, [r5]
 866 001c 20F00100 		bic	r0, r0, #1
 867 0020 2860     		str	r0, [r5]
 359:./Drivers/STM32F1xx_HAL_Driver/Src/stm32f1xx_hal_dma.c ****   
 868              		.loc 1 359 0 discriminator 2
 869 0022 2046     		mov	r0, r4
 870 0024 FFF7FEFF 		bl	DMA_SetConfig
 871              	.LVL28:
 362:./Drivers/STM32F1xx_HAL_Driver/Src/stm32f1xx_hal_dma.c **** 
 872              		.loc 1 362 0 discriminator 2
 873 0028 2268     		ldr	r2, [r4]
 874 002a 1368     		ldr	r3, [r2]
 875 002c 43F00203 		orr	r3, r3, #2
 876 0030 1360     		str	r3, [r2]
 365:./Drivers/STM32F1xx_HAL_Driver/Src/stm32f1xx_hal_dma.c **** 
 877              		.loc 1 365 0 discriminator 2
 878 0032 2268     		ldr	r2, [r4]
 879 0034 1368     		ldr	r3, [r2]
 880 0036 43F00403 		orr	r3, r3, #4
 881 003a 1360     		str	r3, [r2]
 368:./Drivers/STM32F1xx_HAL_Driver/Src/stm32f1xx_hal_dma.c ****   
 882              		.loc 1 368 0 discriminator 2
 883 003c 2268     		ldr	r2, [r4]
 884 003e 1368     		ldr	r3, [r2]
 885 0040 43F00803 		orr	r3, r3, #8
ARM GAS  /tmp/cc4JjNI1.s 			page 31


 886 0044 1360     		str	r3, [r2]
 371:./Drivers/STM32F1xx_HAL_Driver/Src/stm32f1xx_hal_dma.c ****   
 887              		.loc 1 371 0 discriminator 2
 888 0046 2268     		ldr	r2, [r4]
 889 0048 1368     		ldr	r3, [r2]
 890 004a 43F00103 		orr	r3, r3, #1
 891 004e 1360     		str	r3, [r2]
 373:./Drivers/STM32F1xx_HAL_Driver/Src/stm32f1xx_hal_dma.c **** } 
 892              		.loc 1 373 0 discriminator 2
 893 0050 0020     		movs	r0, #0
 894 0052 38BD     		pop	{r3, r4, r5, pc}
 895              	.LVL29:
 896              	.L163:
 347:./Drivers/STM32F1xx_HAL_Driver/Src/stm32f1xx_hal_dma.c **** 
 897              		.loc 1 347 0
 898 0054 0220     		movs	r0, #2
 899              	.LVL30:
 374:./Drivers/STM32F1xx_HAL_Driver/Src/stm32f1xx_hal_dma.c **** 
 900              		.loc 1 374 0
 901 0056 38BD     		pop	{r3, r4, r5, pc}
 902              		.cfi_endproc
 903              	.LFE66:
 905              		.section	.text.HAL_DMA_Abort,"ax",%progbits
 906              		.align	2
 907              		.global	HAL_DMA_Abort
 908              		.thumb
 909              		.thumb_func
 911              	HAL_DMA_Abort:
 912              	.LFB67:
 389:./Drivers/STM32F1xx_HAL_Driver/Src/stm32f1xx_hal_dma.c ****   uint32_t tickstart = 0x00;
 913              		.loc 1 389 0
 914              		.cfi_startproc
 915              		@ args = 0, pretend = 0, frame = 0
 916              		@ frame_needed = 0, uses_anonymous_args = 0
 917              	.LVL31:
 918 0000 38B5     		push	{r3, r4, r5, lr}
 919              	.LCFI8:
 920              		.cfi_def_cfa_offset 16
 921              		.cfi_offset 3, -16
 922              		.cfi_offset 4, -12
 923              		.cfi_offset 5, -8
 924              		.cfi_offset 14, -4
 925 0002 0446     		mov	r4, r0
 926              	.LVL32:
 393:./Drivers/STM32F1xx_HAL_Driver/Src/stm32f1xx_hal_dma.c **** 
 927              		.loc 1 393 0
 928 0004 0268     		ldr	r2, [r0]
 929 0006 1368     		ldr	r3, [r2]
 930 0008 23F00103 		bic	r3, r3, #1
 931 000c 1360     		str	r3, [r2]
 396:./Drivers/STM32F1xx_HAL_Driver/Src/stm32f1xx_hal_dma.c ****   
 932              		.loc 1 396 0
 933 000e FFF7FEFF 		bl	HAL_GetTick
 934              	.LVL33:
 935 0012 0546     		mov	r5, r0
 936              	.LVL34:
 399:./Drivers/STM32F1xx_HAL_Driver/Src/stm32f1xx_hal_dma.c ****   {
ARM GAS  /tmp/cc4JjNI1.s 			page 32


 937              		.loc 1 399 0
 938 0014 10E0     		b	.L166
 939              	.LVL35:
 940              	.L168:
 402:./Drivers/STM32F1xx_HAL_Driver/Src/stm32f1xx_hal_dma.c ****     {
 941              		.loc 1 402 0
 942 0016 FFF7FEFF 		bl	HAL_GetTick
 943              	.LVL36:
 944 001a 401B     		subs	r0, r0, r5
 945 001c B0F57A7F 		cmp	r0, #1000
 946 0020 0AD9     		bls	.L166
 405:./Drivers/STM32F1xx_HAL_Driver/Src/stm32f1xx_hal_dma.c **** 
 947              		.loc 1 405 0
 948 0022 636B     		ldr	r3, [r4, #52]
 949 0024 43F02003 		orr	r3, r3, #32
 950 0028 6363     		str	r3, [r4, #52]
 408:./Drivers/STM32F1xx_HAL_Driver/Src/stm32f1xx_hal_dma.c **** 
 951              		.loc 1 408 0
 952 002a 0320     		movs	r0, #3
 953 002c 84F82100 		strb	r0, [r4, #33]
 411:./Drivers/STM32F1xx_HAL_Driver/Src/stm32f1xx_hal_dma.c **** 
 954              		.loc 1 411 0
 955 0030 0023     		movs	r3, #0
 956 0032 84F82030 		strb	r3, [r4, #32]
 413:./Drivers/STM32F1xx_HAL_Driver/Src/stm32f1xx_hal_dma.c ****     }
 957              		.loc 1 413 0
 958 0036 38BD     		pop	{r3, r4, r5, pc}
 959              	.LVL37:
 960              	.L166:
 399:./Drivers/STM32F1xx_HAL_Driver/Src/stm32f1xx_hal_dma.c ****   {
 961              		.loc 1 399 0
 962 0038 2368     		ldr	r3, [r4]
 963 003a 1B68     		ldr	r3, [r3]
 964 003c 13F0010F 		tst	r3, #1
 965 0040 E9D1     		bne	.L168
 417:./Drivers/STM32F1xx_HAL_Driver/Src/stm32f1xx_hal_dma.c ****   
 966              		.loc 1 417 0
 967 0042 0123     		movs	r3, #1
 968 0044 84F82130 		strb	r3, [r4, #33]
 420:./Drivers/STM32F1xx_HAL_Driver/Src/stm32f1xx_hal_dma.c ****   
 969              		.loc 1 420 0
 970 0048 0020     		movs	r0, #0
 971 004a 84F82000 		strb	r0, [r4, #32]
 423:./Drivers/STM32F1xx_HAL_Driver/Src/stm32f1xx_hal_dma.c **** 
 972              		.loc 1 423 0
 973 004e 38BD     		pop	{r3, r4, r5, pc}
 974              		.cfi_endproc
 975              	.LFE67:
 977              		.section	.text.HAL_DMA_PollForTransfer,"ax",%progbits
 978              		.align	2
 979              		.global	HAL_DMA_PollForTransfer
 980              		.thumb
 981              		.thumb_func
 983              	HAL_DMA_PollForTransfer:
 984              	.LFB68:
 434:./Drivers/STM32F1xx_HAL_Driver/Src/stm32f1xx_hal_dma.c ****   uint32_t temp;
 985              		.loc 1 434 0
ARM GAS  /tmp/cc4JjNI1.s 			page 33


 986              		.cfi_startproc
 987              		@ args = 0, pretend = 0, frame = 0
 988              		@ frame_needed = 0, uses_anonymous_args = 0
 989              	.LVL38:
 990 0000 2DE9F041 		push	{r4, r5, r6, r7, r8, lr}
 991              	.LCFI9:
 992              		.cfi_def_cfa_offset 24
 993              		.cfi_offset 4, -24
 994              		.cfi_offset 5, -20
 995              		.cfi_offset 6, -16
 996              		.cfi_offset 7, -12
 997              		.cfi_offset 8, -8
 998              		.cfi_offset 14, -4
 999 0004 0446     		mov	r4, r0
 1000 0006 1646     		mov	r6, r2
 1001              	.LVL39:
 439:./Drivers/STM32F1xx_HAL_Driver/Src/stm32f1xx_hal_dma.c ****   {
 1002              		.loc 1 439 0
 1003 0008 0F46     		mov	r7, r1
 1004 000a 0029     		cmp	r1, #0
 1005 000c 42D1     		bne	.L171
 442:./Drivers/STM32F1xx_HAL_Driver/Src/stm32f1xx_hal_dma.c ****   }
 1006              		.loc 1 442 0
 1007 000e 0368     		ldr	r3, [r0]
 1008 0010 B24A     		ldr	r2, .L412
 1009              	.LVL40:
 1010 0012 9342     		cmp	r3, r2
 1011 0014 3CD0     		beq	.L301
 442:./Drivers/STM32F1xx_HAL_Driver/Src/stm32f1xx_hal_dma.c ****   }
 1012              		.loc 1 442 0 is_stmt 0 discriminator 1
 1013 0016 1432     		adds	r2, r2, #20
 1014 0018 9342     		cmp	r3, r2
 1015 001a 37D0     		beq	.L302
 442:./Drivers/STM32F1xx_HAL_Driver/Src/stm32f1xx_hal_dma.c ****   }
 1016              		.loc 1 442 0 discriminator 3
 1017 001c 1432     		adds	r2, r2, #20
 1018 001e 9342     		cmp	r3, r2
 1019 0020 31D0     		beq	.L303
 442:./Drivers/STM32F1xx_HAL_Driver/Src/stm32f1xx_hal_dma.c ****   }
 1020              		.loc 1 442 0 discriminator 5
 1021 0022 1432     		adds	r2, r2, #20
 1022 0024 9342     		cmp	r3, r2
 1023 0026 2BD0     		beq	.L304
 442:./Drivers/STM32F1xx_HAL_Driver/Src/stm32f1xx_hal_dma.c ****   }
 1024              		.loc 1 442 0 discriminator 7
 1025 0028 1432     		adds	r2, r2, #20
 1026 002a 9342     		cmp	r3, r2
 1027 002c 25D0     		beq	.L305
 442:./Drivers/STM32F1xx_HAL_Driver/Src/stm32f1xx_hal_dma.c ****   }
 1028              		.loc 1 442 0 discriminator 9
 1029 002e 1432     		adds	r2, r2, #20
 1030 0030 9342     		cmp	r3, r2
 1031 0032 1FD0     		beq	.L306
 442:./Drivers/STM32F1xx_HAL_Driver/Src/stm32f1xx_hal_dma.c ****   }
 1032              		.loc 1 442 0 discriminator 11
 1033 0034 1432     		adds	r2, r2, #20
 1034 0036 9342     		cmp	r3, r2
ARM GAS  /tmp/cc4JjNI1.s 			page 34


 1035 0038 19D0     		beq	.L307
 442:./Drivers/STM32F1xx_HAL_Driver/Src/stm32f1xx_hal_dma.c ****   }
 1036              		.loc 1 442 0 discriminator 13
 1037 003a 02F56272 		add	r2, r2, #904
 1038 003e 9342     		cmp	r3, r2
 1039 0040 13D0     		beq	.L308
 442:./Drivers/STM32F1xx_HAL_Driver/Src/stm32f1xx_hal_dma.c ****   }
 1040              		.loc 1 442 0 discriminator 15
 1041 0042 1432     		adds	r2, r2, #20
 1042 0044 9342     		cmp	r3, r2
 1043 0046 0ED0     		beq	.L309
 442:./Drivers/STM32F1xx_HAL_Driver/Src/stm32f1xx_hal_dma.c ****   }
 1044              		.loc 1 442 0 discriminator 17
 1045 0048 1432     		adds	r2, r2, #20
 1046 004a 9342     		cmp	r3, r2
 1047 004c 08D0     		beq	.L310
 442:./Drivers/STM32F1xx_HAL_Driver/Src/stm32f1xx_hal_dma.c ****   }
 1048              		.loc 1 442 0 discriminator 19
 1049 004e 1432     		adds	r2, r2, #20
 1050 0050 9342     		cmp	r3, r2
 1051 0052 02D1     		bne	.L311
 442:./Drivers/STM32F1xx_HAL_Driver/Src/stm32f1xx_hal_dma.c ****   }
 1052              		.loc 1 442 0
 1053 0054 4FF40055 		mov	r5, #8192
 1054 0058 5EE0     		b	.L183
 1055              	.L311:
 1056 005a 4FF40035 		mov	r5, #131072
 1057 005e 5BE0     		b	.L183
 1058              	.L310:
 1059 0060 4FF40075 		mov	r5, #512
 1060 0064 58E0     		b	.L183
 1061              	.L309:
 1062 0066 2025     		movs	r5, #32
 1063 0068 56E0     		b	.L183
 1064              	.L308:
 1065 006a 0225     		movs	r5, #2
 1066 006c 54E0     		b	.L183
 1067              	.L307:
 1068 006e 4FF00075 		mov	r5, #33554432
 1069 0072 51E0     		b	.L183
 1070              	.L306:
 1071 0074 4FF40015 		mov	r5, #2097152
 1072 0078 4EE0     		b	.L183
 1073              	.L305:
 1074 007a 4FF40035 		mov	r5, #131072
 1075 007e 4BE0     		b	.L183
 1076              	.L304:
 1077 0080 4FF40055 		mov	r5, #8192
 1078 0084 48E0     		b	.L183
 1079              	.L303:
 1080 0086 4FF40075 		mov	r5, #512
 1081 008a 45E0     		b	.L183
 1082              	.L302:
 1083 008c 2025     		movs	r5, #32
 1084 008e 43E0     		b	.L183
 1085              	.L301:
 1086 0090 0225     		movs	r5, #2
ARM GAS  /tmp/cc4JjNI1.s 			page 35


 1087              	.LVL41:
 1088 0092 41E0     		b	.L183
 1089              	.LVL42:
 1090              	.L171:
 447:./Drivers/STM32F1xx_HAL_Driver/Src/stm32f1xx_hal_dma.c ****   }
 1091              		.loc 1 447 0 is_stmt 1
 1092 0094 0368     		ldr	r3, [r0]
 1093 0096 914A     		ldr	r2, .L412
 1094              	.LVL43:
 1095 0098 9342     		cmp	r3, r2
 1096 009a 3CD0     		beq	.L312
 447:./Drivers/STM32F1xx_HAL_Driver/Src/stm32f1xx_hal_dma.c ****   }
 1097              		.loc 1 447 0 is_stmt 0 discriminator 1
 1098 009c 1432     		adds	r2, r2, #20
 1099 009e 9342     		cmp	r3, r2
 1100 00a0 37D0     		beq	.L313
 447:./Drivers/STM32F1xx_HAL_Driver/Src/stm32f1xx_hal_dma.c ****   }
 1101              		.loc 1 447 0 discriminator 3
 1102 00a2 1432     		adds	r2, r2, #20
 1103 00a4 9342     		cmp	r3, r2
 1104 00a6 31D0     		beq	.L314
 447:./Drivers/STM32F1xx_HAL_Driver/Src/stm32f1xx_hal_dma.c ****   }
 1105              		.loc 1 447 0 discriminator 5
 1106 00a8 1432     		adds	r2, r2, #20
 1107 00aa 9342     		cmp	r3, r2
 1108 00ac 2BD0     		beq	.L315
 447:./Drivers/STM32F1xx_HAL_Driver/Src/stm32f1xx_hal_dma.c ****   }
 1109              		.loc 1 447 0 discriminator 7
 1110 00ae 1432     		adds	r2, r2, #20
 1111 00b0 9342     		cmp	r3, r2
 1112 00b2 25D0     		beq	.L316
 447:./Drivers/STM32F1xx_HAL_Driver/Src/stm32f1xx_hal_dma.c ****   }
 1113              		.loc 1 447 0 discriminator 9
 1114 00b4 1432     		adds	r2, r2, #20
 1115 00b6 9342     		cmp	r3, r2
 1116 00b8 1FD0     		beq	.L317
 447:./Drivers/STM32F1xx_HAL_Driver/Src/stm32f1xx_hal_dma.c ****   }
 1117              		.loc 1 447 0 discriminator 11
 1118 00ba 1432     		adds	r2, r2, #20
 1119 00bc 9342     		cmp	r3, r2
 1120 00be 19D0     		beq	.L318
 447:./Drivers/STM32F1xx_HAL_Driver/Src/stm32f1xx_hal_dma.c ****   }
 1121              		.loc 1 447 0 discriminator 13
 1122 00c0 02F56272 		add	r2, r2, #904
 1123 00c4 9342     		cmp	r3, r2
 1124 00c6 13D0     		beq	.L319
 447:./Drivers/STM32F1xx_HAL_Driver/Src/stm32f1xx_hal_dma.c ****   }
 1125              		.loc 1 447 0 discriminator 15
 1126 00c8 1432     		adds	r2, r2, #20
 1127 00ca 9342     		cmp	r3, r2
 1128 00cc 0ED0     		beq	.L320
 447:./Drivers/STM32F1xx_HAL_Driver/Src/stm32f1xx_hal_dma.c ****   }
 1129              		.loc 1 447 0 discriminator 17
 1130 00ce 1432     		adds	r2, r2, #20
 1131 00d0 9342     		cmp	r3, r2
 1132 00d2 08D0     		beq	.L321
 447:./Drivers/STM32F1xx_HAL_Driver/Src/stm32f1xx_hal_dma.c ****   }
ARM GAS  /tmp/cc4JjNI1.s 			page 36


 1133              		.loc 1 447 0 discriminator 19
 1134 00d4 1432     		adds	r2, r2, #20
 1135 00d6 9342     		cmp	r3, r2
 1136 00d8 02D1     		bne	.L322
 447:./Drivers/STM32F1xx_HAL_Driver/Src/stm32f1xx_hal_dma.c ****   }
 1137              		.loc 1 447 0
 1138 00da 4FF48045 		mov	r5, #16384
 1139 00de 1BE0     		b	.L183
 1140              	.L322:
 1141 00e0 4FF48025 		mov	r5, #262144
 1142 00e4 18E0     		b	.L183
 1143              	.L321:
 1144 00e6 4FF48065 		mov	r5, #1024
 1145 00ea 15E0     		b	.L183
 1146              	.L320:
 1147 00ec 4025     		movs	r5, #64
 1148 00ee 13E0     		b	.L183
 1149              	.L319:
 1150 00f0 0425     		movs	r5, #4
 1151 00f2 11E0     		b	.L183
 1152              	.L318:
 1153 00f4 4FF08065 		mov	r5, #67108864
 1154 00f8 0EE0     		b	.L183
 1155              	.L317:
 1156 00fa 4FF48005 		mov	r5, #4194304
 1157 00fe 0BE0     		b	.L183
 1158              	.L316:
 1159 0100 4FF48025 		mov	r5, #262144
 1160 0104 08E0     		b	.L183
 1161              	.L315:
 1162 0106 4FF48045 		mov	r5, #16384
 1163 010a 05E0     		b	.L183
 1164              	.L314:
 1165 010c 4FF48065 		mov	r5, #1024
 1166 0110 02E0     		b	.L183
 1167              	.L313:
 1168 0112 4025     		movs	r5, #64
 1169 0114 00E0     		b	.L183
 1170              	.L312:
 1171 0116 0425     		movs	r5, #4
 1172              	.LVL44:
 1173              	.L183:
 451:./Drivers/STM32F1xx_HAL_Driver/Src/stm32f1xx_hal_dma.c **** 
 1174              		.loc 1 451 0 is_stmt 1
 1175 0118 FFF7FEFF 		bl	HAL_GetTick
 1176              	.LVL45:
 1177 011c 8046     		mov	r8, r0
 1178              	.LVL46:
 453:./Drivers/STM32F1xx_HAL_Driver/Src/stm32f1xx_hal_dma.c ****   {
 1179              		.loc 1 453 0
 1180 011e 4BE1     		b	.L246
 1181              	.LVL47:
 1182              	.L250:
 455:./Drivers/STM32F1xx_HAL_Driver/Src/stm32f1xx_hal_dma.c ****     {      
 1183              		.loc 1 455 0
 1184 0120 6F4A     		ldr	r2, .L412+4
 1185 0122 9342     		cmp	r3, r2
ARM GAS  /tmp/cc4JjNI1.s 			page 37


 1186 0124 48D9     		bls	.L196
 455:./Drivers/STM32F1xx_HAL_Driver/Src/stm32f1xx_hal_dma.c ****     {      
 1187              		.loc 1 455 0 is_stmt 0 discriminator 1
 1188 0126 02F56072 		add	r2, r2, #896
 1189 012a 1268     		ldr	r2, [r2]
 1190 012c 6B49     		ldr	r1, .L412
 1191 012e 8B42     		cmp	r3, r1
 1192 0130 3CD0     		beq	.L323
 455:./Drivers/STM32F1xx_HAL_Driver/Src/stm32f1xx_hal_dma.c ****     {      
 1193              		.loc 1 455 0 discriminator 3
 1194 0132 1431     		adds	r1, r1, #20
 1195 0134 8B42     		cmp	r3, r1
 1196 0136 37D0     		beq	.L324
 455:./Drivers/STM32F1xx_HAL_Driver/Src/stm32f1xx_hal_dma.c ****     {      
 1197              		.loc 1 455 0 discriminator 5
 1198 0138 1431     		adds	r1, r1, #20
 1199 013a 8B42     		cmp	r3, r1
 1200 013c 31D0     		beq	.L325
 455:./Drivers/STM32F1xx_HAL_Driver/Src/stm32f1xx_hal_dma.c ****     {      
 1201              		.loc 1 455 0 discriminator 7
 1202 013e 1431     		adds	r1, r1, #20
 1203 0140 8B42     		cmp	r3, r1
 1204 0142 2BD0     		beq	.L326
 455:./Drivers/STM32F1xx_HAL_Driver/Src/stm32f1xx_hal_dma.c ****     {      
 1205              		.loc 1 455 0 discriminator 9
 1206 0144 1431     		adds	r1, r1, #20
 1207 0146 8B42     		cmp	r3, r1
 1208 0148 25D0     		beq	.L327
 455:./Drivers/STM32F1xx_HAL_Driver/Src/stm32f1xx_hal_dma.c ****     {      
 1209              		.loc 1 455 0 discriminator 11
 1210 014a 1431     		adds	r1, r1, #20
 1211 014c 8B42     		cmp	r3, r1
 1212 014e 1FD0     		beq	.L328
 455:./Drivers/STM32F1xx_HAL_Driver/Src/stm32f1xx_hal_dma.c ****     {      
 1213              		.loc 1 455 0 discriminator 13
 1214 0150 1431     		adds	r1, r1, #20
 1215 0152 8B42     		cmp	r3, r1
 1216 0154 19D0     		beq	.L329
 455:./Drivers/STM32F1xx_HAL_Driver/Src/stm32f1xx_hal_dma.c ****     {      
 1217              		.loc 1 455 0 discriminator 15
 1218 0156 01F56271 		add	r1, r1, #904
 1219 015a 8B42     		cmp	r3, r1
 1220 015c 13D0     		beq	.L330
 455:./Drivers/STM32F1xx_HAL_Driver/Src/stm32f1xx_hal_dma.c ****     {      
 1221              		.loc 1 455 0 discriminator 17
 1222 015e 1431     		adds	r1, r1, #20
 1223 0160 8B42     		cmp	r3, r1
 1224 0162 0ED0     		beq	.L331
 455:./Drivers/STM32F1xx_HAL_Driver/Src/stm32f1xx_hal_dma.c ****     {      
 1225              		.loc 1 455 0 discriminator 19
 1226 0164 1431     		adds	r1, r1, #20
 1227 0166 8B42     		cmp	r3, r1
 1228 0168 08D0     		beq	.L332
 455:./Drivers/STM32F1xx_HAL_Driver/Src/stm32f1xx_hal_dma.c ****     {      
 1229              		.loc 1 455 0 discriminator 21
 1230 016a 1431     		adds	r1, r1, #20
 1231 016c 8B42     		cmp	r3, r1
ARM GAS  /tmp/cc4JjNI1.s 			page 38


 1232 016e 02D1     		bne	.L333
 455:./Drivers/STM32F1xx_HAL_Driver/Src/stm32f1xx_hal_dma.c ****     {      
 1233              		.loc 1 455 0
 1234 0170 4FF40041 		mov	r1, #32768
 1235 0174 1BE0     		b	.L197
 1236              	.L333:
 1237 0176 4FF40021 		mov	r1, #524288
 1238 017a 18E0     		b	.L197
 1239              	.L332:
 1240 017c 4FF40061 		mov	r1, #2048
 1241 0180 15E0     		b	.L197
 1242              	.L331:
 1243 0182 8021     		movs	r1, #128
 1244 0184 13E0     		b	.L197
 1245              	.L330:
 1246 0186 0821     		movs	r1, #8
 1247 0188 11E0     		b	.L197
 1248              	.L329:
 1249 018a 4FF00061 		mov	r1, #134217728
 1250 018e 0EE0     		b	.L197
 1251              	.L328:
 1252 0190 4FF40001 		mov	r1, #8388608
 1253 0194 0BE0     		b	.L197
 1254              	.L327:
 1255 0196 4FF40021 		mov	r1, #524288
 1256 019a 08E0     		b	.L197
 1257              	.L326:
 1258 019c 4FF40041 		mov	r1, #32768
 1259 01a0 05E0     		b	.L197
 1260              	.L325:
 1261 01a2 4FF40061 		mov	r1, #2048
 1262 01a6 02E0     		b	.L197
 1263              	.L324:
 1264 01a8 8021     		movs	r1, #128
 1265 01aa 00E0     		b	.L197
 1266              	.L323:
 1267 01ac 0821     		movs	r1, #8
 1268              	.L197:
 455:./Drivers/STM32F1xx_HAL_Driver/Src/stm32f1xx_hal_dma.c ****     {      
 1269              		.loc 1 455 0 discriminator 46
 1270 01ae 0A42     		tst	r2, r1
 1271 01b0 14BF     		ite	ne
 1272 01b2 0122     		movne	r2, #1
 1273 01b4 0022     		moveq	r2, #0
 1274 01b6 46E0     		b	.L208
 1275              	.L196:
 455:./Drivers/STM32F1xx_HAL_Driver/Src/stm32f1xx_hal_dma.c ****     {      
 1276              		.loc 1 455 0 discriminator 2
 1277 01b8 4A4A     		ldr	r2, .L412+8
 1278 01ba 1268     		ldr	r2, [r2]
 1279 01bc 4749     		ldr	r1, .L412
 1280 01be 8B42     		cmp	r3, r1
 1281 01c0 3CD0     		beq	.L334
 455:./Drivers/STM32F1xx_HAL_Driver/Src/stm32f1xx_hal_dma.c ****     {      
 1282              		.loc 1 455 0 discriminator 48
 1283 01c2 1431     		adds	r1, r1, #20
 1284 01c4 8B42     		cmp	r3, r1
ARM GAS  /tmp/cc4JjNI1.s 			page 39


 1285 01c6 37D0     		beq	.L335
 455:./Drivers/STM32F1xx_HAL_Driver/Src/stm32f1xx_hal_dma.c ****     {      
 1286              		.loc 1 455 0 discriminator 50
 1287 01c8 1431     		adds	r1, r1, #20
 1288 01ca 8B42     		cmp	r3, r1
 1289 01cc 31D0     		beq	.L336
 455:./Drivers/STM32F1xx_HAL_Driver/Src/stm32f1xx_hal_dma.c ****     {      
 1290              		.loc 1 455 0 discriminator 52
 1291 01ce 1431     		adds	r1, r1, #20
 1292 01d0 8B42     		cmp	r3, r1
 1293 01d2 2BD0     		beq	.L337
 455:./Drivers/STM32F1xx_HAL_Driver/Src/stm32f1xx_hal_dma.c ****     {      
 1294              		.loc 1 455 0 discriminator 54
 1295 01d4 1431     		adds	r1, r1, #20
 1296 01d6 8B42     		cmp	r3, r1
 1297 01d8 25D0     		beq	.L338
 455:./Drivers/STM32F1xx_HAL_Driver/Src/stm32f1xx_hal_dma.c ****     {      
 1298              		.loc 1 455 0 discriminator 56
 1299 01da 1431     		adds	r1, r1, #20
 1300 01dc 8B42     		cmp	r3, r1
 1301 01de 1FD0     		beq	.L339
 455:./Drivers/STM32F1xx_HAL_Driver/Src/stm32f1xx_hal_dma.c ****     {      
 1302              		.loc 1 455 0 discriminator 58
 1303 01e0 1431     		adds	r1, r1, #20
 1304 01e2 8B42     		cmp	r3, r1
 1305 01e4 19D0     		beq	.L340
 455:./Drivers/STM32F1xx_HAL_Driver/Src/stm32f1xx_hal_dma.c ****     {      
 1306              		.loc 1 455 0 discriminator 60
 1307 01e6 01F56271 		add	r1, r1, #904
 1308 01ea 8B42     		cmp	r3, r1
 1309 01ec 13D0     		beq	.L341
 455:./Drivers/STM32F1xx_HAL_Driver/Src/stm32f1xx_hal_dma.c ****     {      
 1310              		.loc 1 455 0 discriminator 62
 1311 01ee 1431     		adds	r1, r1, #20
 1312 01f0 8B42     		cmp	r3, r1
 1313 01f2 0ED0     		beq	.L342
 455:./Drivers/STM32F1xx_HAL_Driver/Src/stm32f1xx_hal_dma.c ****     {      
 1314              		.loc 1 455 0 discriminator 64
 1315 01f4 1431     		adds	r1, r1, #20
 1316 01f6 8B42     		cmp	r3, r1
 1317 01f8 08D0     		beq	.L343
 455:./Drivers/STM32F1xx_HAL_Driver/Src/stm32f1xx_hal_dma.c ****     {      
 1318              		.loc 1 455 0 discriminator 66
 1319 01fa 1431     		adds	r1, r1, #20
 1320 01fc 8B42     		cmp	r3, r1
 1321 01fe 02D1     		bne	.L344
 455:./Drivers/STM32F1xx_HAL_Driver/Src/stm32f1xx_hal_dma.c ****     {      
 1322              		.loc 1 455 0
 1323 0200 4FF40041 		mov	r1, #32768
 1324 0204 1BE0     		b	.L209
 1325              	.L344:
 1326 0206 4FF40021 		mov	r1, #524288
 1327 020a 18E0     		b	.L209
 1328              	.L343:
 1329 020c 4FF40061 		mov	r1, #2048
 1330 0210 15E0     		b	.L209
 1331              	.L342:
ARM GAS  /tmp/cc4JjNI1.s 			page 40


 1332 0212 8021     		movs	r1, #128
 1333 0214 13E0     		b	.L209
 1334              	.L341:
 1335 0216 0821     		movs	r1, #8
 1336 0218 11E0     		b	.L209
 1337              	.L340:
 1338 021a 4FF00061 		mov	r1, #134217728
 1339 021e 0EE0     		b	.L209
 1340              	.L339:
 1341 0220 4FF40001 		mov	r1, #8388608
 1342 0224 0BE0     		b	.L209
 1343              	.L338:
 1344 0226 4FF40021 		mov	r1, #524288
 1345 022a 08E0     		b	.L209
 1346              	.L337:
 1347 022c 4FF40041 		mov	r1, #32768
 1348 0230 05E0     		b	.L209
 1349              	.L336:
 1350 0232 4FF40061 		mov	r1, #2048
 1351 0236 02E0     		b	.L209
 1352              	.L335:
 1353 0238 8021     		movs	r1, #128
 1354 023a 00E0     		b	.L209
 1355              	.L334:
 1356 023c 0821     		movs	r1, #8
 1357              	.L209:
 455:./Drivers/STM32F1xx_HAL_Driver/Src/stm32f1xx_hal_dma.c ****     {      
 1358              		.loc 1 455 0 discriminator 91
 1359 023e 0A42     		tst	r2, r1
 1360 0240 14BF     		ite	ne
 1361 0242 0122     		movne	r2, #1
 1362 0244 0022     		moveq	r2, #0
 1363              	.L208:
 455:./Drivers/STM32F1xx_HAL_Driver/Src/stm32f1xx_hal_dma.c ****     {      
 1364              		.loc 1 455 0 discriminator 92
 1365 0246 002A     		cmp	r2, #0
 1366 0248 00F0A080 		beq	.L220
 458:./Drivers/STM32F1xx_HAL_Driver/Src/stm32f1xx_hal_dma.c ****       
 1367              		.loc 1 458 0 is_stmt 1
 1368 024c 244A     		ldr	r2, .L412+4
 1369 024e 9342     		cmp	r3, r2
 1370 0250 4CD9     		bls	.L221
 458:./Drivers/STM32F1xx_HAL_Driver/Src/stm32f1xx_hal_dma.c ****       
 1371              		.loc 1 458 0 is_stmt 0 discriminator 1
 1372 0252 783A     		subs	r2, r2, #120
 1373 0254 9342     		cmp	r3, r2
 1374 0256 3CD0     		beq	.L345
 458:./Drivers/STM32F1xx_HAL_Driver/Src/stm32f1xx_hal_dma.c ****       
 1375              		.loc 1 458 0 discriminator 3
 1376 0258 1432     		adds	r2, r2, #20
 1377 025a 9342     		cmp	r3, r2
 1378 025c 37D0     		beq	.L346
 458:./Drivers/STM32F1xx_HAL_Driver/Src/stm32f1xx_hal_dma.c ****       
 1379              		.loc 1 458 0 discriminator 5
 1380 025e 1432     		adds	r2, r2, #20
 1381 0260 9342     		cmp	r3, r2
 1382 0262 31D0     		beq	.L347
ARM GAS  /tmp/cc4JjNI1.s 			page 41


 458:./Drivers/STM32F1xx_HAL_Driver/Src/stm32f1xx_hal_dma.c ****       
 1383              		.loc 1 458 0 discriminator 7
 1384 0264 1432     		adds	r2, r2, #20
 1385 0266 9342     		cmp	r3, r2
 1386 0268 2BD0     		beq	.L348
 458:./Drivers/STM32F1xx_HAL_Driver/Src/stm32f1xx_hal_dma.c ****       
 1387              		.loc 1 458 0 discriminator 9
 1388 026a 1432     		adds	r2, r2, #20
 1389 026c 9342     		cmp	r3, r2
 1390 026e 25D0     		beq	.L349
 458:./Drivers/STM32F1xx_HAL_Driver/Src/stm32f1xx_hal_dma.c ****       
 1391              		.loc 1 458 0 discriminator 11
 1392 0270 1432     		adds	r2, r2, #20
 1393 0272 9342     		cmp	r3, r2
 1394 0274 1FD0     		beq	.L350
 458:./Drivers/STM32F1xx_HAL_Driver/Src/stm32f1xx_hal_dma.c ****       
 1395              		.loc 1 458 0 discriminator 13
 1396 0276 1432     		adds	r2, r2, #20
 1397 0278 9342     		cmp	r3, r2
 1398 027a 19D0     		beq	.L351
 458:./Drivers/STM32F1xx_HAL_Driver/Src/stm32f1xx_hal_dma.c ****       
 1399              		.loc 1 458 0 discriminator 15
 1400 027c 02F56272 		add	r2, r2, #904
 1401 0280 9342     		cmp	r3, r2
 1402 0282 13D0     		beq	.L352
 458:./Drivers/STM32F1xx_HAL_Driver/Src/stm32f1xx_hal_dma.c ****       
 1403              		.loc 1 458 0 discriminator 17
 1404 0284 1432     		adds	r2, r2, #20
 1405 0286 9342     		cmp	r3, r2
 1406 0288 0ED0     		beq	.L353
 458:./Drivers/STM32F1xx_HAL_Driver/Src/stm32f1xx_hal_dma.c ****       
 1407              		.loc 1 458 0 discriminator 19
 1408 028a 1432     		adds	r2, r2, #20
 1409 028c 9342     		cmp	r3, r2
 1410 028e 08D0     		beq	.L354
 458:./Drivers/STM32F1xx_HAL_Driver/Src/stm32f1xx_hal_dma.c ****       
 1411              		.loc 1 458 0 discriminator 21
 1412 0290 1432     		adds	r2, r2, #20
 1413 0292 9342     		cmp	r3, r2
 1414 0294 02D1     		bne	.L355
 458:./Drivers/STM32F1xx_HAL_Driver/Src/stm32f1xx_hal_dma.c ****       
 1415              		.loc 1 458 0
 1416 0296 4FF40043 		mov	r3, #32768
 1417 029a 1BE0     		b	.L222
 1418              	.L355:
 1419 029c 4FF40023 		mov	r3, #524288
 1420 02a0 18E0     		b	.L222
 1421              	.L354:
 1422 02a2 4FF40063 		mov	r3, #2048
 1423 02a6 15E0     		b	.L222
 1424              	.L353:
 1425 02a8 8023     		movs	r3, #128
 1426 02aa 13E0     		b	.L222
 1427              	.L352:
 1428 02ac 0823     		movs	r3, #8
 1429 02ae 11E0     		b	.L222
 1430              	.L351:
ARM GAS  /tmp/cc4JjNI1.s 			page 42


 1431 02b0 4FF00063 		mov	r3, #134217728
 1432 02b4 0EE0     		b	.L222
 1433              	.L350:
 1434 02b6 4FF40003 		mov	r3, #8388608
 1435 02ba 0BE0     		b	.L222
 1436              	.L349:
 1437 02bc 4FF40023 		mov	r3, #524288
 1438 02c0 08E0     		b	.L222
 1439              	.L348:
 1440 02c2 4FF40043 		mov	r3, #32768
 1441 02c6 05E0     		b	.L222
 1442              	.L347:
 1443 02c8 4FF40063 		mov	r3, #2048
 1444 02cc 02E0     		b	.L222
 1445              	.L346:
 1446 02ce 8023     		movs	r3, #128
 1447 02d0 00E0     		b	.L222
 1448              	.L345:
 1449 02d2 0823     		movs	r3, #8
 1450              	.L222:
 458:./Drivers/STM32F1xx_HAL_Driver/Src/stm32f1xx_hal_dma.c ****       
 1451              		.loc 1 458 0 discriminator 46
 1452 02d4 044A     		ldr	r2, .L412+12
 1453 02d6 5360     		str	r3, [r2, #4]
 1454 02d8 4BE0     		b	.L233
 1455              	.L413:
 1456 02da 00BF     		.align	2
 1457              	.L412:
 1458 02dc 08000240 		.word	1073872904
 1459 02e0 80000240 		.word	1073873024
 1460 02e4 00000240 		.word	1073872896
 1461 02e8 00040240 		.word	1073873920
 1462              	.L221:
 458:./Drivers/STM32F1xx_HAL_Driver/Src/stm32f1xx_hal_dma.c ****       
 1463              		.loc 1 458 0 discriminator 2
 1464 02ec A94A     		ldr	r2, .L414
 1465 02ee 9342     		cmp	r3, r2
 1466 02f0 3CD0     		beq	.L356
 458:./Drivers/STM32F1xx_HAL_Driver/Src/stm32f1xx_hal_dma.c ****       
 1467              		.loc 1 458 0 discriminator 47
 1468 02f2 1432     		adds	r2, r2, #20
 1469 02f4 9342     		cmp	r3, r2
 1470 02f6 37D0     		beq	.L357
 458:./Drivers/STM32F1xx_HAL_Driver/Src/stm32f1xx_hal_dma.c ****       
 1471              		.loc 1 458 0 discriminator 49
 1472 02f8 1432     		adds	r2, r2, #20
 1473 02fa 9342     		cmp	r3, r2
 1474 02fc 31D0     		beq	.L358
 458:./Drivers/STM32F1xx_HAL_Driver/Src/stm32f1xx_hal_dma.c ****       
 1475              		.loc 1 458 0 discriminator 51
 1476 02fe 1432     		adds	r2, r2, #20
 1477 0300 9342     		cmp	r3, r2
 1478 0302 2BD0     		beq	.L359
 458:./Drivers/STM32F1xx_HAL_Driver/Src/stm32f1xx_hal_dma.c ****       
 1479              		.loc 1 458 0 discriminator 53
 1480 0304 1432     		adds	r2, r2, #20
 1481 0306 9342     		cmp	r3, r2
ARM GAS  /tmp/cc4JjNI1.s 			page 43


 1482 0308 25D0     		beq	.L360
 458:./Drivers/STM32F1xx_HAL_Driver/Src/stm32f1xx_hal_dma.c ****       
 1483              		.loc 1 458 0 discriminator 55
 1484 030a 1432     		adds	r2, r2, #20
 1485 030c 9342     		cmp	r3, r2
 1486 030e 1FD0     		beq	.L361
 458:./Drivers/STM32F1xx_HAL_Driver/Src/stm32f1xx_hal_dma.c ****       
 1487              		.loc 1 458 0 discriminator 57
 1488 0310 1432     		adds	r2, r2, #20
 1489 0312 9342     		cmp	r3, r2
 1490 0314 19D0     		beq	.L362
 458:./Drivers/STM32F1xx_HAL_Driver/Src/stm32f1xx_hal_dma.c ****       
 1491              		.loc 1 458 0 discriminator 59
 1492 0316 02F56272 		add	r2, r2, #904
 1493 031a 9342     		cmp	r3, r2
 1494 031c 13D0     		beq	.L363
 458:./Drivers/STM32F1xx_HAL_Driver/Src/stm32f1xx_hal_dma.c ****       
 1495              		.loc 1 458 0 discriminator 61
 1496 031e 1432     		adds	r2, r2, #20
 1497 0320 9342     		cmp	r3, r2
 1498 0322 0ED0     		beq	.L364
 458:./Drivers/STM32F1xx_HAL_Driver/Src/stm32f1xx_hal_dma.c ****       
 1499              		.loc 1 458 0 discriminator 63
 1500 0324 1432     		adds	r2, r2, #20
 1501 0326 9342     		cmp	r3, r2
 1502 0328 08D0     		beq	.L365
 458:./Drivers/STM32F1xx_HAL_Driver/Src/stm32f1xx_hal_dma.c ****       
 1503              		.loc 1 458 0 discriminator 65
 1504 032a 1432     		adds	r2, r2, #20
 1505 032c 9342     		cmp	r3, r2
 1506 032e 02D1     		bne	.L366
 458:./Drivers/STM32F1xx_HAL_Driver/Src/stm32f1xx_hal_dma.c ****       
 1507              		.loc 1 458 0
 1508 0330 4FF40043 		mov	r3, #32768
 1509 0334 1BE0     		b	.L234
 1510              	.L366:
 1511 0336 4FF40023 		mov	r3, #524288
 1512 033a 18E0     		b	.L234
 1513              	.L365:
 1514 033c 4FF40063 		mov	r3, #2048
 1515 0340 15E0     		b	.L234
 1516              	.L364:
 1517 0342 8023     		movs	r3, #128
 1518 0344 13E0     		b	.L234
 1519              	.L363:
 1520 0346 0823     		movs	r3, #8
 1521 0348 11E0     		b	.L234
 1522              	.L362:
 1523 034a 4FF00063 		mov	r3, #134217728
 1524 034e 0EE0     		b	.L234
 1525              	.L361:
 1526 0350 4FF40003 		mov	r3, #8388608
 1527 0354 0BE0     		b	.L234
 1528              	.L360:
 1529 0356 4FF40023 		mov	r3, #524288
 1530 035a 08E0     		b	.L234
 1531              	.L359:
ARM GAS  /tmp/cc4JjNI1.s 			page 44


 1532 035c 4FF40043 		mov	r3, #32768
 1533 0360 05E0     		b	.L234
 1534              	.L358:
 1535 0362 4FF40063 		mov	r3, #2048
 1536 0366 02E0     		b	.L234
 1537              	.L357:
 1538 0368 8023     		movs	r3, #128
 1539 036a 00E0     		b	.L234
 1540              	.L356:
 1541 036c 0823     		movs	r3, #8
 1542              	.L234:
 458:./Drivers/STM32F1xx_HAL_Driver/Src/stm32f1xx_hal_dma.c ****       
 1543              		.loc 1 458 0 discriminator 90
 1544 036e 8A4A     		ldr	r2, .L414+4
 1545 0370 5360     		str	r3, [r2, #4]
 1546              	.L233:
 461:./Drivers/STM32F1xx_HAL_Driver/Src/stm32f1xx_hal_dma.c **** 
 1547              		.loc 1 461 0 is_stmt 1
 1548 0372 636B     		ldr	r3, [r4, #52]
 1549 0374 43F00103 		orr	r3, r3, #1
 1550 0378 6363     		str	r3, [r4, #52]
 464:./Drivers/STM32F1xx_HAL_Driver/Src/stm32f1xx_hal_dma.c ****       
 1551              		.loc 1 464 0
 1552 037a 0423     		movs	r3, #4
 1553 037c 84F82130 		strb	r3, [r4, #33]
 467:./Drivers/STM32F1xx_HAL_Driver/Src/stm32f1xx_hal_dma.c ****       
 1554              		.loc 1 467 0
 1555 0380 0023     		movs	r3, #0
 1556 0382 84F82030 		strb	r3, [r4, #32]
 469:./Drivers/STM32F1xx_HAL_Driver/Src/stm32f1xx_hal_dma.c ****     }
 1557              		.loc 1 469 0
 1558 0386 0120     		movs	r0, #1
 1559 0388 BDE8F081 		pop	{r4, r5, r6, r7, r8, pc}
 1560              	.LVL48:
 1561              	.L220:
 472:./Drivers/STM32F1xx_HAL_Driver/Src/stm32f1xx_hal_dma.c ****     {
 1562              		.loc 1 472 0
 1563 038c B6F1FF3F 		cmp	r6, #-1
 1564 0390 12D0     		beq	.L246
 474:./Drivers/STM32F1xx_HAL_Driver/Src/stm32f1xx_hal_dma.c ****       {
 1565              		.loc 1 474 0
 1566 0392 2EB1     		cbz	r6, .L247
 474:./Drivers/STM32F1xx_HAL_Driver/Src/stm32f1xx_hal_dma.c ****       {
 1567              		.loc 1 474 0 is_stmt 0 discriminator 1
 1568 0394 FFF7FEFF 		bl	HAL_GetTick
 1569              	.LVL49:
 1570 0398 C8EB0000 		rsb	r0, r8, r0
 1571 039c B042     		cmp	r0, r6
 1572 039e 0BD9     		bls	.L246
 1573              	.L247:
 477:./Drivers/STM32F1xx_HAL_Driver/Src/stm32f1xx_hal_dma.c ****         
 1574              		.loc 1 477 0 is_stmt 1
 1575 03a0 636B     		ldr	r3, [r4, #52]
 1576 03a2 43F02003 		orr	r3, r3, #32
 1577 03a6 6363     		str	r3, [r4, #52]
 480:./Drivers/STM32F1xx_HAL_Driver/Src/stm32f1xx_hal_dma.c **** 
 1578              		.loc 1 480 0
ARM GAS  /tmp/cc4JjNI1.s 			page 45


 1579 03a8 0320     		movs	r0, #3
 1580 03aa 84F82100 		strb	r0, [r4, #33]
 483:./Drivers/STM32F1xx_HAL_Driver/Src/stm32f1xx_hal_dma.c ****         
 1581              		.loc 1 483 0
 1582 03ae 0023     		movs	r3, #0
 1583 03b0 84F82030 		strb	r3, [r4, #32]
 485:./Drivers/STM32F1xx_HAL_Driver/Src/stm32f1xx_hal_dma.c ****       }
 1584              		.loc 1 485 0
 1585 03b4 BDE8F081 		pop	{r4, r5, r6, r7, r8, pc}
 1586              	.LVL50:
 1587              	.L246:
 453:./Drivers/STM32F1xx_HAL_Driver/Src/stm32f1xx_hal_dma.c ****   {
 1588              		.loc 1 453 0
 1589 03b8 2368     		ldr	r3, [r4]
 1590 03ba 784A     		ldr	r2, .L414+8
 1591 03bc 9342     		cmp	r3, r2
 1592 03be 07D9     		bls	.L248
 453:./Drivers/STM32F1xx_HAL_Driver/Src/stm32f1xx_hal_dma.c ****   {
 1593              		.loc 1 453 0 is_stmt 0 discriminator 1
 1594 03c0 02F56072 		add	r2, r2, #896
 1595 03c4 1268     		ldr	r2, [r2]
 1596 03c6 2A42     		tst	r2, r5
 1597 03c8 0CBF     		ite	eq
 1598 03ca 0122     		moveq	r2, #1
 1599 03cc 0022     		movne	r2, #0
 1600 03ce 05E0     		b	.L249
 1601              	.L248:
 453:./Drivers/STM32F1xx_HAL_Driver/Src/stm32f1xx_hal_dma.c ****   {
 1602              		.loc 1 453 0 discriminator 2
 1603 03d0 714A     		ldr	r2, .L414+4
 1604 03d2 1268     		ldr	r2, [r2]
 1605 03d4 2A42     		tst	r2, r5
 1606 03d6 0CBF     		ite	eq
 1607 03d8 0122     		moveq	r2, #1
 1608 03da 0022     		movne	r2, #0
 1609              	.L249:
 453:./Drivers/STM32F1xx_HAL_Driver/Src/stm32f1xx_hal_dma.c ****   {
 1610              		.loc 1 453 0 discriminator 4
 1611 03dc 002A     		cmp	r2, #0
 1612 03de 7FF49FAE 		bne	.L250
 490:./Drivers/STM32F1xx_HAL_Driver/Src/stm32f1xx_hal_dma.c ****   {
 1613              		.loc 1 490 0 is_stmt 1
 1614 03e2 002F     		cmp	r7, #0
 1615 03e4 40F08E80 		bne	.L251
 493:./Drivers/STM32F1xx_HAL_Driver/Src/stm32f1xx_hal_dma.c **** 
 1616              		.loc 1 493 0
 1617 03e8 6C4A     		ldr	r2, .L414+8
 1618 03ea 9342     		cmp	r3, r2
 1619 03ec 43D9     		bls	.L252
 493:./Drivers/STM32F1xx_HAL_Driver/Src/stm32f1xx_hal_dma.c **** 
 1620              		.loc 1 493 0 is_stmt 0 discriminator 1
 1621 03ee 783A     		subs	r2, r2, #120
 1622 03f0 9342     		cmp	r3, r2
 1623 03f2 3CD0     		beq	.L367
 493:./Drivers/STM32F1xx_HAL_Driver/Src/stm32f1xx_hal_dma.c **** 
 1624              		.loc 1 493 0 discriminator 3
 1625 03f4 1432     		adds	r2, r2, #20
ARM GAS  /tmp/cc4JjNI1.s 			page 46


 1626 03f6 9342     		cmp	r3, r2
 1627 03f8 37D0     		beq	.L368
 493:./Drivers/STM32F1xx_HAL_Driver/Src/stm32f1xx_hal_dma.c **** 
 1628              		.loc 1 493 0 discriminator 5
 1629 03fa 1432     		adds	r2, r2, #20
 1630 03fc 9342     		cmp	r3, r2
 1631 03fe 31D0     		beq	.L369
 493:./Drivers/STM32F1xx_HAL_Driver/Src/stm32f1xx_hal_dma.c **** 
 1632              		.loc 1 493 0 discriminator 7
 1633 0400 1432     		adds	r2, r2, #20
 1634 0402 9342     		cmp	r3, r2
 1635 0404 2BD0     		beq	.L370
 493:./Drivers/STM32F1xx_HAL_Driver/Src/stm32f1xx_hal_dma.c **** 
 1636              		.loc 1 493 0 discriminator 9
 1637 0406 1432     		adds	r2, r2, #20
 1638 0408 9342     		cmp	r3, r2
 1639 040a 25D0     		beq	.L371
 493:./Drivers/STM32F1xx_HAL_Driver/Src/stm32f1xx_hal_dma.c **** 
 1640              		.loc 1 493 0 discriminator 11
 1641 040c 1432     		adds	r2, r2, #20
 1642 040e 9342     		cmp	r3, r2
 1643 0410 1FD0     		beq	.L372
 493:./Drivers/STM32F1xx_HAL_Driver/Src/stm32f1xx_hal_dma.c **** 
 1644              		.loc 1 493 0 discriminator 13
 1645 0412 1432     		adds	r2, r2, #20
 1646 0414 9342     		cmp	r3, r2
 1647 0416 19D0     		beq	.L373
 493:./Drivers/STM32F1xx_HAL_Driver/Src/stm32f1xx_hal_dma.c **** 
 1648              		.loc 1 493 0 discriminator 15
 1649 0418 02F56272 		add	r2, r2, #904
 1650 041c 9342     		cmp	r3, r2
 1651 041e 13D0     		beq	.L374
 493:./Drivers/STM32F1xx_HAL_Driver/Src/stm32f1xx_hal_dma.c **** 
 1652              		.loc 1 493 0 discriminator 17
 1653 0420 1432     		adds	r2, r2, #20
 1654 0422 9342     		cmp	r3, r2
 1655 0424 0ED0     		beq	.L375
 493:./Drivers/STM32F1xx_HAL_Driver/Src/stm32f1xx_hal_dma.c **** 
 1656              		.loc 1 493 0 discriminator 19
 1657 0426 1432     		adds	r2, r2, #20
 1658 0428 9342     		cmp	r3, r2
 1659 042a 08D0     		beq	.L376
 493:./Drivers/STM32F1xx_HAL_Driver/Src/stm32f1xx_hal_dma.c **** 
 1660              		.loc 1 493 0 discriminator 21
 1661 042c 1432     		adds	r2, r2, #20
 1662 042e 9342     		cmp	r3, r2
 1663 0430 02D1     		bne	.L377
 493:./Drivers/STM32F1xx_HAL_Driver/Src/stm32f1xx_hal_dma.c **** 
 1664              		.loc 1 493 0
 1665 0432 4FF40053 		mov	r3, #8192
 1666 0436 1BE0     		b	.L253
 1667              	.L377:
 1668 0438 4FF40033 		mov	r3, #131072
 1669 043c 18E0     		b	.L253
 1670              	.L376:
 1671 043e 4FF40073 		mov	r3, #512
 1672 0442 15E0     		b	.L253
ARM GAS  /tmp/cc4JjNI1.s 			page 47


 1673              	.L375:
 1674 0444 2023     		movs	r3, #32
 1675 0446 13E0     		b	.L253
 1676              	.L374:
 1677 0448 0223     		movs	r3, #2
 1678 044a 11E0     		b	.L253
 1679              	.L373:
 1680 044c 4FF00073 		mov	r3, #33554432
 1681 0450 0EE0     		b	.L253
 1682              	.L372:
 1683 0452 4FF40013 		mov	r3, #2097152
 1684 0456 0BE0     		b	.L253
 1685              	.L371:
 1686 0458 4FF40033 		mov	r3, #131072
 1687 045c 08E0     		b	.L253
 1688              	.L370:
 1689 045e 4FF40053 		mov	r3, #8192
 1690 0462 05E0     		b	.L253
 1691              	.L369:
 1692 0464 4FF40073 		mov	r3, #512
 1693 0468 02E0     		b	.L253
 1694              	.L368:
 1695 046a 2023     		movs	r3, #32
 1696 046c 00E0     		b	.L253
 1697              	.L367:
 1698 046e 0223     		movs	r3, #2
 1699              	.L253:
 493:./Drivers/STM32F1xx_HAL_Driver/Src/stm32f1xx_hal_dma.c **** 
 1700              		.loc 1 493 0 discriminator 46
 1701 0470 4B4A     		ldr	r2, .L414+12
 1702 0472 5360     		str	r3, [r2, #4]
 1703 0474 42E0     		b	.L264
 1704              	.L252:
 493:./Drivers/STM32F1xx_HAL_Driver/Src/stm32f1xx_hal_dma.c **** 
 1705              		.loc 1 493 0 discriminator 2
 1706 0476 474A     		ldr	r2, .L414
 1707 0478 9342     		cmp	r3, r2
 1708 047a 3CD0     		beq	.L378
 493:./Drivers/STM32F1xx_HAL_Driver/Src/stm32f1xx_hal_dma.c **** 
 1709              		.loc 1 493 0 discriminator 47
 1710 047c 1432     		adds	r2, r2, #20
 1711 047e 9342     		cmp	r3, r2
 1712 0480 37D0     		beq	.L379
 493:./Drivers/STM32F1xx_HAL_Driver/Src/stm32f1xx_hal_dma.c **** 
 1713              		.loc 1 493 0 discriminator 49
 1714 0482 1432     		adds	r2, r2, #20
 1715 0484 9342     		cmp	r3, r2
 1716 0486 31D0     		beq	.L380
 493:./Drivers/STM32F1xx_HAL_Driver/Src/stm32f1xx_hal_dma.c **** 
 1717              		.loc 1 493 0 discriminator 51
 1718 0488 1432     		adds	r2, r2, #20
 1719 048a 9342     		cmp	r3, r2
 1720 048c 2BD0     		beq	.L381
 493:./Drivers/STM32F1xx_HAL_Driver/Src/stm32f1xx_hal_dma.c **** 
 1721              		.loc 1 493 0 discriminator 53
 1722 048e 1432     		adds	r2, r2, #20
 1723 0490 9342     		cmp	r3, r2
ARM GAS  /tmp/cc4JjNI1.s 			page 48


 1724 0492 25D0     		beq	.L382
 493:./Drivers/STM32F1xx_HAL_Driver/Src/stm32f1xx_hal_dma.c **** 
 1725              		.loc 1 493 0 discriminator 55
 1726 0494 1432     		adds	r2, r2, #20
 1727 0496 9342     		cmp	r3, r2
 1728 0498 1FD0     		beq	.L383
 493:./Drivers/STM32F1xx_HAL_Driver/Src/stm32f1xx_hal_dma.c **** 
 1729              		.loc 1 493 0 discriminator 57
 1730 049a 1432     		adds	r2, r2, #20
 1731 049c 9342     		cmp	r3, r2
 1732 049e 19D0     		beq	.L384
 493:./Drivers/STM32F1xx_HAL_Driver/Src/stm32f1xx_hal_dma.c **** 
 1733              		.loc 1 493 0 discriminator 59
 1734 04a0 02F56272 		add	r2, r2, #904
 1735 04a4 9342     		cmp	r3, r2
 1736 04a6 13D0     		beq	.L385
 493:./Drivers/STM32F1xx_HAL_Driver/Src/stm32f1xx_hal_dma.c **** 
 1737              		.loc 1 493 0 discriminator 61
 1738 04a8 1432     		adds	r2, r2, #20
 1739 04aa 9342     		cmp	r3, r2
 1740 04ac 0ED0     		beq	.L386
 493:./Drivers/STM32F1xx_HAL_Driver/Src/stm32f1xx_hal_dma.c **** 
 1741              		.loc 1 493 0 discriminator 63
 1742 04ae 1432     		adds	r2, r2, #20
 1743 04b0 9342     		cmp	r3, r2
 1744 04b2 08D0     		beq	.L387
 493:./Drivers/STM32F1xx_HAL_Driver/Src/stm32f1xx_hal_dma.c **** 
 1745              		.loc 1 493 0 discriminator 65
 1746 04b4 1432     		adds	r2, r2, #20
 1747 04b6 9342     		cmp	r3, r2
 1748 04b8 02D1     		bne	.L388
 493:./Drivers/STM32F1xx_HAL_Driver/Src/stm32f1xx_hal_dma.c **** 
 1749              		.loc 1 493 0
 1750 04ba 4FF40053 		mov	r3, #8192
 1751 04be 1BE0     		b	.L265
 1752              	.L388:
 1753 04c0 4FF40033 		mov	r3, #131072
 1754 04c4 18E0     		b	.L265
 1755              	.L387:
 1756 04c6 4FF40073 		mov	r3, #512
 1757 04ca 15E0     		b	.L265
 1758              	.L386:
 1759 04cc 2023     		movs	r3, #32
 1760 04ce 13E0     		b	.L265
 1761              	.L385:
 1762 04d0 0223     		movs	r3, #2
 1763 04d2 11E0     		b	.L265
 1764              	.L384:
 1765 04d4 4FF00073 		mov	r3, #33554432
 1766 04d8 0EE0     		b	.L265
 1767              	.L383:
 1768 04da 4FF40013 		mov	r3, #2097152
 1769 04de 0BE0     		b	.L265
 1770              	.L382:
 1771 04e0 4FF40033 		mov	r3, #131072
 1772 04e4 08E0     		b	.L265
 1773              	.L381:
ARM GAS  /tmp/cc4JjNI1.s 			page 49


 1774 04e6 4FF40053 		mov	r3, #8192
 1775 04ea 05E0     		b	.L265
 1776              	.L380:
 1777 04ec 4FF40073 		mov	r3, #512
 1778 04f0 02E0     		b	.L265
 1779              	.L379:
 1780 04f2 2023     		movs	r3, #32
 1781 04f4 00E0     		b	.L265
 1782              	.L378:
 1783 04f6 0223     		movs	r3, #2
 1784              	.L265:
 493:./Drivers/STM32F1xx_HAL_Driver/Src/stm32f1xx_hal_dma.c **** 
 1785              		.loc 1 493 0 discriminator 90
 1786 04f8 274A     		ldr	r2, .L414+4
 1787 04fa 5360     		str	r3, [r2, #4]
 1788              	.L264:
 497:./Drivers/STM32F1xx_HAL_Driver/Src/stm32f1xx_hal_dma.c **** 
 1789              		.loc 1 497 0 is_stmt 1
 1790 04fc 0123     		movs	r3, #1
 1791 04fe 84F82130 		strb	r3, [r4, #33]
 1792 0502 95E0     		b	.L276
 1793              	.L251:
 503:./Drivers/STM32F1xx_HAL_Driver/Src/stm32f1xx_hal_dma.c ****   
 1794              		.loc 1 503 0
 1795 0504 254A     		ldr	r2, .L414+8
 1796 0506 9342     		cmp	r3, r2
 1797 0508 4CD9     		bls	.L277
 503:./Drivers/STM32F1xx_HAL_Driver/Src/stm32f1xx_hal_dma.c ****   
 1798              		.loc 1 503 0 is_stmt 0 discriminator 1
 1799 050a 783A     		subs	r2, r2, #120
 1800 050c 9342     		cmp	r3, r2
 1801 050e 3CD0     		beq	.L389
 503:./Drivers/STM32F1xx_HAL_Driver/Src/stm32f1xx_hal_dma.c ****   
 1802              		.loc 1 503 0 discriminator 3
 1803 0510 1432     		adds	r2, r2, #20
 1804 0512 9342     		cmp	r3, r2
 1805 0514 37D0     		beq	.L390
 503:./Drivers/STM32F1xx_HAL_Driver/Src/stm32f1xx_hal_dma.c ****   
 1806              		.loc 1 503 0 discriminator 5
 1807 0516 1432     		adds	r2, r2, #20
 1808 0518 9342     		cmp	r3, r2
 1809 051a 31D0     		beq	.L391
 503:./Drivers/STM32F1xx_HAL_Driver/Src/stm32f1xx_hal_dma.c ****   
 1810              		.loc 1 503 0 discriminator 7
 1811 051c 1432     		adds	r2, r2, #20
 1812 051e 9342     		cmp	r3, r2
 1813 0520 2BD0     		beq	.L392
 503:./Drivers/STM32F1xx_HAL_Driver/Src/stm32f1xx_hal_dma.c ****   
 1814              		.loc 1 503 0 discriminator 9
 1815 0522 1432     		adds	r2, r2, #20
 1816 0524 9342     		cmp	r3, r2
 1817 0526 25D0     		beq	.L393
 503:./Drivers/STM32F1xx_HAL_Driver/Src/stm32f1xx_hal_dma.c ****   
 1818              		.loc 1 503 0 discriminator 11
 1819 0528 1432     		adds	r2, r2, #20
 1820 052a 9342     		cmp	r3, r2
 1821 052c 1FD0     		beq	.L394
ARM GAS  /tmp/cc4JjNI1.s 			page 50


 503:./Drivers/STM32F1xx_HAL_Driver/Src/stm32f1xx_hal_dma.c ****   
 1822              		.loc 1 503 0 discriminator 13
 1823 052e 1432     		adds	r2, r2, #20
 1824 0530 9342     		cmp	r3, r2
 1825 0532 19D0     		beq	.L395
 503:./Drivers/STM32F1xx_HAL_Driver/Src/stm32f1xx_hal_dma.c ****   
 1826              		.loc 1 503 0 discriminator 15
 1827 0534 02F56272 		add	r2, r2, #904
 1828 0538 9342     		cmp	r3, r2
 1829 053a 13D0     		beq	.L396
 503:./Drivers/STM32F1xx_HAL_Driver/Src/stm32f1xx_hal_dma.c ****   
 1830              		.loc 1 503 0 discriminator 17
 1831 053c 1432     		adds	r2, r2, #20
 1832 053e 9342     		cmp	r3, r2
 1833 0540 0ED0     		beq	.L397
 503:./Drivers/STM32F1xx_HAL_Driver/Src/stm32f1xx_hal_dma.c ****   
 1834              		.loc 1 503 0 discriminator 19
 1835 0542 1432     		adds	r2, r2, #20
 1836 0544 9342     		cmp	r3, r2
 1837 0546 08D0     		beq	.L398
 503:./Drivers/STM32F1xx_HAL_Driver/Src/stm32f1xx_hal_dma.c ****   
 1838              		.loc 1 503 0 discriminator 21
 1839 0548 1432     		adds	r2, r2, #20
 1840 054a 9342     		cmp	r3, r2
 1841 054c 02D1     		bne	.L399
 503:./Drivers/STM32F1xx_HAL_Driver/Src/stm32f1xx_hal_dma.c ****   
 1842              		.loc 1 503 0
 1843 054e 4FF48043 		mov	r3, #16384
 1844 0552 1BE0     		b	.L278
 1845              	.L399:
 1846 0554 4FF48023 		mov	r3, #262144
 1847 0558 18E0     		b	.L278
 1848              	.L398:
 1849 055a 4FF48063 		mov	r3, #1024
 1850 055e 15E0     		b	.L278
 1851              	.L397:
 1852 0560 4023     		movs	r3, #64
 1853 0562 13E0     		b	.L278
 1854              	.L396:
 1855 0564 0423     		movs	r3, #4
 1856 0566 11E0     		b	.L278
 1857              	.L395:
 1858 0568 4FF08063 		mov	r3, #67108864
 1859 056c 0EE0     		b	.L278
 1860              	.L394:
 1861 056e 4FF48003 		mov	r3, #4194304
 1862 0572 0BE0     		b	.L278
 1863              	.L393:
 1864 0574 4FF48023 		mov	r3, #262144
 1865 0578 08E0     		b	.L278
 1866              	.L392:
 1867 057a 4FF48043 		mov	r3, #16384
 1868 057e 05E0     		b	.L278
 1869              	.L391:
 1870 0580 4FF48063 		mov	r3, #1024
 1871 0584 02E0     		b	.L278
 1872              	.L390:
ARM GAS  /tmp/cc4JjNI1.s 			page 51


 1873 0586 4023     		movs	r3, #64
 1874 0588 00E0     		b	.L278
 1875              	.L389:
 1876 058a 0423     		movs	r3, #4
 1877              	.L278:
 503:./Drivers/STM32F1xx_HAL_Driver/Src/stm32f1xx_hal_dma.c ****   
 1878              		.loc 1 503 0 discriminator 46
 1879 058c 044A     		ldr	r2, .L414+12
 1880 058e 5360     		str	r3, [r2, #4]
 1881 0590 4BE0     		b	.L289
 1882              	.L415:
 1883 0592 00BF     		.align	2
 1884              	.L414:
 1885 0594 08000240 		.word	1073872904
 1886 0598 00000240 		.word	1073872896
 1887 059c 80000240 		.word	1073873024
 1888 05a0 00040240 		.word	1073873920
 1889              	.L277:
 503:./Drivers/STM32F1xx_HAL_Driver/Src/stm32f1xx_hal_dma.c ****   
 1890              		.loc 1 503 0 discriminator 2
 1891 05a4 254A     		ldr	r2, .L416
 1892 05a6 9342     		cmp	r3, r2
 1893 05a8 3CD0     		beq	.L400
 503:./Drivers/STM32F1xx_HAL_Driver/Src/stm32f1xx_hal_dma.c ****   
 1894              		.loc 1 503 0 discriminator 47
 1895 05aa 1432     		adds	r2, r2, #20
 1896 05ac 9342     		cmp	r3, r2
 1897 05ae 37D0     		beq	.L401
 503:./Drivers/STM32F1xx_HAL_Driver/Src/stm32f1xx_hal_dma.c ****   
 1898              		.loc 1 503 0 discriminator 49
 1899 05b0 1432     		adds	r2, r2, #20
 1900 05b2 9342     		cmp	r3, r2
 1901 05b4 31D0     		beq	.L402
 503:./Drivers/STM32F1xx_HAL_Driver/Src/stm32f1xx_hal_dma.c ****   
 1902              		.loc 1 503 0 discriminator 51
 1903 05b6 1432     		adds	r2, r2, #20
 1904 05b8 9342     		cmp	r3, r2
 1905 05ba 2BD0     		beq	.L403
 503:./Drivers/STM32F1xx_HAL_Driver/Src/stm32f1xx_hal_dma.c ****   
 1906              		.loc 1 503 0 discriminator 53
 1907 05bc 1432     		adds	r2, r2, #20
 1908 05be 9342     		cmp	r3, r2
 1909 05c0 25D0     		beq	.L404
 503:./Drivers/STM32F1xx_HAL_Driver/Src/stm32f1xx_hal_dma.c ****   
 1910              		.loc 1 503 0 discriminator 55
 1911 05c2 1432     		adds	r2, r2, #20
 1912 05c4 9342     		cmp	r3, r2
 1913 05c6 1FD0     		beq	.L405
 503:./Drivers/STM32F1xx_HAL_Driver/Src/stm32f1xx_hal_dma.c ****   
 1914              		.loc 1 503 0 discriminator 57
 1915 05c8 1432     		adds	r2, r2, #20
 1916 05ca 9342     		cmp	r3, r2
 1917 05cc 19D0     		beq	.L406
 503:./Drivers/STM32F1xx_HAL_Driver/Src/stm32f1xx_hal_dma.c ****   
 1918              		.loc 1 503 0 discriminator 59
 1919 05ce 02F56272 		add	r2, r2, #904
 1920 05d2 9342     		cmp	r3, r2
ARM GAS  /tmp/cc4JjNI1.s 			page 52


 1921 05d4 13D0     		beq	.L407
 503:./Drivers/STM32F1xx_HAL_Driver/Src/stm32f1xx_hal_dma.c ****   
 1922              		.loc 1 503 0 discriminator 61
 1923 05d6 1432     		adds	r2, r2, #20
 1924 05d8 9342     		cmp	r3, r2
 1925 05da 0ED0     		beq	.L408
 503:./Drivers/STM32F1xx_HAL_Driver/Src/stm32f1xx_hal_dma.c ****   
 1926              		.loc 1 503 0 discriminator 63
 1927 05dc 1432     		adds	r2, r2, #20
 1928 05de 9342     		cmp	r3, r2
 1929 05e0 08D0     		beq	.L409
 503:./Drivers/STM32F1xx_HAL_Driver/Src/stm32f1xx_hal_dma.c ****   
 1930              		.loc 1 503 0 discriminator 65
 1931 05e2 1432     		adds	r2, r2, #20
 1932 05e4 9342     		cmp	r3, r2
 1933 05e6 02D1     		bne	.L410
 503:./Drivers/STM32F1xx_HAL_Driver/Src/stm32f1xx_hal_dma.c ****   
 1934              		.loc 1 503 0
 1935 05e8 4FF48043 		mov	r3, #16384
 1936 05ec 1BE0     		b	.L290
 1937              	.L410:
 1938 05ee 4FF48023 		mov	r3, #262144
 1939 05f2 18E0     		b	.L290
 1940              	.L409:
 1941 05f4 4FF48063 		mov	r3, #1024
 1942 05f8 15E0     		b	.L290
 1943              	.L408:
 1944 05fa 4023     		movs	r3, #64
 1945 05fc 13E0     		b	.L290
 1946              	.L407:
 1947 05fe 0423     		movs	r3, #4
 1948 0600 11E0     		b	.L290
 1949              	.L406:
 1950 0602 4FF08063 		mov	r3, #67108864
 1951 0606 0EE0     		b	.L290
 1952              	.L405:
 1953 0608 4FF48003 		mov	r3, #4194304
 1954 060c 0BE0     		b	.L290
 1955              	.L404:
 1956 060e 4FF48023 		mov	r3, #262144
 1957 0612 08E0     		b	.L290
 1958              	.L403:
 1959 0614 4FF48043 		mov	r3, #16384
 1960 0618 05E0     		b	.L290
 1961              	.L402:
 1962 061a 4FF48063 		mov	r3, #1024
 1963 061e 02E0     		b	.L290
 1964              	.L401:
 1965 0620 4023     		movs	r3, #64
 1966 0622 00E0     		b	.L290
 1967              	.L400:
 1968 0624 0423     		movs	r3, #4
 1969              	.L290:
 503:./Drivers/STM32F1xx_HAL_Driver/Src/stm32f1xx_hal_dma.c ****   
 1970              		.loc 1 503 0 discriminator 90
 1971 0626 064A     		ldr	r2, .L416+4
 1972 0628 5360     		str	r3, [r2, #4]
ARM GAS  /tmp/cc4JjNI1.s 			page 53


 1973              	.L289:
 507:./Drivers/STM32F1xx_HAL_Driver/Src/stm32f1xx_hal_dma.c ****   }
 1974              		.loc 1 507 0 is_stmt 1
 1975 062a 1123     		movs	r3, #17
 1976 062c 84F82130 		strb	r3, [r4, #33]
 1977              	.L276:
 511:./Drivers/STM32F1xx_HAL_Driver/Src/stm32f1xx_hal_dma.c **** 
 1978              		.loc 1 511 0
 1979 0630 0020     		movs	r0, #0
 1980 0632 84F82000 		strb	r0, [r4, #32]
 514:./Drivers/STM32F1xx_HAL_Driver/Src/stm32f1xx_hal_dma.c **** 
 1981              		.loc 1 514 0
 1982 0636 BDE8F081 		pop	{r4, r5, r6, r7, r8, pc}
 1983              	.LVL51:
 1984              	.L417:
 1985 063a 00BF     		.align	2
 1986              	.L416:
 1987 063c 08000240 		.word	1073872904
 1988 0640 00000240 		.word	1073872896
 1989              		.cfi_endproc
 1990              	.LFE68:
 1992              		.section	.text.HAL_DMA_IRQHandler,"ax",%progbits
 1993              		.align	2
 1994              		.global	HAL_DMA_IRQHandler
 1995              		.thumb
 1996              		.thumb_func
 1998              	HAL_DMA_IRQHandler:
 1999              	.LFB69:
 523:./Drivers/STM32F1xx_HAL_Driver/Src/stm32f1xx_hal_dma.c ****   /* Transfer Error Interrupt management ***************************************/
 2000              		.loc 1 523 0
 2001              		.cfi_startproc
 2002              		@ args = 0, pretend = 0, frame = 0
 2003              		@ frame_needed = 0, uses_anonymous_args = 0
 2004              	.LVL52:
 2005 0000 10B5     		push	{r4, lr}
 2006              	.LCFI10:
 2007              		.cfi_def_cfa_offset 8
 2008              		.cfi_offset 4, -8
 2009              		.cfi_offset 14, -4
 2010 0002 0446     		mov	r4, r0
 525:./Drivers/STM32F1xx_HAL_Driver/Src/stm32f1xx_hal_dma.c ****   {
 2011              		.loc 1 525 0
 2012 0004 0368     		ldr	r3, [r0]
 2013 0006 B64A     		ldr	r2, .L701
 2014 0008 9342     		cmp	r3, r2
 2015 000a 48D9     		bls	.L419
 525:./Drivers/STM32F1xx_HAL_Driver/Src/stm32f1xx_hal_dma.c ****   {
 2016              		.loc 1 525 0 is_stmt 0 discriminator 1
 2017 000c 02F56072 		add	r2, r2, #896
 2018 0010 1268     		ldr	r2, [r2]
 2019 0012 B449     		ldr	r1, .L701+4
 2020 0014 8B42     		cmp	r3, r1
 2021 0016 3CD0     		beq	.L568
 525:./Drivers/STM32F1xx_HAL_Driver/Src/stm32f1xx_hal_dma.c ****   {
 2022              		.loc 1 525 0 discriminator 3
 2023 0018 1431     		adds	r1, r1, #20
 2024 001a 8B42     		cmp	r3, r1
ARM GAS  /tmp/cc4JjNI1.s 			page 54


 2025 001c 37D0     		beq	.L569
 525:./Drivers/STM32F1xx_HAL_Driver/Src/stm32f1xx_hal_dma.c ****   {
 2026              		.loc 1 525 0 discriminator 5
 2027 001e 1431     		adds	r1, r1, #20
 2028 0020 8B42     		cmp	r3, r1
 2029 0022 31D0     		beq	.L570
 525:./Drivers/STM32F1xx_HAL_Driver/Src/stm32f1xx_hal_dma.c ****   {
 2030              		.loc 1 525 0 discriminator 7
 2031 0024 1431     		adds	r1, r1, #20
 2032 0026 8B42     		cmp	r3, r1
 2033 0028 2BD0     		beq	.L571
 525:./Drivers/STM32F1xx_HAL_Driver/Src/stm32f1xx_hal_dma.c ****   {
 2034              		.loc 1 525 0 discriminator 9
 2035 002a 1431     		adds	r1, r1, #20
 2036 002c 8B42     		cmp	r3, r1
 2037 002e 25D0     		beq	.L572
 525:./Drivers/STM32F1xx_HAL_Driver/Src/stm32f1xx_hal_dma.c ****   {
 2038              		.loc 1 525 0 discriminator 11
 2039 0030 1431     		adds	r1, r1, #20
 2040 0032 8B42     		cmp	r3, r1
 2041 0034 1FD0     		beq	.L573
 525:./Drivers/STM32F1xx_HAL_Driver/Src/stm32f1xx_hal_dma.c ****   {
 2042              		.loc 1 525 0 discriminator 13
 2043 0036 1431     		adds	r1, r1, #20
 2044 0038 8B42     		cmp	r3, r1
 2045 003a 19D0     		beq	.L574
 525:./Drivers/STM32F1xx_HAL_Driver/Src/stm32f1xx_hal_dma.c ****   {
 2046              		.loc 1 525 0 discriminator 15
 2047 003c 01F56271 		add	r1, r1, #904
 2048 0040 8B42     		cmp	r3, r1
 2049 0042 13D0     		beq	.L575
 525:./Drivers/STM32F1xx_HAL_Driver/Src/stm32f1xx_hal_dma.c ****   {
 2050              		.loc 1 525 0 discriminator 17
 2051 0044 1431     		adds	r1, r1, #20
 2052 0046 8B42     		cmp	r3, r1
 2053 0048 0ED0     		beq	.L576
 525:./Drivers/STM32F1xx_HAL_Driver/Src/stm32f1xx_hal_dma.c ****   {
 2054              		.loc 1 525 0 discriminator 19
 2055 004a 1431     		adds	r1, r1, #20
 2056 004c 8B42     		cmp	r3, r1
 2057 004e 08D0     		beq	.L577
 525:./Drivers/STM32F1xx_HAL_Driver/Src/stm32f1xx_hal_dma.c ****   {
 2058              		.loc 1 525 0 discriminator 21
 2059 0050 1431     		adds	r1, r1, #20
 2060 0052 8B42     		cmp	r3, r1
 2061 0054 02D1     		bne	.L578
 525:./Drivers/STM32F1xx_HAL_Driver/Src/stm32f1xx_hal_dma.c ****   {
 2062              		.loc 1 525 0
 2063 0056 4FF40041 		mov	r1, #32768
 2064 005a 1BE0     		b	.L420
 2065              	.L578:
 2066 005c 4FF40021 		mov	r1, #524288
 2067 0060 18E0     		b	.L420
 2068              	.L577:
 2069 0062 4FF40061 		mov	r1, #2048
 2070 0066 15E0     		b	.L420
 2071              	.L576:
ARM GAS  /tmp/cc4JjNI1.s 			page 55


 2072 0068 8021     		movs	r1, #128
 2073 006a 13E0     		b	.L420
 2074              	.L575:
 2075 006c 0821     		movs	r1, #8
 2076 006e 11E0     		b	.L420
 2077              	.L574:
 2078 0070 4FF00061 		mov	r1, #134217728
 2079 0074 0EE0     		b	.L420
 2080              	.L573:
 2081 0076 4FF40001 		mov	r1, #8388608
 2082 007a 0BE0     		b	.L420
 2083              	.L572:
 2084 007c 4FF40021 		mov	r1, #524288
 2085 0080 08E0     		b	.L420
 2086              	.L571:
 2087 0082 4FF40041 		mov	r1, #32768
 2088 0086 05E0     		b	.L420
 2089              	.L570:
 2090 0088 4FF40061 		mov	r1, #2048
 2091 008c 02E0     		b	.L420
 2092              	.L569:
 2093 008e 8021     		movs	r1, #128
 2094 0090 00E0     		b	.L420
 2095              	.L568:
 2096 0092 0821     		movs	r1, #8
 2097              	.L420:
 525:./Drivers/STM32F1xx_HAL_Driver/Src/stm32f1xx_hal_dma.c ****   {
 2098              		.loc 1 525 0 discriminator 46
 2099 0094 0A42     		tst	r2, r1
 2100 0096 14BF     		ite	ne
 2101 0098 0122     		movne	r2, #1
 2102 009a 0022     		moveq	r2, #0
 2103 009c 46E0     		b	.L431
 2104              	.L419:
 525:./Drivers/STM32F1xx_HAL_Driver/Src/stm32f1xx_hal_dma.c ****   {
 2105              		.loc 1 525 0 discriminator 2
 2106 009e 924A     		ldr	r2, .L701+8
 2107 00a0 1268     		ldr	r2, [r2]
 2108 00a2 9049     		ldr	r1, .L701+4
 2109 00a4 8B42     		cmp	r3, r1
 2110 00a6 3CD0     		beq	.L579
 525:./Drivers/STM32F1xx_HAL_Driver/Src/stm32f1xx_hal_dma.c ****   {
 2111              		.loc 1 525 0 discriminator 48
 2112 00a8 1431     		adds	r1, r1, #20
 2113 00aa 8B42     		cmp	r3, r1
 2114 00ac 37D0     		beq	.L580
 525:./Drivers/STM32F1xx_HAL_Driver/Src/stm32f1xx_hal_dma.c ****   {
 2115              		.loc 1 525 0 discriminator 50
 2116 00ae 1431     		adds	r1, r1, #20
 2117 00b0 8B42     		cmp	r3, r1
 2118 00b2 31D0     		beq	.L581
 525:./Drivers/STM32F1xx_HAL_Driver/Src/stm32f1xx_hal_dma.c ****   {
 2119              		.loc 1 525 0 discriminator 52
 2120 00b4 1431     		adds	r1, r1, #20
 2121 00b6 8B42     		cmp	r3, r1
 2122 00b8 2BD0     		beq	.L582
 525:./Drivers/STM32F1xx_HAL_Driver/Src/stm32f1xx_hal_dma.c ****   {
ARM GAS  /tmp/cc4JjNI1.s 			page 56


 2123              		.loc 1 525 0 discriminator 54
 2124 00ba 1431     		adds	r1, r1, #20
 2125 00bc 8B42     		cmp	r3, r1
 2126 00be 25D0     		beq	.L583
 525:./Drivers/STM32F1xx_HAL_Driver/Src/stm32f1xx_hal_dma.c ****   {
 2127              		.loc 1 525 0 discriminator 56
 2128 00c0 1431     		adds	r1, r1, #20
 2129 00c2 8B42     		cmp	r3, r1
 2130 00c4 1FD0     		beq	.L584
 525:./Drivers/STM32F1xx_HAL_Driver/Src/stm32f1xx_hal_dma.c ****   {
 2131              		.loc 1 525 0 discriminator 58
 2132 00c6 1431     		adds	r1, r1, #20
 2133 00c8 8B42     		cmp	r3, r1
 2134 00ca 19D0     		beq	.L585
 525:./Drivers/STM32F1xx_HAL_Driver/Src/stm32f1xx_hal_dma.c ****   {
 2135              		.loc 1 525 0 discriminator 60
 2136 00cc 01F56271 		add	r1, r1, #904
 2137 00d0 8B42     		cmp	r3, r1
 2138 00d2 13D0     		beq	.L586
 525:./Drivers/STM32F1xx_HAL_Driver/Src/stm32f1xx_hal_dma.c ****   {
 2139              		.loc 1 525 0 discriminator 62
 2140 00d4 1431     		adds	r1, r1, #20
 2141 00d6 8B42     		cmp	r3, r1
 2142 00d8 0ED0     		beq	.L587
 525:./Drivers/STM32F1xx_HAL_Driver/Src/stm32f1xx_hal_dma.c ****   {
 2143              		.loc 1 525 0 discriminator 64
 2144 00da 1431     		adds	r1, r1, #20
 2145 00dc 8B42     		cmp	r3, r1
 2146 00de 08D0     		beq	.L588
 525:./Drivers/STM32F1xx_HAL_Driver/Src/stm32f1xx_hal_dma.c ****   {
 2147              		.loc 1 525 0 discriminator 66
 2148 00e0 1431     		adds	r1, r1, #20
 2149 00e2 8B42     		cmp	r3, r1
 2150 00e4 02D1     		bne	.L589
 525:./Drivers/STM32F1xx_HAL_Driver/Src/stm32f1xx_hal_dma.c ****   {
 2151              		.loc 1 525 0
 2152 00e6 4FF40041 		mov	r1, #32768
 2153 00ea 1BE0     		b	.L432
 2154              	.L589:
 2155 00ec 4FF40021 		mov	r1, #524288
 2156 00f0 18E0     		b	.L432
 2157              	.L588:
 2158 00f2 4FF40061 		mov	r1, #2048
 2159 00f6 15E0     		b	.L432
 2160              	.L587:
 2161 00f8 8021     		movs	r1, #128
 2162 00fa 13E0     		b	.L432
 2163              	.L586:
 2164 00fc 0821     		movs	r1, #8
 2165 00fe 11E0     		b	.L432
 2166              	.L585:
 2167 0100 4FF00061 		mov	r1, #134217728
 2168 0104 0EE0     		b	.L432
 2169              	.L584:
 2170 0106 4FF40001 		mov	r1, #8388608
 2171 010a 0BE0     		b	.L432
 2172              	.L583:
ARM GAS  /tmp/cc4JjNI1.s 			page 57


 2173 010c 4FF40021 		mov	r1, #524288
 2174 0110 08E0     		b	.L432
 2175              	.L582:
 2176 0112 4FF40041 		mov	r1, #32768
 2177 0116 05E0     		b	.L432
 2178              	.L581:
 2179 0118 4FF40061 		mov	r1, #2048
 2180 011c 02E0     		b	.L432
 2181              	.L580:
 2182 011e 8021     		movs	r1, #128
 2183 0120 00E0     		b	.L432
 2184              	.L579:
 2185 0122 0821     		movs	r1, #8
 2186              	.L432:
 525:./Drivers/STM32F1xx_HAL_Driver/Src/stm32f1xx_hal_dma.c ****   {
 2187              		.loc 1 525 0 discriminator 91
 2188 0124 0A42     		tst	r2, r1
 2189 0126 14BF     		ite	ne
 2190 0128 0122     		movne	r2, #1
 2191 012a 0022     		moveq	r2, #0
 2192              	.L431:
 525:./Drivers/STM32F1xx_HAL_Driver/Src/stm32f1xx_hal_dma.c ****   {
 2193              		.loc 1 525 0 discriminator 92
 2194 012c 002A     		cmp	r2, #0
 2195 012e 00F0A280 		beq	.L443
 527:./Drivers/STM32F1xx_HAL_Driver/Src/stm32f1xx_hal_dma.c ****     {
 2196              		.loc 1 527 0 is_stmt 1
 2197 0132 1A68     		ldr	r2, [r3]
 2198 0134 12F0080F 		tst	r2, #8
 2199 0138 00F09D80 		beq	.L443
 530:./Drivers/STM32F1xx_HAL_Driver/Src/stm32f1xx_hal_dma.c ****       
 2200              		.loc 1 530 0
 2201 013c 1A68     		ldr	r2, [r3]
 2202 013e 22F00802 		bic	r2, r2, #8
 2203 0142 1A60     		str	r2, [r3]
 533:./Drivers/STM32F1xx_HAL_Driver/Src/stm32f1xx_hal_dma.c ****       
 2204              		.loc 1 533 0
 2205 0144 2368     		ldr	r3, [r4]
 2206 0146 664A     		ldr	r2, .L701
 2207 0148 9342     		cmp	r3, r2
 2208 014a 43D9     		bls	.L444
 533:./Drivers/STM32F1xx_HAL_Driver/Src/stm32f1xx_hal_dma.c ****       
 2209              		.loc 1 533 0 is_stmt 0 discriminator 1
 2210 014c 783A     		subs	r2, r2, #120
 2211 014e 9342     		cmp	r3, r2
 2212 0150 3CD0     		beq	.L590
 533:./Drivers/STM32F1xx_HAL_Driver/Src/stm32f1xx_hal_dma.c ****       
 2213              		.loc 1 533 0 discriminator 3
 2214 0152 1432     		adds	r2, r2, #20
 2215 0154 9342     		cmp	r3, r2
 2216 0156 37D0     		beq	.L591
 533:./Drivers/STM32F1xx_HAL_Driver/Src/stm32f1xx_hal_dma.c ****       
 2217              		.loc 1 533 0 discriminator 5
 2218 0158 1432     		adds	r2, r2, #20
 2219 015a 9342     		cmp	r3, r2
 2220 015c 31D0     		beq	.L592
 533:./Drivers/STM32F1xx_HAL_Driver/Src/stm32f1xx_hal_dma.c ****       
ARM GAS  /tmp/cc4JjNI1.s 			page 58


 2221              		.loc 1 533 0 discriminator 7
 2222 015e 1432     		adds	r2, r2, #20
 2223 0160 9342     		cmp	r3, r2
 2224 0162 2BD0     		beq	.L593
 533:./Drivers/STM32F1xx_HAL_Driver/Src/stm32f1xx_hal_dma.c ****       
 2225              		.loc 1 533 0 discriminator 9
 2226 0164 1432     		adds	r2, r2, #20
 2227 0166 9342     		cmp	r3, r2
 2228 0168 25D0     		beq	.L594
 533:./Drivers/STM32F1xx_HAL_Driver/Src/stm32f1xx_hal_dma.c ****       
 2229              		.loc 1 533 0 discriminator 11
 2230 016a 1432     		adds	r2, r2, #20
 2231 016c 9342     		cmp	r3, r2
 2232 016e 1FD0     		beq	.L595
 533:./Drivers/STM32F1xx_HAL_Driver/Src/stm32f1xx_hal_dma.c ****       
 2233              		.loc 1 533 0 discriminator 13
 2234 0170 1432     		adds	r2, r2, #20
 2235 0172 9342     		cmp	r3, r2
 2236 0174 19D0     		beq	.L596
 533:./Drivers/STM32F1xx_HAL_Driver/Src/stm32f1xx_hal_dma.c ****       
 2237              		.loc 1 533 0 discriminator 15
 2238 0176 02F56272 		add	r2, r2, #904
 2239 017a 9342     		cmp	r3, r2
 2240 017c 13D0     		beq	.L597
 533:./Drivers/STM32F1xx_HAL_Driver/Src/stm32f1xx_hal_dma.c ****       
 2241              		.loc 1 533 0 discriminator 17
 2242 017e 1432     		adds	r2, r2, #20
 2243 0180 9342     		cmp	r3, r2
 2244 0182 0ED0     		beq	.L598
 533:./Drivers/STM32F1xx_HAL_Driver/Src/stm32f1xx_hal_dma.c ****       
 2245              		.loc 1 533 0 discriminator 19
 2246 0184 1432     		adds	r2, r2, #20
 2247 0186 9342     		cmp	r3, r2
 2248 0188 08D0     		beq	.L599
 533:./Drivers/STM32F1xx_HAL_Driver/Src/stm32f1xx_hal_dma.c ****       
 2249              		.loc 1 533 0 discriminator 21
 2250 018a 1432     		adds	r2, r2, #20
 2251 018c 9342     		cmp	r3, r2
 2252 018e 02D1     		bne	.L600
 533:./Drivers/STM32F1xx_HAL_Driver/Src/stm32f1xx_hal_dma.c ****       
 2253              		.loc 1 533 0
 2254 0190 4FF40042 		mov	r2, #32768
 2255 0194 1BE0     		b	.L445
 2256              	.L600:
 2257 0196 4FF40022 		mov	r2, #524288
 2258 019a 18E0     		b	.L445
 2259              	.L599:
 2260 019c 4FF40062 		mov	r2, #2048
 2261 01a0 15E0     		b	.L445
 2262              	.L598:
 2263 01a2 8022     		movs	r2, #128
 2264 01a4 13E0     		b	.L445
 2265              	.L597:
 2266 01a6 0822     		movs	r2, #8
 2267 01a8 11E0     		b	.L445
 2268              	.L596:
 2269 01aa 4FF00062 		mov	r2, #134217728
ARM GAS  /tmp/cc4JjNI1.s 			page 59


 2270 01ae 0EE0     		b	.L445
 2271              	.L595:
 2272 01b0 4FF40002 		mov	r2, #8388608
 2273 01b4 0BE0     		b	.L445
 2274              	.L594:
 2275 01b6 4FF40022 		mov	r2, #524288
 2276 01ba 08E0     		b	.L445
 2277              	.L593:
 2278 01bc 4FF40042 		mov	r2, #32768
 2279 01c0 05E0     		b	.L445
 2280              	.L592:
 2281 01c2 4FF40062 		mov	r2, #2048
 2282 01c6 02E0     		b	.L445
 2283              	.L591:
 2284 01c8 8022     		movs	r2, #128
 2285 01ca 00E0     		b	.L445
 2286              	.L590:
 2287 01cc 0822     		movs	r2, #8
 2288              	.L445:
 533:./Drivers/STM32F1xx_HAL_Driver/Src/stm32f1xx_hal_dma.c ****       
 2289              		.loc 1 533 0 discriminator 46
 2290 01ce 474B     		ldr	r3, .L701+12
 2291 01d0 5A60     		str	r2, [r3, #4]
 2292 01d2 42E0     		b	.L456
 2293              	.L444:
 533:./Drivers/STM32F1xx_HAL_Driver/Src/stm32f1xx_hal_dma.c ****       
 2294              		.loc 1 533 0 discriminator 2
 2295 01d4 434A     		ldr	r2, .L701+4
 2296 01d6 9342     		cmp	r3, r2
 2297 01d8 3CD0     		beq	.L601
 533:./Drivers/STM32F1xx_HAL_Driver/Src/stm32f1xx_hal_dma.c ****       
 2298              		.loc 1 533 0 discriminator 47
 2299 01da 1432     		adds	r2, r2, #20
 2300 01dc 9342     		cmp	r3, r2
 2301 01de 37D0     		beq	.L602
 533:./Drivers/STM32F1xx_HAL_Driver/Src/stm32f1xx_hal_dma.c ****       
 2302              		.loc 1 533 0 discriminator 49
 2303 01e0 1432     		adds	r2, r2, #20
 2304 01e2 9342     		cmp	r3, r2
 2305 01e4 31D0     		beq	.L603
 533:./Drivers/STM32F1xx_HAL_Driver/Src/stm32f1xx_hal_dma.c ****       
 2306              		.loc 1 533 0 discriminator 51
 2307 01e6 1432     		adds	r2, r2, #20
 2308 01e8 9342     		cmp	r3, r2
 2309 01ea 2BD0     		beq	.L604
 533:./Drivers/STM32F1xx_HAL_Driver/Src/stm32f1xx_hal_dma.c ****       
 2310              		.loc 1 533 0 discriminator 53
 2311 01ec 1432     		adds	r2, r2, #20
 2312 01ee 9342     		cmp	r3, r2
 2313 01f0 25D0     		beq	.L605
 533:./Drivers/STM32F1xx_HAL_Driver/Src/stm32f1xx_hal_dma.c ****       
 2314              		.loc 1 533 0 discriminator 55
 2315 01f2 1432     		adds	r2, r2, #20
 2316 01f4 9342     		cmp	r3, r2
 2317 01f6 1FD0     		beq	.L606
 533:./Drivers/STM32F1xx_HAL_Driver/Src/stm32f1xx_hal_dma.c ****       
 2318              		.loc 1 533 0 discriminator 57
ARM GAS  /tmp/cc4JjNI1.s 			page 60


 2319 01f8 1432     		adds	r2, r2, #20
 2320 01fa 9342     		cmp	r3, r2
 2321 01fc 19D0     		beq	.L607
 533:./Drivers/STM32F1xx_HAL_Driver/Src/stm32f1xx_hal_dma.c ****       
 2322              		.loc 1 533 0 discriminator 59
 2323 01fe 02F56272 		add	r2, r2, #904
 2324 0202 9342     		cmp	r3, r2
 2325 0204 13D0     		beq	.L608
 533:./Drivers/STM32F1xx_HAL_Driver/Src/stm32f1xx_hal_dma.c ****       
 2326              		.loc 1 533 0 discriminator 61
 2327 0206 1432     		adds	r2, r2, #20
 2328 0208 9342     		cmp	r3, r2
 2329 020a 0ED0     		beq	.L609
 533:./Drivers/STM32F1xx_HAL_Driver/Src/stm32f1xx_hal_dma.c ****       
 2330              		.loc 1 533 0 discriminator 63
 2331 020c 1432     		adds	r2, r2, #20
 2332 020e 9342     		cmp	r3, r2
 2333 0210 08D0     		beq	.L610
 533:./Drivers/STM32F1xx_HAL_Driver/Src/stm32f1xx_hal_dma.c ****       
 2334              		.loc 1 533 0 discriminator 65
 2335 0212 1432     		adds	r2, r2, #20
 2336 0214 9342     		cmp	r3, r2
 2337 0216 02D1     		bne	.L611
 533:./Drivers/STM32F1xx_HAL_Driver/Src/stm32f1xx_hal_dma.c ****       
 2338              		.loc 1 533 0
 2339 0218 4FF40042 		mov	r2, #32768
 2340 021c 1BE0     		b	.L457
 2341              	.L611:
 2342 021e 4FF40022 		mov	r2, #524288
 2343 0222 18E0     		b	.L457
 2344              	.L610:
 2345 0224 4FF40062 		mov	r2, #2048
 2346 0228 15E0     		b	.L457
 2347              	.L609:
 2348 022a 8022     		movs	r2, #128
 2349 022c 13E0     		b	.L457
 2350              	.L608:
 2351 022e 0822     		movs	r2, #8
 2352 0230 11E0     		b	.L457
 2353              	.L607:
 2354 0232 4FF00062 		mov	r2, #134217728
 2355 0236 0EE0     		b	.L457
 2356              	.L606:
 2357 0238 4FF40002 		mov	r2, #8388608
 2358 023c 0BE0     		b	.L457
 2359              	.L605:
 2360 023e 4FF40022 		mov	r2, #524288
 2361 0242 08E0     		b	.L457
 2362              	.L604:
 2363 0244 4FF40042 		mov	r2, #32768
 2364 0248 05E0     		b	.L457
 2365              	.L603:
 2366 024a 4FF40062 		mov	r2, #2048
 2367 024e 02E0     		b	.L457
 2368              	.L602:
 2369 0250 8022     		movs	r2, #128
 2370 0252 00E0     		b	.L457
ARM GAS  /tmp/cc4JjNI1.s 			page 61


 2371              	.L601:
 2372 0254 0822     		movs	r2, #8
 2373              	.L457:
 533:./Drivers/STM32F1xx_HAL_Driver/Src/stm32f1xx_hal_dma.c ****       
 2374              		.loc 1 533 0 discriminator 90
 2375 0256 244B     		ldr	r3, .L701+8
 2376 0258 5A60     		str	r2, [r3, #4]
 2377              	.L456:
 536:./Drivers/STM32F1xx_HAL_Driver/Src/stm32f1xx_hal_dma.c ****       
 2378              		.loc 1 536 0 is_stmt 1
 2379 025a 636B     		ldr	r3, [r4, #52]
 2380 025c 43F00103 		orr	r3, r3, #1
 2381 0260 6363     		str	r3, [r4, #52]
 539:./Drivers/STM32F1xx_HAL_Driver/Src/stm32f1xx_hal_dma.c ****       
 2382              		.loc 1 539 0
 2383 0262 0423     		movs	r3, #4
 2384 0264 84F82130 		strb	r3, [r4, #33]
 542:./Drivers/STM32F1xx_HAL_Driver/Src/stm32f1xx_hal_dma.c ****       
 2385              		.loc 1 542 0
 2386 0268 0023     		movs	r3, #0
 2387 026a 84F82030 		strb	r3, [r4, #32]
 544:./Drivers/STM32F1xx_HAL_Driver/Src/stm32f1xx_hal_dma.c ****       {
 2388              		.loc 1 544 0
 2389 026e 236B     		ldr	r3, [r4, #48]
 2390 0270 0BB1     		cbz	r3, .L443
 547:./Drivers/STM32F1xx_HAL_Driver/Src/stm32f1xx_hal_dma.c ****       }
 2391              		.loc 1 547 0
 2392 0272 2046     		mov	r0, r4
 2393              	.LVL53:
 2394 0274 9847     		blx	r3
 2395              	.LVL54:
 2396              	.L443:
 553:./Drivers/STM32F1xx_HAL_Driver/Src/stm32f1xx_hal_dma.c ****   {
 2397              		.loc 1 553 0
 2398 0276 2368     		ldr	r3, [r4]
 2399 0278 194A     		ldr	r2, .L701
 2400 027a 9342     		cmp	r3, r2
 2401 027c 51D9     		bls	.L468
 553:./Drivers/STM32F1xx_HAL_Driver/Src/stm32f1xx_hal_dma.c ****   {
 2402              		.loc 1 553 0 is_stmt 0 discriminator 1
 2403 027e 02F56072 		add	r2, r2, #896
 2404 0282 1268     		ldr	r2, [r2]
 2405 0284 1749     		ldr	r1, .L701+4
 2406 0286 8B42     		cmp	r3, r1
 2407 0288 45D0     		beq	.L612
 553:./Drivers/STM32F1xx_HAL_Driver/Src/stm32f1xx_hal_dma.c ****   {
 2408              		.loc 1 553 0 discriminator 3
 2409 028a 1431     		adds	r1, r1, #20
 2410 028c 8B42     		cmp	r3, r1
 2411 028e 40D0     		beq	.L613
 553:./Drivers/STM32F1xx_HAL_Driver/Src/stm32f1xx_hal_dma.c ****   {
 2412              		.loc 1 553 0 discriminator 5
 2413 0290 1431     		adds	r1, r1, #20
 2414 0292 8B42     		cmp	r3, r1
 2415 0294 3AD0     		beq	.L614
 553:./Drivers/STM32F1xx_HAL_Driver/Src/stm32f1xx_hal_dma.c ****   {
 2416              		.loc 1 553 0 discriminator 7
ARM GAS  /tmp/cc4JjNI1.s 			page 62


 2417 0296 1431     		adds	r1, r1, #20
 2418 0298 8B42     		cmp	r3, r1
 2419 029a 34D0     		beq	.L615
 553:./Drivers/STM32F1xx_HAL_Driver/Src/stm32f1xx_hal_dma.c ****   {
 2420              		.loc 1 553 0 discriminator 9
 2421 029c 1431     		adds	r1, r1, #20
 2422 029e 8B42     		cmp	r3, r1
 2423 02a0 2ED0     		beq	.L616
 553:./Drivers/STM32F1xx_HAL_Driver/Src/stm32f1xx_hal_dma.c ****   {
 2424              		.loc 1 553 0 discriminator 11
 2425 02a2 1431     		adds	r1, r1, #20
 2426 02a4 8B42     		cmp	r3, r1
 2427 02a6 28D0     		beq	.L617
 553:./Drivers/STM32F1xx_HAL_Driver/Src/stm32f1xx_hal_dma.c ****   {
 2428              		.loc 1 553 0 discriminator 13
 2429 02a8 1431     		adds	r1, r1, #20
 2430 02aa 8B42     		cmp	r3, r1
 2431 02ac 22D0     		beq	.L618
 553:./Drivers/STM32F1xx_HAL_Driver/Src/stm32f1xx_hal_dma.c ****   {
 2432              		.loc 1 553 0 discriminator 15
 2433 02ae 01F56271 		add	r1, r1, #904
 2434 02b2 8B42     		cmp	r3, r1
 2435 02b4 1CD0     		beq	.L619
 553:./Drivers/STM32F1xx_HAL_Driver/Src/stm32f1xx_hal_dma.c ****   {
 2436              		.loc 1 553 0 discriminator 17
 2437 02b6 1431     		adds	r1, r1, #20
 2438 02b8 8B42     		cmp	r3, r1
 2439 02ba 0ED0     		beq	.L620
 553:./Drivers/STM32F1xx_HAL_Driver/Src/stm32f1xx_hal_dma.c ****   {
 2440              		.loc 1 553 0 discriminator 19
 2441 02bc 1431     		adds	r1, r1, #20
 2442 02be 8B42     		cmp	r3, r1
 2443 02c0 08D0     		beq	.L621
 553:./Drivers/STM32F1xx_HAL_Driver/Src/stm32f1xx_hal_dma.c ****   {
 2444              		.loc 1 553 0 discriminator 21
 2445 02c2 1431     		adds	r1, r1, #20
 2446 02c4 8B42     		cmp	r3, r1
 2447 02c6 02D1     		bne	.L622
 553:./Drivers/STM32F1xx_HAL_Driver/Src/stm32f1xx_hal_dma.c ****   {
 2448              		.loc 1 553 0
 2449 02c8 4FF48041 		mov	r1, #16384
 2450 02cc 24E0     		b	.L469
 2451              	.L622:
 2452 02ce 4FF48021 		mov	r1, #262144
 2453 02d2 21E0     		b	.L469
 2454              	.L621:
 2455 02d4 4FF48061 		mov	r1, #1024
 2456 02d8 1EE0     		b	.L469
 2457              	.L620:
 2458 02da 4021     		movs	r1, #64
 2459 02dc 1CE0     		b	.L469
 2460              	.L702:
 2461 02de 00BF     		.align	2
 2462              	.L701:
 2463 02e0 80000240 		.word	1073873024
 2464 02e4 08000240 		.word	1073872904
 2465 02e8 00000240 		.word	1073872896
ARM GAS  /tmp/cc4JjNI1.s 			page 63


 2466 02ec 00040240 		.word	1073873920
 2467              	.L619:
 2468 02f0 0421     		movs	r1, #4
 2469 02f2 11E0     		b	.L469
 2470              	.L618:
 2471 02f4 4FF08061 		mov	r1, #67108864
 2472 02f8 0EE0     		b	.L469
 2473              	.L617:
 2474 02fa 4FF48001 		mov	r1, #4194304
 2475 02fe 0BE0     		b	.L469
 2476              	.L616:
 2477 0300 4FF48021 		mov	r1, #262144
 2478 0304 08E0     		b	.L469
 2479              	.L615:
 2480 0306 4FF48041 		mov	r1, #16384
 2481 030a 05E0     		b	.L469
 2482              	.L614:
 2483 030c 4FF48061 		mov	r1, #1024
 2484 0310 02E0     		b	.L469
 2485              	.L613:
 2486 0312 4021     		movs	r1, #64
 2487 0314 00E0     		b	.L469
 2488              	.L612:
 2489 0316 0421     		movs	r1, #4
 2490              	.L469:
 553:./Drivers/STM32F1xx_HAL_Driver/Src/stm32f1xx_hal_dma.c ****   {
 2491              		.loc 1 553 0 discriminator 46
 2492 0318 0A42     		tst	r2, r1
 2493 031a 14BF     		ite	ne
 2494 031c 0122     		movne	r2, #1
 2495 031e 0022     		moveq	r2, #0
 2496 0320 46E0     		b	.L480
 2497              	.L468:
 553:./Drivers/STM32F1xx_HAL_Driver/Src/stm32f1xx_hal_dma.c ****   {
 2498              		.loc 1 553 0 discriminator 2
 2499 0322 B54A     		ldr	r2, .L703
 2500 0324 1268     		ldr	r2, [r2]
 2501 0326 B549     		ldr	r1, .L703+4
 2502 0328 8B42     		cmp	r3, r1
 2503 032a 3CD0     		beq	.L623
 553:./Drivers/STM32F1xx_HAL_Driver/Src/stm32f1xx_hal_dma.c ****   {
 2504              		.loc 1 553 0 discriminator 48
 2505 032c 1431     		adds	r1, r1, #20
 2506 032e 8B42     		cmp	r3, r1
 2507 0330 37D0     		beq	.L624
 553:./Drivers/STM32F1xx_HAL_Driver/Src/stm32f1xx_hal_dma.c ****   {
 2508              		.loc 1 553 0 discriminator 50
 2509 0332 1431     		adds	r1, r1, #20
 2510 0334 8B42     		cmp	r3, r1
 2511 0336 31D0     		beq	.L625
 553:./Drivers/STM32F1xx_HAL_Driver/Src/stm32f1xx_hal_dma.c ****   {
 2512              		.loc 1 553 0 discriminator 52
 2513 0338 1431     		adds	r1, r1, #20
 2514 033a 8B42     		cmp	r3, r1
 2515 033c 2BD0     		beq	.L626
 553:./Drivers/STM32F1xx_HAL_Driver/Src/stm32f1xx_hal_dma.c ****   {
 2516              		.loc 1 553 0 discriminator 54
ARM GAS  /tmp/cc4JjNI1.s 			page 64


 2517 033e 1431     		adds	r1, r1, #20
 2518 0340 8B42     		cmp	r3, r1
 2519 0342 25D0     		beq	.L627
 553:./Drivers/STM32F1xx_HAL_Driver/Src/stm32f1xx_hal_dma.c ****   {
 2520              		.loc 1 553 0 discriminator 56
 2521 0344 1431     		adds	r1, r1, #20
 2522 0346 8B42     		cmp	r3, r1
 2523 0348 1FD0     		beq	.L628
 553:./Drivers/STM32F1xx_HAL_Driver/Src/stm32f1xx_hal_dma.c ****   {
 2524              		.loc 1 553 0 discriminator 58
 2525 034a 1431     		adds	r1, r1, #20
 2526 034c 8B42     		cmp	r3, r1
 2527 034e 19D0     		beq	.L629
 553:./Drivers/STM32F1xx_HAL_Driver/Src/stm32f1xx_hal_dma.c ****   {
 2528              		.loc 1 553 0 discriminator 60
 2529 0350 01F56271 		add	r1, r1, #904
 2530 0354 8B42     		cmp	r3, r1
 2531 0356 13D0     		beq	.L630
 553:./Drivers/STM32F1xx_HAL_Driver/Src/stm32f1xx_hal_dma.c ****   {
 2532              		.loc 1 553 0 discriminator 62
 2533 0358 1431     		adds	r1, r1, #20
 2534 035a 8B42     		cmp	r3, r1
 2535 035c 0ED0     		beq	.L631
 553:./Drivers/STM32F1xx_HAL_Driver/Src/stm32f1xx_hal_dma.c ****   {
 2536              		.loc 1 553 0 discriminator 64
 2537 035e 1431     		adds	r1, r1, #20
 2538 0360 8B42     		cmp	r3, r1
 2539 0362 08D0     		beq	.L632
 553:./Drivers/STM32F1xx_HAL_Driver/Src/stm32f1xx_hal_dma.c ****   {
 2540              		.loc 1 553 0 discriminator 66
 2541 0364 1431     		adds	r1, r1, #20
 2542 0366 8B42     		cmp	r3, r1
 2543 0368 02D1     		bne	.L633
 553:./Drivers/STM32F1xx_HAL_Driver/Src/stm32f1xx_hal_dma.c ****   {
 2544              		.loc 1 553 0
 2545 036a 4FF48041 		mov	r1, #16384
 2546 036e 1BE0     		b	.L481
 2547              	.L633:
 2548 0370 4FF48021 		mov	r1, #262144
 2549 0374 18E0     		b	.L481
 2550              	.L632:
 2551 0376 4FF48061 		mov	r1, #1024
 2552 037a 15E0     		b	.L481
 2553              	.L631:
 2554 037c 4021     		movs	r1, #64
 2555 037e 13E0     		b	.L481
 2556              	.L630:
 2557 0380 0421     		movs	r1, #4
 2558 0382 11E0     		b	.L481
 2559              	.L629:
 2560 0384 4FF08061 		mov	r1, #67108864
 2561 0388 0EE0     		b	.L481
 2562              	.L628:
 2563 038a 4FF48001 		mov	r1, #4194304
 2564 038e 0BE0     		b	.L481
 2565              	.L627:
 2566 0390 4FF48021 		mov	r1, #262144
ARM GAS  /tmp/cc4JjNI1.s 			page 65


 2567 0394 08E0     		b	.L481
 2568              	.L626:
 2569 0396 4FF48041 		mov	r1, #16384
 2570 039a 05E0     		b	.L481
 2571              	.L625:
 2572 039c 4FF48061 		mov	r1, #1024
 2573 03a0 02E0     		b	.L481
 2574              	.L624:
 2575 03a2 4021     		movs	r1, #64
 2576 03a4 00E0     		b	.L481
 2577              	.L623:
 2578 03a6 0421     		movs	r1, #4
 2579              	.L481:
 553:./Drivers/STM32F1xx_HAL_Driver/Src/stm32f1xx_hal_dma.c ****   {
 2580              		.loc 1 553 0 discriminator 91
 2581 03a8 0A42     		tst	r2, r1
 2582 03aa 14BF     		ite	ne
 2583 03ac 0122     		movne	r2, #1
 2584 03ae 0022     		moveq	r2, #0
 2585              	.L480:
 553:./Drivers/STM32F1xx_HAL_Driver/Src/stm32f1xx_hal_dma.c ****   {
 2586              		.loc 1 553 0 discriminator 92
 2587 03b0 002A     		cmp	r2, #0
 2588 03b2 00F09F80 		beq	.L492
 555:./Drivers/STM32F1xx_HAL_Driver/Src/stm32f1xx_hal_dma.c ****     { 
 2589              		.loc 1 555 0 is_stmt 1
 2590 03b6 1A68     		ldr	r2, [r3]
 2591 03b8 12F0040F 		tst	r2, #4
 2592 03bc 00F09A80 		beq	.L492
 558:./Drivers/STM32F1xx_HAL_Driver/Src/stm32f1xx_hal_dma.c ****       {
 2593              		.loc 1 558 0
 2594 03c0 1A68     		ldr	r2, [r3]
 2595 03c2 12F0200F 		tst	r2, #32
 2596 03c6 03D1     		bne	.L493
 561:./Drivers/STM32F1xx_HAL_Driver/Src/stm32f1xx_hal_dma.c ****       }
 2597              		.loc 1 561 0
 2598 03c8 1A68     		ldr	r2, [r3]
 2599 03ca 22F00402 		bic	r2, r2, #4
 2600 03ce 1A60     		str	r2, [r3]
 2601              	.L493:
 564:./Drivers/STM32F1xx_HAL_Driver/Src/stm32f1xx_hal_dma.c **** 
 2602              		.loc 1 564 0
 2603 03d0 2368     		ldr	r3, [r4]
 2604 03d2 8B4A     		ldr	r2, .L703+8
 2605 03d4 9342     		cmp	r3, r2
 2606 03d6 43D9     		bls	.L494
 564:./Drivers/STM32F1xx_HAL_Driver/Src/stm32f1xx_hal_dma.c **** 
 2607              		.loc 1 564 0 is_stmt 0 discriminator 1
 2608 03d8 783A     		subs	r2, r2, #120
 2609 03da 9342     		cmp	r3, r2
 2610 03dc 3CD0     		beq	.L634
 564:./Drivers/STM32F1xx_HAL_Driver/Src/stm32f1xx_hal_dma.c **** 
 2611              		.loc 1 564 0 discriminator 3
 2612 03de 1432     		adds	r2, r2, #20
 2613 03e0 9342     		cmp	r3, r2
 2614 03e2 37D0     		beq	.L635
 564:./Drivers/STM32F1xx_HAL_Driver/Src/stm32f1xx_hal_dma.c **** 
ARM GAS  /tmp/cc4JjNI1.s 			page 66


 2615              		.loc 1 564 0 discriminator 5
 2616 03e4 1432     		adds	r2, r2, #20
 2617 03e6 9342     		cmp	r3, r2
 2618 03e8 31D0     		beq	.L636
 564:./Drivers/STM32F1xx_HAL_Driver/Src/stm32f1xx_hal_dma.c **** 
 2619              		.loc 1 564 0 discriminator 7
 2620 03ea 1432     		adds	r2, r2, #20
 2621 03ec 9342     		cmp	r3, r2
 2622 03ee 2BD0     		beq	.L637
 564:./Drivers/STM32F1xx_HAL_Driver/Src/stm32f1xx_hal_dma.c **** 
 2623              		.loc 1 564 0 discriminator 9
 2624 03f0 1432     		adds	r2, r2, #20
 2625 03f2 9342     		cmp	r3, r2
 2626 03f4 25D0     		beq	.L638
 564:./Drivers/STM32F1xx_HAL_Driver/Src/stm32f1xx_hal_dma.c **** 
 2627              		.loc 1 564 0 discriminator 11
 2628 03f6 1432     		adds	r2, r2, #20
 2629 03f8 9342     		cmp	r3, r2
 2630 03fa 1FD0     		beq	.L639
 564:./Drivers/STM32F1xx_HAL_Driver/Src/stm32f1xx_hal_dma.c **** 
 2631              		.loc 1 564 0 discriminator 13
 2632 03fc 1432     		adds	r2, r2, #20
 2633 03fe 9342     		cmp	r3, r2
 2634 0400 19D0     		beq	.L640
 564:./Drivers/STM32F1xx_HAL_Driver/Src/stm32f1xx_hal_dma.c **** 
 2635              		.loc 1 564 0 discriminator 15
 2636 0402 02F56272 		add	r2, r2, #904
 2637 0406 9342     		cmp	r3, r2
 2638 0408 13D0     		beq	.L641
 564:./Drivers/STM32F1xx_HAL_Driver/Src/stm32f1xx_hal_dma.c **** 
 2639              		.loc 1 564 0 discriminator 17
 2640 040a 1432     		adds	r2, r2, #20
 2641 040c 9342     		cmp	r3, r2
 2642 040e 0ED0     		beq	.L642
 564:./Drivers/STM32F1xx_HAL_Driver/Src/stm32f1xx_hal_dma.c **** 
 2643              		.loc 1 564 0 discriminator 19
 2644 0410 1432     		adds	r2, r2, #20
 2645 0412 9342     		cmp	r3, r2
 2646 0414 08D0     		beq	.L643
 564:./Drivers/STM32F1xx_HAL_Driver/Src/stm32f1xx_hal_dma.c **** 
 2647              		.loc 1 564 0 discriminator 21
 2648 0416 1432     		adds	r2, r2, #20
 2649 0418 9342     		cmp	r3, r2
 2650 041a 02D1     		bne	.L644
 564:./Drivers/STM32F1xx_HAL_Driver/Src/stm32f1xx_hal_dma.c **** 
 2651              		.loc 1 564 0
 2652 041c 4FF48042 		mov	r2, #16384
 2653 0420 1BE0     		b	.L495
 2654              	.L644:
 2655 0422 4FF48022 		mov	r2, #262144
 2656 0426 18E0     		b	.L495
 2657              	.L643:
 2658 0428 4FF48062 		mov	r2, #1024
 2659 042c 15E0     		b	.L495
 2660              	.L642:
 2661 042e 4022     		movs	r2, #64
 2662 0430 13E0     		b	.L495
ARM GAS  /tmp/cc4JjNI1.s 			page 67


 2663              	.L641:
 2664 0432 0422     		movs	r2, #4
 2665 0434 11E0     		b	.L495
 2666              	.L640:
 2667 0436 4FF08062 		mov	r2, #67108864
 2668 043a 0EE0     		b	.L495
 2669              	.L639:
 2670 043c 4FF48002 		mov	r2, #4194304
 2671 0440 0BE0     		b	.L495
 2672              	.L638:
 2673 0442 4FF48022 		mov	r2, #262144
 2674 0446 08E0     		b	.L495
 2675              	.L637:
 2676 0448 4FF48042 		mov	r2, #16384
 2677 044c 05E0     		b	.L495
 2678              	.L636:
 2679 044e 4FF48062 		mov	r2, #1024
 2680 0452 02E0     		b	.L495
 2681              	.L635:
 2682 0454 4022     		movs	r2, #64
 2683 0456 00E0     		b	.L495
 2684              	.L634:
 2685 0458 0422     		movs	r2, #4
 2686              	.L495:
 564:./Drivers/STM32F1xx_HAL_Driver/Src/stm32f1xx_hal_dma.c **** 
 2687              		.loc 1 564 0 discriminator 46
 2688 045a 6A4B     		ldr	r3, .L703+12
 2689 045c 5A60     		str	r2, [r3, #4]
 2690 045e 42E0     		b	.L506
 2691              	.L494:
 564:./Drivers/STM32F1xx_HAL_Driver/Src/stm32f1xx_hal_dma.c **** 
 2692              		.loc 1 564 0 discriminator 2
 2693 0460 664A     		ldr	r2, .L703+4
 2694 0462 9342     		cmp	r3, r2
 2695 0464 3CD0     		beq	.L645
 564:./Drivers/STM32F1xx_HAL_Driver/Src/stm32f1xx_hal_dma.c **** 
 2696              		.loc 1 564 0 discriminator 47
 2697 0466 1432     		adds	r2, r2, #20
 2698 0468 9342     		cmp	r3, r2
 2699 046a 37D0     		beq	.L646
 564:./Drivers/STM32F1xx_HAL_Driver/Src/stm32f1xx_hal_dma.c **** 
 2700              		.loc 1 564 0 discriminator 49
 2701 046c 1432     		adds	r2, r2, #20
 2702 046e 9342     		cmp	r3, r2
 2703 0470 31D0     		beq	.L647
 564:./Drivers/STM32F1xx_HAL_Driver/Src/stm32f1xx_hal_dma.c **** 
 2704              		.loc 1 564 0 discriminator 51
 2705 0472 1432     		adds	r2, r2, #20
 2706 0474 9342     		cmp	r3, r2
 2707 0476 2BD0     		beq	.L648
 564:./Drivers/STM32F1xx_HAL_Driver/Src/stm32f1xx_hal_dma.c **** 
 2708              		.loc 1 564 0 discriminator 53
 2709 0478 1432     		adds	r2, r2, #20
 2710 047a 9342     		cmp	r3, r2
 2711 047c 25D0     		beq	.L649
 564:./Drivers/STM32F1xx_HAL_Driver/Src/stm32f1xx_hal_dma.c **** 
 2712              		.loc 1 564 0 discriminator 55
ARM GAS  /tmp/cc4JjNI1.s 			page 68


 2713 047e 1432     		adds	r2, r2, #20
 2714 0480 9342     		cmp	r3, r2
 2715 0482 1FD0     		beq	.L650
 564:./Drivers/STM32F1xx_HAL_Driver/Src/stm32f1xx_hal_dma.c **** 
 2716              		.loc 1 564 0 discriminator 57
 2717 0484 1432     		adds	r2, r2, #20
 2718 0486 9342     		cmp	r3, r2
 2719 0488 19D0     		beq	.L651
 564:./Drivers/STM32F1xx_HAL_Driver/Src/stm32f1xx_hal_dma.c **** 
 2720              		.loc 1 564 0 discriminator 59
 2721 048a 02F56272 		add	r2, r2, #904
 2722 048e 9342     		cmp	r3, r2
 2723 0490 13D0     		beq	.L652
 564:./Drivers/STM32F1xx_HAL_Driver/Src/stm32f1xx_hal_dma.c **** 
 2724              		.loc 1 564 0 discriminator 61
 2725 0492 1432     		adds	r2, r2, #20
 2726 0494 9342     		cmp	r3, r2
 2727 0496 0ED0     		beq	.L653
 564:./Drivers/STM32F1xx_HAL_Driver/Src/stm32f1xx_hal_dma.c **** 
 2728              		.loc 1 564 0 discriminator 63
 2729 0498 1432     		adds	r2, r2, #20
 2730 049a 9342     		cmp	r3, r2
 2731 049c 08D0     		beq	.L654
 564:./Drivers/STM32F1xx_HAL_Driver/Src/stm32f1xx_hal_dma.c **** 
 2732              		.loc 1 564 0 discriminator 65
 2733 049e 1432     		adds	r2, r2, #20
 2734 04a0 9342     		cmp	r3, r2
 2735 04a2 02D1     		bne	.L655
 564:./Drivers/STM32F1xx_HAL_Driver/Src/stm32f1xx_hal_dma.c **** 
 2736              		.loc 1 564 0
 2737 04a4 4FF48042 		mov	r2, #16384
 2738 04a8 1BE0     		b	.L507
 2739              	.L655:
 2740 04aa 4FF48022 		mov	r2, #262144
 2741 04ae 18E0     		b	.L507
 2742              	.L654:
 2743 04b0 4FF48062 		mov	r2, #1024
 2744 04b4 15E0     		b	.L507
 2745              	.L653:
 2746 04b6 4022     		movs	r2, #64
 2747 04b8 13E0     		b	.L507
 2748              	.L652:
 2749 04ba 0422     		movs	r2, #4
 2750 04bc 11E0     		b	.L507
 2751              	.L651:
 2752 04be 4FF08062 		mov	r2, #67108864
 2753 04c2 0EE0     		b	.L507
 2754              	.L650:
 2755 04c4 4FF48002 		mov	r2, #4194304
 2756 04c8 0BE0     		b	.L507
 2757              	.L649:
 2758 04ca 4FF48022 		mov	r2, #262144
 2759 04ce 08E0     		b	.L507
 2760              	.L648:
 2761 04d0 4FF48042 		mov	r2, #16384
 2762 04d4 05E0     		b	.L507
 2763              	.L647:
ARM GAS  /tmp/cc4JjNI1.s 			page 69


 2764 04d6 4FF48062 		mov	r2, #1024
 2765 04da 02E0     		b	.L507
 2766              	.L646:
 2767 04dc 4022     		movs	r2, #64
 2768 04de 00E0     		b	.L507
 2769              	.L645:
 2770 04e0 0422     		movs	r2, #4
 2771              	.L507:
 564:./Drivers/STM32F1xx_HAL_Driver/Src/stm32f1xx_hal_dma.c **** 
 2772              		.loc 1 564 0 discriminator 90
 2773 04e2 454B     		ldr	r3, .L703
 2774 04e4 5A60     		str	r2, [r3, #4]
 2775              	.L506:
 567:./Drivers/STM32F1xx_HAL_Driver/Src/stm32f1xx_hal_dma.c **** 
 2776              		.loc 1 567 0 is_stmt 1
 2777 04e6 1123     		movs	r3, #17
 2778 04e8 84F82130 		strb	r3, [r4, #33]
 569:./Drivers/STM32F1xx_HAL_Driver/Src/stm32f1xx_hal_dma.c ****       {
 2779              		.loc 1 569 0
 2780 04ec E36A     		ldr	r3, [r4, #44]
 2781 04ee 0BB1     		cbz	r3, .L492
 572:./Drivers/STM32F1xx_HAL_Driver/Src/stm32f1xx_hal_dma.c ****       }
 2782              		.loc 1 572 0
 2783 04f0 2046     		mov	r0, r4
 2784 04f2 9847     		blx	r3
 2785              	.LVL55:
 2786              	.L492:
 578:./Drivers/STM32F1xx_HAL_Driver/Src/stm32f1xx_hal_dma.c ****   {
 2787              		.loc 1 578 0
 2788 04f4 2368     		ldr	r3, [r4]
 2789 04f6 424A     		ldr	r2, .L703+8
 2790 04f8 9342     		cmp	r3, r2
 2791 04fa 48D9     		bls	.L518
 578:./Drivers/STM32F1xx_HAL_Driver/Src/stm32f1xx_hal_dma.c ****   {
 2792              		.loc 1 578 0 is_stmt 0 discriminator 1
 2793 04fc 02F56072 		add	r2, r2, #896
 2794 0500 1268     		ldr	r2, [r2]
 2795 0502 3E49     		ldr	r1, .L703+4
 2796 0504 8B42     		cmp	r3, r1
 2797 0506 3CD0     		beq	.L656
 578:./Drivers/STM32F1xx_HAL_Driver/Src/stm32f1xx_hal_dma.c ****   {
 2798              		.loc 1 578 0 discriminator 3
 2799 0508 1431     		adds	r1, r1, #20
 2800 050a 8B42     		cmp	r3, r1
 2801 050c 37D0     		beq	.L657
 578:./Drivers/STM32F1xx_HAL_Driver/Src/stm32f1xx_hal_dma.c ****   {
 2802              		.loc 1 578 0 discriminator 5
 2803 050e 1431     		adds	r1, r1, #20
 2804 0510 8B42     		cmp	r3, r1
 2805 0512 31D0     		beq	.L658
 578:./Drivers/STM32F1xx_HAL_Driver/Src/stm32f1xx_hal_dma.c ****   {
 2806              		.loc 1 578 0 discriminator 7
 2807 0514 1431     		adds	r1, r1, #20
 2808 0516 8B42     		cmp	r3, r1
 2809 0518 2BD0     		beq	.L659
 578:./Drivers/STM32F1xx_HAL_Driver/Src/stm32f1xx_hal_dma.c ****   {
 2810              		.loc 1 578 0 discriminator 9
ARM GAS  /tmp/cc4JjNI1.s 			page 70


 2811 051a 1431     		adds	r1, r1, #20
 2812 051c 8B42     		cmp	r3, r1
 2813 051e 25D0     		beq	.L660
 578:./Drivers/STM32F1xx_HAL_Driver/Src/stm32f1xx_hal_dma.c ****   {
 2814              		.loc 1 578 0 discriminator 11
 2815 0520 1431     		adds	r1, r1, #20
 2816 0522 8B42     		cmp	r3, r1
 2817 0524 1FD0     		beq	.L661
 578:./Drivers/STM32F1xx_HAL_Driver/Src/stm32f1xx_hal_dma.c ****   {
 2818              		.loc 1 578 0 discriminator 13
 2819 0526 1431     		adds	r1, r1, #20
 2820 0528 8B42     		cmp	r3, r1
 2821 052a 19D0     		beq	.L662
 578:./Drivers/STM32F1xx_HAL_Driver/Src/stm32f1xx_hal_dma.c ****   {
 2822              		.loc 1 578 0 discriminator 15
 2823 052c 01F56271 		add	r1, r1, #904
 2824 0530 8B42     		cmp	r3, r1
 2825 0532 13D0     		beq	.L663
 578:./Drivers/STM32F1xx_HAL_Driver/Src/stm32f1xx_hal_dma.c ****   {
 2826              		.loc 1 578 0 discriminator 17
 2827 0534 1431     		adds	r1, r1, #20
 2828 0536 8B42     		cmp	r3, r1
 2829 0538 0ED0     		beq	.L664
 578:./Drivers/STM32F1xx_HAL_Driver/Src/stm32f1xx_hal_dma.c ****   {
 2830              		.loc 1 578 0 discriminator 19
 2831 053a 1431     		adds	r1, r1, #20
 2832 053c 8B42     		cmp	r3, r1
 2833 053e 08D0     		beq	.L665
 578:./Drivers/STM32F1xx_HAL_Driver/Src/stm32f1xx_hal_dma.c ****   {
 2834              		.loc 1 578 0 discriminator 21
 2835 0540 1431     		adds	r1, r1, #20
 2836 0542 8B42     		cmp	r3, r1
 2837 0544 02D1     		bne	.L666
 578:./Drivers/STM32F1xx_HAL_Driver/Src/stm32f1xx_hal_dma.c ****   {
 2838              		.loc 1 578 0
 2839 0546 4FF40051 		mov	r1, #8192
 2840 054a 1BE0     		b	.L519
 2841              	.L666:
 2842 054c 4FF40031 		mov	r1, #131072
 2843 0550 18E0     		b	.L519
 2844              	.L665:
 2845 0552 4FF40071 		mov	r1, #512
 2846 0556 15E0     		b	.L519
 2847              	.L664:
 2848 0558 2021     		movs	r1, #32
 2849 055a 13E0     		b	.L519
 2850              	.L663:
 2851 055c 0221     		movs	r1, #2
 2852 055e 11E0     		b	.L519
 2853              	.L662:
 2854 0560 4FF00071 		mov	r1, #33554432
 2855 0564 0EE0     		b	.L519
 2856              	.L661:
 2857 0566 4FF40011 		mov	r1, #2097152
 2858 056a 0BE0     		b	.L519
 2859              	.L660:
 2860 056c 4FF40031 		mov	r1, #131072
ARM GAS  /tmp/cc4JjNI1.s 			page 71


 2861 0570 08E0     		b	.L519
 2862              	.L659:
 2863 0572 4FF40051 		mov	r1, #8192
 2864 0576 05E0     		b	.L519
 2865              	.L658:
 2866 0578 4FF40071 		mov	r1, #512
 2867 057c 02E0     		b	.L519
 2868              	.L657:
 2869 057e 2021     		movs	r1, #32
 2870 0580 00E0     		b	.L519
 2871              	.L656:
 2872 0582 0221     		movs	r1, #2
 2873              	.L519:
 578:./Drivers/STM32F1xx_HAL_Driver/Src/stm32f1xx_hal_dma.c ****   {
 2874              		.loc 1 578 0 discriminator 46
 2875 0584 0A42     		tst	r2, r1
 2876 0586 14BF     		ite	ne
 2877 0588 0122     		movne	r2, #1
 2878 058a 0022     		moveq	r2, #0
 2879 058c 4FE0     		b	.L530
 2880              	.L518:
 578:./Drivers/STM32F1xx_HAL_Driver/Src/stm32f1xx_hal_dma.c ****   {
 2881              		.loc 1 578 0 discriminator 2
 2882 058e 1A4A     		ldr	r2, .L703
 2883 0590 1268     		ldr	r2, [r2]
 2884 0592 1A49     		ldr	r1, .L703+4
 2885 0594 8B42     		cmp	r3, r1
 2886 0596 45D0     		beq	.L667
 578:./Drivers/STM32F1xx_HAL_Driver/Src/stm32f1xx_hal_dma.c ****   {
 2887              		.loc 1 578 0 discriminator 48
 2888 0598 1431     		adds	r1, r1, #20
 2889 059a 8B42     		cmp	r3, r1
 2890 059c 40D0     		beq	.L668
 578:./Drivers/STM32F1xx_HAL_Driver/Src/stm32f1xx_hal_dma.c ****   {
 2891              		.loc 1 578 0 discriminator 50
 2892 059e 1431     		adds	r1, r1, #20
 2893 05a0 8B42     		cmp	r3, r1
 2894 05a2 3AD0     		beq	.L669
 578:./Drivers/STM32F1xx_HAL_Driver/Src/stm32f1xx_hal_dma.c ****   {
 2895              		.loc 1 578 0 discriminator 52
 2896 05a4 1431     		adds	r1, r1, #20
 2897 05a6 8B42     		cmp	r3, r1
 2898 05a8 34D0     		beq	.L670
 578:./Drivers/STM32F1xx_HAL_Driver/Src/stm32f1xx_hal_dma.c ****   {
 2899              		.loc 1 578 0 discriminator 54
 2900 05aa 1431     		adds	r1, r1, #20
 2901 05ac 8B42     		cmp	r3, r1
 2902 05ae 2ED0     		beq	.L671
 578:./Drivers/STM32F1xx_HAL_Driver/Src/stm32f1xx_hal_dma.c ****   {
 2903              		.loc 1 578 0 discriminator 56
 2904 05b0 1431     		adds	r1, r1, #20
 2905 05b2 8B42     		cmp	r3, r1
 2906 05b4 28D0     		beq	.L672
 578:./Drivers/STM32F1xx_HAL_Driver/Src/stm32f1xx_hal_dma.c ****   {
 2907              		.loc 1 578 0 discriminator 58
 2908 05b6 1431     		adds	r1, r1, #20
 2909 05b8 8B42     		cmp	r3, r1
ARM GAS  /tmp/cc4JjNI1.s 			page 72


 2910 05ba 19D0     		beq	.L673
 578:./Drivers/STM32F1xx_HAL_Driver/Src/stm32f1xx_hal_dma.c ****   {
 2911              		.loc 1 578 0 discriminator 60
 2912 05bc 01F56271 		add	r1, r1, #904
 2913 05c0 8B42     		cmp	r3, r1
 2914 05c2 13D0     		beq	.L674
 578:./Drivers/STM32F1xx_HAL_Driver/Src/stm32f1xx_hal_dma.c ****   {
 2915              		.loc 1 578 0 discriminator 62
 2916 05c4 1431     		adds	r1, r1, #20
 2917 05c6 8B42     		cmp	r3, r1
 2918 05c8 0ED0     		beq	.L675
 578:./Drivers/STM32F1xx_HAL_Driver/Src/stm32f1xx_hal_dma.c ****   {
 2919              		.loc 1 578 0 discriminator 64
 2920 05ca 1431     		adds	r1, r1, #20
 2921 05cc 8B42     		cmp	r3, r1
 2922 05ce 08D0     		beq	.L676
 578:./Drivers/STM32F1xx_HAL_Driver/Src/stm32f1xx_hal_dma.c ****   {
 2923              		.loc 1 578 0 discriminator 66
 2924 05d0 1431     		adds	r1, r1, #20
 2925 05d2 8B42     		cmp	r3, r1
 2926 05d4 02D1     		bne	.L677
 578:./Drivers/STM32F1xx_HAL_Driver/Src/stm32f1xx_hal_dma.c ****   {
 2927              		.loc 1 578 0
 2928 05d6 4FF40051 		mov	r1, #8192
 2929 05da 24E0     		b	.L531
 2930              	.L677:
 2931 05dc 4FF40031 		mov	r1, #131072
 2932 05e0 21E0     		b	.L531
 2933              	.L676:
 2934 05e2 4FF40071 		mov	r1, #512
 2935 05e6 1EE0     		b	.L531
 2936              	.L675:
 2937 05e8 2021     		movs	r1, #32
 2938 05ea 1CE0     		b	.L531
 2939              	.L674:
 2940 05ec 0221     		movs	r1, #2
 2941 05ee 1AE0     		b	.L531
 2942              	.L673:
 2943 05f0 4FF00071 		mov	r1, #33554432
 2944 05f4 17E0     		b	.L531
 2945              	.L704:
 2946 05f6 00BF     		.align	2
 2947              	.L703:
 2948 05f8 00000240 		.word	1073872896
 2949 05fc 08000240 		.word	1073872904
 2950 0600 80000240 		.word	1073873024
 2951 0604 00040240 		.word	1073873920
 2952              	.L672:
 2953 0608 4FF40011 		mov	r1, #2097152
 2954 060c 0BE0     		b	.L531
 2955              	.L671:
 2956 060e 4FF40031 		mov	r1, #131072
 2957 0612 08E0     		b	.L531
 2958              	.L670:
 2959 0614 4FF40051 		mov	r1, #8192
 2960 0618 05E0     		b	.L531
 2961              	.L669:
ARM GAS  /tmp/cc4JjNI1.s 			page 73


 2962 061a 4FF40071 		mov	r1, #512
 2963 061e 02E0     		b	.L531
 2964              	.L668:
 2965 0620 2021     		movs	r1, #32
 2966 0622 00E0     		b	.L531
 2967              	.L667:
 2968 0624 0221     		movs	r1, #2
 2969              	.L531:
 578:./Drivers/STM32F1xx_HAL_Driver/Src/stm32f1xx_hal_dma.c ****   {
 2970              		.loc 1 578 0 discriminator 91
 2971 0626 0A42     		tst	r2, r1
 2972 0628 14BF     		ite	ne
 2973 062a 0122     		movne	r2, #1
 2974 062c 0022     		moveq	r2, #0
 2975              	.L530:
 578:./Drivers/STM32F1xx_HAL_Driver/Src/stm32f1xx_hal_dma.c ****   {
 2976              		.loc 1 578 0 discriminator 92
 2977 062e 002A     		cmp	r2, #0
 2978 0630 00F0A480 		beq	.L418
 580:./Drivers/STM32F1xx_HAL_Driver/Src/stm32f1xx_hal_dma.c ****     {
 2979              		.loc 1 580 0 is_stmt 1
 2980 0634 1A68     		ldr	r2, [r3]
 2981 0636 12F0020F 		tst	r2, #2
 2982 063a 00F09F80 		beq	.L418
 582:./Drivers/STM32F1xx_HAL_Driver/Src/stm32f1xx_hal_dma.c ****       {
 2983              		.loc 1 582 0
 2984 063e 1A68     		ldr	r2, [r3]
 2985 0640 12F0200F 		tst	r2, #32
 2986 0644 03D1     		bne	.L543
 585:./Drivers/STM32F1xx_HAL_Driver/Src/stm32f1xx_hal_dma.c ****       }
 2987              		.loc 1 585 0
 2988 0646 1A68     		ldr	r2, [r3]
 2989 0648 22F00202 		bic	r2, r2, #2
 2990 064c 1A60     		str	r2, [r3]
 2991              	.L543:
 588:./Drivers/STM32F1xx_HAL_Driver/Src/stm32f1xx_hal_dma.c ****     
 2992              		.loc 1 588 0
 2993 064e 2368     		ldr	r3, [r4]
 2994 0650 4B4A     		ldr	r2, .L705
 2995 0652 9342     		cmp	r3, r2
 2996 0654 43D9     		bls	.L544
 588:./Drivers/STM32F1xx_HAL_Driver/Src/stm32f1xx_hal_dma.c ****     
 2997              		.loc 1 588 0 is_stmt 0 discriminator 1
 2998 0656 783A     		subs	r2, r2, #120
 2999 0658 9342     		cmp	r3, r2
 3000 065a 3CD0     		beq	.L678
 588:./Drivers/STM32F1xx_HAL_Driver/Src/stm32f1xx_hal_dma.c ****     
 3001              		.loc 1 588 0 discriminator 3
 3002 065c 1432     		adds	r2, r2, #20
 3003 065e 9342     		cmp	r3, r2
 3004 0660 37D0     		beq	.L679
 588:./Drivers/STM32F1xx_HAL_Driver/Src/stm32f1xx_hal_dma.c ****     
 3005              		.loc 1 588 0 discriminator 5
 3006 0662 1432     		adds	r2, r2, #20
 3007 0664 9342     		cmp	r3, r2
 3008 0666 31D0     		beq	.L680
 588:./Drivers/STM32F1xx_HAL_Driver/Src/stm32f1xx_hal_dma.c ****     
ARM GAS  /tmp/cc4JjNI1.s 			page 74


 3009              		.loc 1 588 0 discriminator 7
 3010 0668 1432     		adds	r2, r2, #20
 3011 066a 9342     		cmp	r3, r2
 3012 066c 2BD0     		beq	.L681
 588:./Drivers/STM32F1xx_HAL_Driver/Src/stm32f1xx_hal_dma.c ****     
 3013              		.loc 1 588 0 discriminator 9
 3014 066e 1432     		adds	r2, r2, #20
 3015 0670 9342     		cmp	r3, r2
 3016 0672 25D0     		beq	.L682
 588:./Drivers/STM32F1xx_HAL_Driver/Src/stm32f1xx_hal_dma.c ****     
 3017              		.loc 1 588 0 discriminator 11
 3018 0674 1432     		adds	r2, r2, #20
 3019 0676 9342     		cmp	r3, r2
 3020 0678 1FD0     		beq	.L683
 588:./Drivers/STM32F1xx_HAL_Driver/Src/stm32f1xx_hal_dma.c ****     
 3021              		.loc 1 588 0 discriminator 13
 3022 067a 1432     		adds	r2, r2, #20
 3023 067c 9342     		cmp	r3, r2
 3024 067e 19D0     		beq	.L684
 588:./Drivers/STM32F1xx_HAL_Driver/Src/stm32f1xx_hal_dma.c ****     
 3025              		.loc 1 588 0 discriminator 15
 3026 0680 02F56272 		add	r2, r2, #904
 3027 0684 9342     		cmp	r3, r2
 3028 0686 13D0     		beq	.L685
 588:./Drivers/STM32F1xx_HAL_Driver/Src/stm32f1xx_hal_dma.c ****     
 3029              		.loc 1 588 0 discriminator 17
 3030 0688 1432     		adds	r2, r2, #20
 3031 068a 9342     		cmp	r3, r2
 3032 068c 0ED0     		beq	.L686
 588:./Drivers/STM32F1xx_HAL_Driver/Src/stm32f1xx_hal_dma.c ****     
 3033              		.loc 1 588 0 discriminator 19
 3034 068e 1432     		adds	r2, r2, #20
 3035 0690 9342     		cmp	r3, r2
 3036 0692 08D0     		beq	.L687
 588:./Drivers/STM32F1xx_HAL_Driver/Src/stm32f1xx_hal_dma.c ****     
 3037              		.loc 1 588 0 discriminator 21
 3038 0694 1432     		adds	r2, r2, #20
 3039 0696 9342     		cmp	r3, r2
 3040 0698 02D1     		bne	.L688
 588:./Drivers/STM32F1xx_HAL_Driver/Src/stm32f1xx_hal_dma.c ****     
 3041              		.loc 1 588 0
 3042 069a 4FF40052 		mov	r2, #8192
 3043 069e 1BE0     		b	.L545
 3044              	.L688:
 3045 06a0 4FF40032 		mov	r2, #131072
 3046 06a4 18E0     		b	.L545
 3047              	.L687:
 3048 06a6 4FF40072 		mov	r2, #512
 3049 06aa 15E0     		b	.L545
 3050              	.L686:
 3051 06ac 2022     		movs	r2, #32
 3052 06ae 13E0     		b	.L545
 3053              	.L685:
 3054 06b0 0222     		movs	r2, #2
 3055 06b2 11E0     		b	.L545
 3056              	.L684:
 3057 06b4 4FF00072 		mov	r2, #33554432
ARM GAS  /tmp/cc4JjNI1.s 			page 75


 3058 06b8 0EE0     		b	.L545
 3059              	.L683:
 3060 06ba 4FF40012 		mov	r2, #2097152
 3061 06be 0BE0     		b	.L545
 3062              	.L682:
 3063 06c0 4FF40032 		mov	r2, #131072
 3064 06c4 08E0     		b	.L545
 3065              	.L681:
 3066 06c6 4FF40052 		mov	r2, #8192
 3067 06ca 05E0     		b	.L545
 3068              	.L680:
 3069 06cc 4FF40072 		mov	r2, #512
 3070 06d0 02E0     		b	.L545
 3071              	.L679:
 3072 06d2 2022     		movs	r2, #32
 3073 06d4 00E0     		b	.L545
 3074              	.L678:
 3075 06d6 0222     		movs	r2, #2
 3076              	.L545:
 588:./Drivers/STM32F1xx_HAL_Driver/Src/stm32f1xx_hal_dma.c ****     
 3077              		.loc 1 588 0 discriminator 46
 3078 06d8 2A4B     		ldr	r3, .L705+4
 3079 06da 5A60     		str	r2, [r3, #4]
 3080 06dc 42E0     		b	.L556
 3081              	.L544:
 588:./Drivers/STM32F1xx_HAL_Driver/Src/stm32f1xx_hal_dma.c ****     
 3082              		.loc 1 588 0 discriminator 2
 3083 06de 2A4A     		ldr	r2, .L705+8
 3084 06e0 9342     		cmp	r3, r2
 3085 06e2 3CD0     		beq	.L689
 588:./Drivers/STM32F1xx_HAL_Driver/Src/stm32f1xx_hal_dma.c ****     
 3086              		.loc 1 588 0 discriminator 47
 3087 06e4 1432     		adds	r2, r2, #20
 3088 06e6 9342     		cmp	r3, r2
 3089 06e8 37D0     		beq	.L690
 588:./Drivers/STM32F1xx_HAL_Driver/Src/stm32f1xx_hal_dma.c ****     
 3090              		.loc 1 588 0 discriminator 49
 3091 06ea 1432     		adds	r2, r2, #20
 3092 06ec 9342     		cmp	r3, r2
 3093 06ee 31D0     		beq	.L691
 588:./Drivers/STM32F1xx_HAL_Driver/Src/stm32f1xx_hal_dma.c ****     
 3094              		.loc 1 588 0 discriminator 51
 3095 06f0 1432     		adds	r2, r2, #20
 3096 06f2 9342     		cmp	r3, r2
 3097 06f4 2BD0     		beq	.L692
 588:./Drivers/STM32F1xx_HAL_Driver/Src/stm32f1xx_hal_dma.c ****     
 3098              		.loc 1 588 0 discriminator 53
 3099 06f6 1432     		adds	r2, r2, #20
 3100 06f8 9342     		cmp	r3, r2
 3101 06fa 25D0     		beq	.L693
 588:./Drivers/STM32F1xx_HAL_Driver/Src/stm32f1xx_hal_dma.c ****     
 3102              		.loc 1 588 0 discriminator 55
 3103 06fc 1432     		adds	r2, r2, #20
 3104 06fe 9342     		cmp	r3, r2
 3105 0700 1FD0     		beq	.L694
 588:./Drivers/STM32F1xx_HAL_Driver/Src/stm32f1xx_hal_dma.c ****     
 3106              		.loc 1 588 0 discriminator 57
ARM GAS  /tmp/cc4JjNI1.s 			page 76


 3107 0702 1432     		adds	r2, r2, #20
 3108 0704 9342     		cmp	r3, r2
 3109 0706 19D0     		beq	.L695
 588:./Drivers/STM32F1xx_HAL_Driver/Src/stm32f1xx_hal_dma.c ****     
 3110              		.loc 1 588 0 discriminator 59
 3111 0708 02F56272 		add	r2, r2, #904
 3112 070c 9342     		cmp	r3, r2
 3113 070e 13D0     		beq	.L696
 588:./Drivers/STM32F1xx_HAL_Driver/Src/stm32f1xx_hal_dma.c ****     
 3114              		.loc 1 588 0 discriminator 61
 3115 0710 1432     		adds	r2, r2, #20
 3116 0712 9342     		cmp	r3, r2
 3117 0714 0ED0     		beq	.L697
 588:./Drivers/STM32F1xx_HAL_Driver/Src/stm32f1xx_hal_dma.c ****     
 3118              		.loc 1 588 0 discriminator 63
 3119 0716 1432     		adds	r2, r2, #20
 3120 0718 9342     		cmp	r3, r2
 3121 071a 08D0     		beq	.L698
 588:./Drivers/STM32F1xx_HAL_Driver/Src/stm32f1xx_hal_dma.c ****     
 3122              		.loc 1 588 0 discriminator 65
 3123 071c 1432     		adds	r2, r2, #20
 3124 071e 9342     		cmp	r3, r2
 3125 0720 02D1     		bne	.L699
 588:./Drivers/STM32F1xx_HAL_Driver/Src/stm32f1xx_hal_dma.c ****     
 3126              		.loc 1 588 0
 3127 0722 4FF40052 		mov	r2, #8192
 3128 0726 1BE0     		b	.L557
 3129              	.L699:
 3130 0728 4FF40032 		mov	r2, #131072
 3131 072c 18E0     		b	.L557
 3132              	.L698:
 3133 072e 4FF40072 		mov	r2, #512
 3134 0732 15E0     		b	.L557
 3135              	.L697:
 3136 0734 2022     		movs	r2, #32
 3137 0736 13E0     		b	.L557
 3138              	.L696:
 3139 0738 0222     		movs	r2, #2
 3140 073a 11E0     		b	.L557
 3141              	.L695:
 3142 073c 4FF00072 		mov	r2, #33554432
 3143 0740 0EE0     		b	.L557
 3144              	.L694:
 3145 0742 4FF40012 		mov	r2, #2097152
 3146 0746 0BE0     		b	.L557
 3147              	.L693:
 3148 0748 4FF40032 		mov	r2, #131072
 3149 074c 08E0     		b	.L557
 3150              	.L692:
 3151 074e 4FF40052 		mov	r2, #8192
 3152 0752 05E0     		b	.L557
 3153              	.L691:
 3154 0754 4FF40072 		mov	r2, #512
 3155 0758 02E0     		b	.L557
 3156              	.L690:
 3157 075a 2022     		movs	r2, #32
 3158 075c 00E0     		b	.L557
ARM GAS  /tmp/cc4JjNI1.s 			page 77


 3159              	.L689:
 3160 075e 0222     		movs	r2, #2
 3161              	.L557:
 588:./Drivers/STM32F1xx_HAL_Driver/Src/stm32f1xx_hal_dma.c ****     
 3162              		.loc 1 588 0 discriminator 90
 3163 0760 0A4B     		ldr	r3, .L705+12
 3164 0762 5A60     		str	r2, [r3, #4]
 3165              	.L556:
 591:./Drivers/STM32F1xx_HAL_Driver/Src/stm32f1xx_hal_dma.c **** 
 3166              		.loc 1 591 0 is_stmt 1
 3167 0764 636B     		ldr	r3, [r4, #52]
 3168 0766 6363     		str	r3, [r4, #52]
 594:./Drivers/STM32F1xx_HAL_Driver/Src/stm32f1xx_hal_dma.c ****     
 3169              		.loc 1 594 0
 3170 0768 0123     		movs	r3, #1
 3171 076a 84F82130 		strb	r3, [r4, #33]
 597:./Drivers/STM32F1xx_HAL_Driver/Src/stm32f1xx_hal_dma.c ****     
 3172              		.loc 1 597 0
 3173 076e 0023     		movs	r3, #0
 3174 0770 84F82030 		strb	r3, [r4, #32]
 599:./Drivers/STM32F1xx_HAL_Driver/Src/stm32f1xx_hal_dma.c ****       {       
 3175              		.loc 1 599 0
 3176 0774 A36A     		ldr	r3, [r4, #40]
 3177 0776 0BB1     		cbz	r3, .L418
 602:./Drivers/STM32F1xx_HAL_Driver/Src/stm32f1xx_hal_dma.c ****       }
 3178              		.loc 1 602 0
 3179 0778 2046     		mov	r0, r4
 3180 077a 9847     		blx	r3
 3181              	.LVL56:
 3182              	.L418:
 3183 077c 10BD     		pop	{r4, pc}
 3184              	.LVL57:
 3185              	.L706:
 3186 077e 00BF     		.align	2
 3187              	.L705:
 3188 0780 80000240 		.word	1073873024
 3189 0784 00040240 		.word	1073873920
 3190 0788 08000240 		.word	1073872904
 3191 078c 00000240 		.word	1073872896
 3192              		.cfi_endproc
 3193              	.LFE69:
 3195              		.section	.text.HAL_DMA_GetState,"ax",%progbits
 3196              		.align	2
 3197              		.global	HAL_DMA_GetState
 3198              		.thumb
 3199              		.thumb_func
 3201              	HAL_DMA_GetState:
 3202              	.LFB70:
 635:./Drivers/STM32F1xx_HAL_Driver/Src/stm32f1xx_hal_dma.c ****   return hdma->State;
 3203              		.loc 1 635 0
 3204              		.cfi_startproc
 3205              		@ args = 0, pretend = 0, frame = 0
 3206              		@ frame_needed = 0, uses_anonymous_args = 0
 3207              		@ link register save eliminated.
 3208              	.LVL58:
 637:./Drivers/STM32F1xx_HAL_Driver/Src/stm32f1xx_hal_dma.c **** 
 3209              		.loc 1 637 0
ARM GAS  /tmp/cc4JjNI1.s 			page 78


 3210 0000 90F82100 		ldrb	r0, [r0, #33]	@ zero_extendqisi2
 3211              	.LVL59:
 3212 0004 7047     		bx	lr
 3213              		.cfi_endproc
 3214              	.LFE70:
 3216 0006 00BF     		.section	.text.HAL_DMA_GetError,"ax",%progbits
 3217              		.align	2
 3218              		.global	HAL_DMA_GetError
 3219              		.thumb
 3220              		.thumb_func
 3222              	HAL_DMA_GetError:
 3223              	.LFB71:
 646:./Drivers/STM32F1xx_HAL_Driver/Src/stm32f1xx_hal_dma.c ****   return hdma->ErrorCode;
 3224              		.loc 1 646 0
 3225              		.cfi_startproc
 3226              		@ args = 0, pretend = 0, frame = 0
 3227              		@ frame_needed = 0, uses_anonymous_args = 0
 3228              		@ link register save eliminated.
 3229              	.LVL60:
 647:./Drivers/STM32F1xx_HAL_Driver/Src/stm32f1xx_hal_dma.c **** }
 3230              		.loc 1 647 0
 3231 0000 406B     		ldr	r0, [r0, #52]
 3232              	.LVL61:
 648:./Drivers/STM32F1xx_HAL_Driver/Src/stm32f1xx_hal_dma.c **** 
 3233              		.loc 1 648 0
 3234 0002 7047     		bx	lr
 3235              		.cfi_endproc
 3236              	.LFE71:
 3238              		.text
 3239              	.Letext0:
 3240              		.file 2 "/usr/include/newlib/machine/_default_types.h"
 3241              		.file 3 "/usr/include/newlib/sys/_stdint.h"
 3242              		.file 4 "./Drivers/CMSIS/Device/ST/STM32F1xx/Include/stm32f103xe.h"
 3243              		.file 5 "./Drivers/CMSIS/Device/ST/STM32F1xx/Include/stm32f1xx.h"
 3244              		.file 6 "./Drivers/STM32F1xx_HAL_Driver/Inc/stm32f1xx_hal_def.h"
 3245              		.file 7 "./Drivers/STM32F1xx_HAL_Driver/Inc/stm32f1xx_hal_dma.h"
 3246              		.file 8 "./Drivers/CMSIS/Include/core_cm3.h"
 3247              		.file 9 "./Drivers/STM32F1xx_HAL_Driver/Inc/stm32f1xx_hal.h"
ARM GAS  /tmp/cc4JjNI1.s 			page 79

