ARM GAS  /tmp/ccYoZV6o.s 			page 1


   1              		.syntax unified
   2              		.cpu cortex-m3
   3              		.fpu softvfp
   4              		.eabi_attribute 20, 1
   5              		.eabi_attribute 21, 1
   6              		.eabi_attribute 23, 3
   7              		.eabi_attribute 24, 1
   8              		.eabi_attribute 25, 1
   9              		.eabi_attribute 26, 1
  10              		.eabi_attribute 30, 1
  11              		.eabi_attribute 34, 1
  12              		.eabi_attribute 18, 4
  13              		.thumb
  14              		.file	"stm32f1xx_hal_rcc_ex.c"
  15              		.text
  16              	.Ltext0:
  17              		.cfi_sections	.debug_frame
  18              		.section	.text.HAL_RCCEx_PeriphCLKConfig,"ax",%progbits
  19              		.align	2
  20              		.global	HAL_RCCEx_PeriphCLKConfig
  21              		.thumb
  22              		.thumb_func
  24              	HAL_RCCEx_PeriphCLKConfig:
  25              	.LFB63:
  26              		.file 1 "./Drivers/STM32F1xx_HAL_Driver/Src/stm32f1xx_hal_rcc_ex.c"
   1:./Drivers/STM32F1xx_HAL_Driver/Src/stm32f1xx_hal_rcc_ex.c **** /**
   2:./Drivers/STM32F1xx_HAL_Driver/Src/stm32f1xx_hal_rcc_ex.c ****   ******************************************************************************
   3:./Drivers/STM32F1xx_HAL_Driver/Src/stm32f1xx_hal_rcc_ex.c ****   * @file    stm32f1xx_hal_rcc_ex.c
   4:./Drivers/STM32F1xx_HAL_Driver/Src/stm32f1xx_hal_rcc_ex.c ****   * @author  MCD Application Team
   5:./Drivers/STM32F1xx_HAL_Driver/Src/stm32f1xx_hal_rcc_ex.c ****   * @version V1.0.4
   6:./Drivers/STM32F1xx_HAL_Driver/Src/stm32f1xx_hal_rcc_ex.c ****   * @date    29-April-2016
   7:./Drivers/STM32F1xx_HAL_Driver/Src/stm32f1xx_hal_rcc_ex.c ****   * @brief   Extended RCC HAL module driver.
   8:./Drivers/STM32F1xx_HAL_Driver/Src/stm32f1xx_hal_rcc_ex.c ****   *          This file provides firmware functions to manage the following 
   9:./Drivers/STM32F1xx_HAL_Driver/Src/stm32f1xx_hal_rcc_ex.c ****   *          functionalities RCC extension peripheral:
  10:./Drivers/STM32F1xx_HAL_Driver/Src/stm32f1xx_hal_rcc_ex.c ****   *           + Extended Peripheral Control functions
  11:./Drivers/STM32F1xx_HAL_Driver/Src/stm32f1xx_hal_rcc_ex.c ****   *  
  12:./Drivers/STM32F1xx_HAL_Driver/Src/stm32f1xx_hal_rcc_ex.c ****   ******************************************************************************
  13:./Drivers/STM32F1xx_HAL_Driver/Src/stm32f1xx_hal_rcc_ex.c ****   * @attention
  14:./Drivers/STM32F1xx_HAL_Driver/Src/stm32f1xx_hal_rcc_ex.c ****   *
  15:./Drivers/STM32F1xx_HAL_Driver/Src/stm32f1xx_hal_rcc_ex.c ****   * <h2><center>&copy; COPYRIGHT(c) 2016 STMicroelectronics</center></h2>
  16:./Drivers/STM32F1xx_HAL_Driver/Src/stm32f1xx_hal_rcc_ex.c ****   *
  17:./Drivers/STM32F1xx_HAL_Driver/Src/stm32f1xx_hal_rcc_ex.c ****   * Redistribution and use in source and binary forms, with or without modification,
  18:./Drivers/STM32F1xx_HAL_Driver/Src/stm32f1xx_hal_rcc_ex.c ****   * are permitted provided that the following conditions are met:
  19:./Drivers/STM32F1xx_HAL_Driver/Src/stm32f1xx_hal_rcc_ex.c ****   *   1. Redistributions of source code must retain the above copyright notice,
  20:./Drivers/STM32F1xx_HAL_Driver/Src/stm32f1xx_hal_rcc_ex.c ****   *      this list of conditions and the following disclaimer.
  21:./Drivers/STM32F1xx_HAL_Driver/Src/stm32f1xx_hal_rcc_ex.c ****   *   2. Redistributions in binary form must reproduce the above copyright notice,
  22:./Drivers/STM32F1xx_HAL_Driver/Src/stm32f1xx_hal_rcc_ex.c ****   *      this list of conditions and the following disclaimer in the documentation
  23:./Drivers/STM32F1xx_HAL_Driver/Src/stm32f1xx_hal_rcc_ex.c ****   *      and/or other materials provided with the distribution.
  24:./Drivers/STM32F1xx_HAL_Driver/Src/stm32f1xx_hal_rcc_ex.c ****   *   3. Neither the name of STMicroelectronics nor the names of its contributors
  25:./Drivers/STM32F1xx_HAL_Driver/Src/stm32f1xx_hal_rcc_ex.c ****   *      may be used to endorse or promote products derived from this software
  26:./Drivers/STM32F1xx_HAL_Driver/Src/stm32f1xx_hal_rcc_ex.c ****   *      without specific prior written permission.
  27:./Drivers/STM32F1xx_HAL_Driver/Src/stm32f1xx_hal_rcc_ex.c ****   *
  28:./Drivers/STM32F1xx_HAL_Driver/Src/stm32f1xx_hal_rcc_ex.c ****   * THIS SOFTWARE IS PROVIDED BY THE COPYRIGHT HOLDERS AND CONTRIBUTORS "AS IS"
  29:./Drivers/STM32F1xx_HAL_Driver/Src/stm32f1xx_hal_rcc_ex.c ****   * AND ANY EXPRESS OR IMPLIED WARRANTIES, INCLUDING, BUT NOT LIMITED TO, THE
  30:./Drivers/STM32F1xx_HAL_Driver/Src/stm32f1xx_hal_rcc_ex.c ****   * IMPLIED WARRANTIES OF MERCHANTABILITY AND FITNESS FOR A PARTICULAR PURPOSE ARE
  31:./Drivers/STM32F1xx_HAL_Driver/Src/stm32f1xx_hal_rcc_ex.c ****   * DISCLAIMED. IN NO EVENT SHALL THE COPYRIGHT HOLDER OR CONTRIBUTORS BE LIABLE
  32:./Drivers/STM32F1xx_HAL_Driver/Src/stm32f1xx_hal_rcc_ex.c ****   * FOR ANY DIRECT, INDIRECT, INCIDENTAL, SPECIAL, EXEMPLARY, OR CONSEQUENTIAL
ARM GAS  /tmp/ccYoZV6o.s 			page 2


  33:./Drivers/STM32F1xx_HAL_Driver/Src/stm32f1xx_hal_rcc_ex.c ****   * DAMAGES (INCLUDING, BUT NOT LIMITED TO, PROCUREMENT OF SUBSTITUTE GOODS OR
  34:./Drivers/STM32F1xx_HAL_Driver/Src/stm32f1xx_hal_rcc_ex.c ****   * SERVICES; LOSS OF USE, DATA, OR PROFITS; OR BUSINESS INTERRUPTION) HOWEVER
  35:./Drivers/STM32F1xx_HAL_Driver/Src/stm32f1xx_hal_rcc_ex.c ****   * CAUSED AND ON ANY THEORY OF LIABILITY, WHETHER IN CONTRACT, STRICT LIABILITY,
  36:./Drivers/STM32F1xx_HAL_Driver/Src/stm32f1xx_hal_rcc_ex.c ****   * OR TORT (INCLUDING NEGLIGENCE OR OTHERWISE) ARISING IN ANY WAY OUT OF THE USE
  37:./Drivers/STM32F1xx_HAL_Driver/Src/stm32f1xx_hal_rcc_ex.c ****   * OF THIS SOFTWARE, EVEN IF ADVISED OF THE POSSIBILITY OF SUCH DAMAGE.
  38:./Drivers/STM32F1xx_HAL_Driver/Src/stm32f1xx_hal_rcc_ex.c ****   *
  39:./Drivers/STM32F1xx_HAL_Driver/Src/stm32f1xx_hal_rcc_ex.c ****   ******************************************************************************  
  40:./Drivers/STM32F1xx_HAL_Driver/Src/stm32f1xx_hal_rcc_ex.c ****   */ 
  41:./Drivers/STM32F1xx_HAL_Driver/Src/stm32f1xx_hal_rcc_ex.c **** 
  42:./Drivers/STM32F1xx_HAL_Driver/Src/stm32f1xx_hal_rcc_ex.c **** /* Includes ------------------------------------------------------------------*/
  43:./Drivers/STM32F1xx_HAL_Driver/Src/stm32f1xx_hal_rcc_ex.c **** #include "stm32f1xx_hal.h"
  44:./Drivers/STM32F1xx_HAL_Driver/Src/stm32f1xx_hal_rcc_ex.c **** 
  45:./Drivers/STM32F1xx_HAL_Driver/Src/stm32f1xx_hal_rcc_ex.c **** /** @addtogroup STM32F1xx_HAL_Driver
  46:./Drivers/STM32F1xx_HAL_Driver/Src/stm32f1xx_hal_rcc_ex.c ****   * @{
  47:./Drivers/STM32F1xx_HAL_Driver/Src/stm32f1xx_hal_rcc_ex.c ****   */
  48:./Drivers/STM32F1xx_HAL_Driver/Src/stm32f1xx_hal_rcc_ex.c **** 
  49:./Drivers/STM32F1xx_HAL_Driver/Src/stm32f1xx_hal_rcc_ex.c **** #ifdef HAL_RCC_MODULE_ENABLED
  50:./Drivers/STM32F1xx_HAL_Driver/Src/stm32f1xx_hal_rcc_ex.c **** 
  51:./Drivers/STM32F1xx_HAL_Driver/Src/stm32f1xx_hal_rcc_ex.c **** /** @defgroup RCCEx RCCEx
  52:./Drivers/STM32F1xx_HAL_Driver/Src/stm32f1xx_hal_rcc_ex.c ****   * @brief RCC Extension HAL module driver.
  53:./Drivers/STM32F1xx_HAL_Driver/Src/stm32f1xx_hal_rcc_ex.c ****   * @{
  54:./Drivers/STM32F1xx_HAL_Driver/Src/stm32f1xx_hal_rcc_ex.c ****   */
  55:./Drivers/STM32F1xx_HAL_Driver/Src/stm32f1xx_hal_rcc_ex.c **** 
  56:./Drivers/STM32F1xx_HAL_Driver/Src/stm32f1xx_hal_rcc_ex.c **** /* Private typedef -----------------------------------------------------------*/
  57:./Drivers/STM32F1xx_HAL_Driver/Src/stm32f1xx_hal_rcc_ex.c **** /* Private define ------------------------------------------------------------*/
  58:./Drivers/STM32F1xx_HAL_Driver/Src/stm32f1xx_hal_rcc_ex.c **** /** @defgroup RCCEx_Private_Constants RCCEx Private Constants
  59:./Drivers/STM32F1xx_HAL_Driver/Src/stm32f1xx_hal_rcc_ex.c ****  * @{
  60:./Drivers/STM32F1xx_HAL_Driver/Src/stm32f1xx_hal_rcc_ex.c ****  */
  61:./Drivers/STM32F1xx_HAL_Driver/Src/stm32f1xx_hal_rcc_ex.c **** /**
  62:./Drivers/STM32F1xx_HAL_Driver/Src/stm32f1xx_hal_rcc_ex.c ****   * @}
  63:./Drivers/STM32F1xx_HAL_Driver/Src/stm32f1xx_hal_rcc_ex.c ****   */
  64:./Drivers/STM32F1xx_HAL_Driver/Src/stm32f1xx_hal_rcc_ex.c **** 
  65:./Drivers/STM32F1xx_HAL_Driver/Src/stm32f1xx_hal_rcc_ex.c **** /* Private macro -------------------------------------------------------------*/
  66:./Drivers/STM32F1xx_HAL_Driver/Src/stm32f1xx_hal_rcc_ex.c **** /** @defgroup RCCEx_Private_Macros RCCEx Private Macros
  67:./Drivers/STM32F1xx_HAL_Driver/Src/stm32f1xx_hal_rcc_ex.c ****  * @{
  68:./Drivers/STM32F1xx_HAL_Driver/Src/stm32f1xx_hal_rcc_ex.c ****  */
  69:./Drivers/STM32F1xx_HAL_Driver/Src/stm32f1xx_hal_rcc_ex.c **** /**
  70:./Drivers/STM32F1xx_HAL_Driver/Src/stm32f1xx_hal_rcc_ex.c ****   * @}
  71:./Drivers/STM32F1xx_HAL_Driver/Src/stm32f1xx_hal_rcc_ex.c ****   */
  72:./Drivers/STM32F1xx_HAL_Driver/Src/stm32f1xx_hal_rcc_ex.c **** 
  73:./Drivers/STM32F1xx_HAL_Driver/Src/stm32f1xx_hal_rcc_ex.c **** /* Private variables ---------------------------------------------------------*/
  74:./Drivers/STM32F1xx_HAL_Driver/Src/stm32f1xx_hal_rcc_ex.c **** /* Private function prototypes -----------------------------------------------*/
  75:./Drivers/STM32F1xx_HAL_Driver/Src/stm32f1xx_hal_rcc_ex.c **** /* Private functions ---------------------------------------------------------*/
  76:./Drivers/STM32F1xx_HAL_Driver/Src/stm32f1xx_hal_rcc_ex.c **** 
  77:./Drivers/STM32F1xx_HAL_Driver/Src/stm32f1xx_hal_rcc_ex.c **** /** @defgroup RCCEx_Exported_Functions RCCEx Exported Functions
  78:./Drivers/STM32F1xx_HAL_Driver/Src/stm32f1xx_hal_rcc_ex.c ****   * @{
  79:./Drivers/STM32F1xx_HAL_Driver/Src/stm32f1xx_hal_rcc_ex.c ****   */
  80:./Drivers/STM32F1xx_HAL_Driver/Src/stm32f1xx_hal_rcc_ex.c **** 
  81:./Drivers/STM32F1xx_HAL_Driver/Src/stm32f1xx_hal_rcc_ex.c **** /** @defgroup RCCEx_Exported_Functions_Group1 Peripheral Control functions 
  82:./Drivers/STM32F1xx_HAL_Driver/Src/stm32f1xx_hal_rcc_ex.c ****  *  @brief  Extended Peripheral Control functions  
  83:./Drivers/STM32F1xx_HAL_Driver/Src/stm32f1xx_hal_rcc_ex.c ****  *
  84:./Drivers/STM32F1xx_HAL_Driver/Src/stm32f1xx_hal_rcc_ex.c **** @verbatim   
  85:./Drivers/STM32F1xx_HAL_Driver/Src/stm32f1xx_hal_rcc_ex.c ****  ===============================================================================
  86:./Drivers/STM32F1xx_HAL_Driver/Src/stm32f1xx_hal_rcc_ex.c ****                 ##### Extended Peripheral Control functions  #####
  87:./Drivers/STM32F1xx_HAL_Driver/Src/stm32f1xx_hal_rcc_ex.c ****  ===============================================================================  
  88:./Drivers/STM32F1xx_HAL_Driver/Src/stm32f1xx_hal_rcc_ex.c ****     [..]
  89:./Drivers/STM32F1xx_HAL_Driver/Src/stm32f1xx_hal_rcc_ex.c ****     This subsection provides a set of functions allowing to control the RCC Clocks 
ARM GAS  /tmp/ccYoZV6o.s 			page 3


  90:./Drivers/STM32F1xx_HAL_Driver/Src/stm32f1xx_hal_rcc_ex.c ****     frequencies.
  91:./Drivers/STM32F1xx_HAL_Driver/Src/stm32f1xx_hal_rcc_ex.c ****     [..] 
  92:./Drivers/STM32F1xx_HAL_Driver/Src/stm32f1xx_hal_rcc_ex.c ****     (@) Important note: Care must be taken when HAL_RCCEx_PeriphCLKConfig() is used to
  93:./Drivers/STM32F1xx_HAL_Driver/Src/stm32f1xx_hal_rcc_ex.c ****         select the RTC clock source; in this case the Backup domain will be reset in  
  94:./Drivers/STM32F1xx_HAL_Driver/Src/stm32f1xx_hal_rcc_ex.c ****         order to modify the RTC Clock source, as consequence RTC registers (including 
  95:./Drivers/STM32F1xx_HAL_Driver/Src/stm32f1xx_hal_rcc_ex.c ****         the backup registers) are set to their reset values.
  96:./Drivers/STM32F1xx_HAL_Driver/Src/stm32f1xx_hal_rcc_ex.c ****       
  97:./Drivers/STM32F1xx_HAL_Driver/Src/stm32f1xx_hal_rcc_ex.c **** @endverbatim
  98:./Drivers/STM32F1xx_HAL_Driver/Src/stm32f1xx_hal_rcc_ex.c ****   * @{
  99:./Drivers/STM32F1xx_HAL_Driver/Src/stm32f1xx_hal_rcc_ex.c ****   */
 100:./Drivers/STM32F1xx_HAL_Driver/Src/stm32f1xx_hal_rcc_ex.c **** 
 101:./Drivers/STM32F1xx_HAL_Driver/Src/stm32f1xx_hal_rcc_ex.c **** /**
 102:./Drivers/STM32F1xx_HAL_Driver/Src/stm32f1xx_hal_rcc_ex.c ****   * @brief  Initializes the RCC extended peripherals clocks according to the specified parameters i
 103:./Drivers/STM32F1xx_HAL_Driver/Src/stm32f1xx_hal_rcc_ex.c ****   *         RCC_PeriphCLKInitTypeDef.
 104:./Drivers/STM32F1xx_HAL_Driver/Src/stm32f1xx_hal_rcc_ex.c ****   * @param  PeriphClkInit pointer to an RCC_PeriphCLKInitTypeDef structure that
 105:./Drivers/STM32F1xx_HAL_Driver/Src/stm32f1xx_hal_rcc_ex.c ****   *         contains the configuration information for the Extended Peripherals clocks(RTC clock).
 106:./Drivers/STM32F1xx_HAL_Driver/Src/stm32f1xx_hal_rcc_ex.c ****   *
 107:./Drivers/STM32F1xx_HAL_Driver/Src/stm32f1xx_hal_rcc_ex.c ****   * @note   Care must be taken when HAL_RCCEx_PeriphCLKConfig() is used to select 
 108:./Drivers/STM32F1xx_HAL_Driver/Src/stm32f1xx_hal_rcc_ex.c ****   *         the RTC clock source; in this case the Backup domain will be reset in  
 109:./Drivers/STM32F1xx_HAL_Driver/Src/stm32f1xx_hal_rcc_ex.c ****   *         order to modify the RTC Clock source, as consequence RTC registers (including 
 110:./Drivers/STM32F1xx_HAL_Driver/Src/stm32f1xx_hal_rcc_ex.c ****   *         the backup registers) are set to their reset values.
 111:./Drivers/STM32F1xx_HAL_Driver/Src/stm32f1xx_hal_rcc_ex.c ****   *
 112:./Drivers/STM32F1xx_HAL_Driver/Src/stm32f1xx_hal_rcc_ex.c ****   * @note   In case of STM32F105xC or STM32F107xC devices, PLLI2S will be enabled if requested on 
 113:./Drivers/STM32F1xx_HAL_Driver/Src/stm32f1xx_hal_rcc_ex.c ****   *         one of 2 I2S interfaces. When PLLI2S is enabled, you need to call HAL_RCCEx_DisablePLLI
 114:./Drivers/STM32F1xx_HAL_Driver/Src/stm32f1xx_hal_rcc_ex.c ****   *         manually disable it.
 115:./Drivers/STM32F1xx_HAL_Driver/Src/stm32f1xx_hal_rcc_ex.c ****   *
 116:./Drivers/STM32F1xx_HAL_Driver/Src/stm32f1xx_hal_rcc_ex.c ****   * @retval HAL status
 117:./Drivers/STM32F1xx_HAL_Driver/Src/stm32f1xx_hal_rcc_ex.c ****   */
 118:./Drivers/STM32F1xx_HAL_Driver/Src/stm32f1xx_hal_rcc_ex.c **** HAL_StatusTypeDef HAL_RCCEx_PeriphCLKConfig(RCC_PeriphCLKInitTypeDef  *PeriphClkInit)
 119:./Drivers/STM32F1xx_HAL_Driver/Src/stm32f1xx_hal_rcc_ex.c **** {
  27              		.loc 1 119 0
  28              		.cfi_startproc
  29              		@ args = 0, pretend = 0, frame = 8
  30              		@ frame_needed = 0, uses_anonymous_args = 0
  31              	.LVL0:
  32 0000 F0B5     		push	{r4, r5, r6, r7, lr}
  33              	.LCFI0:
  34              		.cfi_def_cfa_offset 20
  35              		.cfi_offset 4, -20
  36              		.cfi_offset 5, -16
  37              		.cfi_offset 6, -12
  38              		.cfi_offset 7, -8
  39              		.cfi_offset 14, -4
  40 0002 83B0     		sub	sp, sp, #12
  41              	.LCFI1:
  42              		.cfi_def_cfa_offset 32
  43 0004 0446     		mov	r4, r0
  44              	.LVL1:
 120:./Drivers/STM32F1xx_HAL_Driver/Src/stm32f1xx_hal_rcc_ex.c ****   uint32_t tickstart = 0, temp_reg = 0;
 121:./Drivers/STM32F1xx_HAL_Driver/Src/stm32f1xx_hal_rcc_ex.c **** #if defined(STM32F105xC) || defined(STM32F107xC)
 122:./Drivers/STM32F1xx_HAL_Driver/Src/stm32f1xx_hal_rcc_ex.c ****   uint32_t  pllactive = 0;
 123:./Drivers/STM32F1xx_HAL_Driver/Src/stm32f1xx_hal_rcc_ex.c **** #endif /* STM32F105xC || STM32F107xC */
 124:./Drivers/STM32F1xx_HAL_Driver/Src/stm32f1xx_hal_rcc_ex.c **** 
 125:./Drivers/STM32F1xx_HAL_Driver/Src/stm32f1xx_hal_rcc_ex.c ****   /* Check the parameters */
 126:./Drivers/STM32F1xx_HAL_Driver/Src/stm32f1xx_hal_rcc_ex.c ****   assert_param(IS_RCC_PERIPHCLOCK(PeriphClkInit->PeriphClockSelection));
 127:./Drivers/STM32F1xx_HAL_Driver/Src/stm32f1xx_hal_rcc_ex.c ****   
 128:./Drivers/STM32F1xx_HAL_Driver/Src/stm32f1xx_hal_rcc_ex.c ****   /*------------------------------- RTC/LCD Configuration ------------------------*/ 
ARM GAS  /tmp/ccYoZV6o.s 			page 4


 129:./Drivers/STM32F1xx_HAL_Driver/Src/stm32f1xx_hal_rcc_ex.c ****   if ((((PeriphClkInit->PeriphClockSelection) & RCC_PERIPHCLK_RTC) == RCC_PERIPHCLK_RTC))
  45              		.loc 1 129 0
  46 0006 0368     		ldr	r3, [r0]
  47 0008 13F0010F 		tst	r3, #1
  48 000c 6ED0     		beq	.L2
  49              	.LBB19:
 130:./Drivers/STM32F1xx_HAL_Driver/Src/stm32f1xx_hal_rcc_ex.c ****   {
 131:./Drivers/STM32F1xx_HAL_Driver/Src/stm32f1xx_hal_rcc_ex.c ****     /* check for RTC Parameters used to output RTCCLK */
 132:./Drivers/STM32F1xx_HAL_Driver/Src/stm32f1xx_hal_rcc_ex.c ****     assert_param(IS_RCC_RTCCLKSOURCE(PeriphClkInit->RTCClockSelection));
 133:./Drivers/STM32F1xx_HAL_Driver/Src/stm32f1xx_hal_rcc_ex.c **** 
 134:./Drivers/STM32F1xx_HAL_Driver/Src/stm32f1xx_hal_rcc_ex.c ****     /* Enable Power Clock*/
 135:./Drivers/STM32F1xx_HAL_Driver/Src/stm32f1xx_hal_rcc_ex.c ****     __HAL_RCC_PWR_CLK_ENABLE();
  50              		.loc 1 135 0
  51 000e 474B     		ldr	r3, .L16
  52 0010 DA69     		ldr	r2, [r3, #28]
  53 0012 42F08052 		orr	r2, r2, #268435456
  54 0016 DA61     		str	r2, [r3, #28]
  55 0018 DB69     		ldr	r3, [r3, #28]
  56 001a 03F08053 		and	r3, r3, #268435456
  57 001e 0193     		str	r3, [sp, #4]
  58 0020 019B     		ldr	r3, [sp, #4]
  59              	.LBE19:
 136:./Drivers/STM32F1xx_HAL_Driver/Src/stm32f1xx_hal_rcc_ex.c ****     
 137:./Drivers/STM32F1xx_HAL_Driver/Src/stm32f1xx_hal_rcc_ex.c ****     /* Enable write access to Backup domain */
 138:./Drivers/STM32F1xx_HAL_Driver/Src/stm32f1xx_hal_rcc_ex.c ****     SET_BIT(PWR->CR, PWR_CR_DBP);
  60              		.loc 1 138 0
  61 0022 434A     		ldr	r2, .L16+4
  62 0024 1368     		ldr	r3, [r2]
  63 0026 43F48073 		orr	r3, r3, #256
  64 002a 1360     		str	r3, [r2]
 139:./Drivers/STM32F1xx_HAL_Driver/Src/stm32f1xx_hal_rcc_ex.c ****     
 140:./Drivers/STM32F1xx_HAL_Driver/Src/stm32f1xx_hal_rcc_ex.c ****     /* Wait for Backup domain Write protection disable */
 141:./Drivers/STM32F1xx_HAL_Driver/Src/stm32f1xx_hal_rcc_ex.c ****     tickstart = HAL_GetTick();
  65              		.loc 1 141 0
  66 002c FFF7FEFF 		bl	HAL_GetTick
  67              	.LVL2:
  68 0030 0546     		mov	r5, r0
  69              	.LVL3:
 142:./Drivers/STM32F1xx_HAL_Driver/Src/stm32f1xx_hal_rcc_ex.c ****     
 143:./Drivers/STM32F1xx_HAL_Driver/Src/stm32f1xx_hal_rcc_ex.c ****     while((PWR->CR & PWR_CR_DBP) == RESET)
  70              		.loc 1 143 0
  71 0032 04E0     		b	.L3
  72              	.LVL4:
  73              	.L5:
 144:./Drivers/STM32F1xx_HAL_Driver/Src/stm32f1xx_hal_rcc_ex.c ****     {
 145:./Drivers/STM32F1xx_HAL_Driver/Src/stm32f1xx_hal_rcc_ex.c ****       if((HAL_GetTick() - tickstart) > RCC_DBP_TIMEOUT_VALUE)
  74              		.loc 1 145 0
  75 0034 FFF7FEFF 		bl	HAL_GetTick
  76              	.LVL5:
  77 0038 401B     		subs	r0, r0, r5
  78 003a 6428     		cmp	r0, #100
  79 003c 6ED8     		bhi	.L12
  80              	.L3:
 143:./Drivers/STM32F1xx_HAL_Driver/Src/stm32f1xx_hal_rcc_ex.c ****     {
  81              		.loc 1 143 0
  82 003e 3C4B     		ldr	r3, .L16+4
  83 0040 1B68     		ldr	r3, [r3]
ARM GAS  /tmp/ccYoZV6o.s 			page 5


  84 0042 13F4807F 		tst	r3, #256
  85 0046 F5D0     		beq	.L5
 146:./Drivers/STM32F1xx_HAL_Driver/Src/stm32f1xx_hal_rcc_ex.c ****       {
 147:./Drivers/STM32F1xx_HAL_Driver/Src/stm32f1xx_hal_rcc_ex.c ****         return HAL_TIMEOUT;
 148:./Drivers/STM32F1xx_HAL_Driver/Src/stm32f1xx_hal_rcc_ex.c ****       }      
 149:./Drivers/STM32F1xx_HAL_Driver/Src/stm32f1xx_hal_rcc_ex.c ****     }
 150:./Drivers/STM32F1xx_HAL_Driver/Src/stm32f1xx_hal_rcc_ex.c ****       
 151:./Drivers/STM32F1xx_HAL_Driver/Src/stm32f1xx_hal_rcc_ex.c ****     /* Reset the Backup domain only if the RTC Clock source selection is modified from reset value 
 152:./Drivers/STM32F1xx_HAL_Driver/Src/stm32f1xx_hal_rcc_ex.c ****     temp_reg = (RCC->BDCR & RCC_BDCR_RTCSEL);
  86              		.loc 1 152 0
  87 0048 384B     		ldr	r3, .L16
  88 004a 1B6A     		ldr	r3, [r3, #32]
  89              	.LVL6:
 153:./Drivers/STM32F1xx_HAL_Driver/Src/stm32f1xx_hal_rcc_ex.c ****     if((temp_reg != 0x00000000U) && (temp_reg != (PeriphClkInit->RTCClockSelection & RCC_BDCR_RTCSE
  90              		.loc 1 153 0
  91 004c 13F44073 		ands	r3, r3, #768
  92              	.LVL7:
  93 0050 45D0     		beq	.L6
  94              		.loc 1 153 0 is_stmt 0 discriminator 1
  95 0052 6268     		ldr	r2, [r4, #4]
  96 0054 02F44072 		and	r2, r2, #768
  97 0058 9A42     		cmp	r2, r3
  98 005a 40D0     		beq	.L6
 154:./Drivers/STM32F1xx_HAL_Driver/Src/stm32f1xx_hal_rcc_ex.c ****     {
 155:./Drivers/STM32F1xx_HAL_Driver/Src/stm32f1xx_hal_rcc_ex.c ****       /* Store the content of BDCR register before the reset of Backup Domain */
 156:./Drivers/STM32F1xx_HAL_Driver/Src/stm32f1xx_hal_rcc_ex.c ****       temp_reg = (RCC->BDCR & ~(RCC_BDCR_RTCSEL));
  99              		.loc 1 156 0 is_stmt 1
 100 005c 3348     		ldr	r0, .L16
 101 005e 016A     		ldr	r1, [r0, #32]
 102 0060 21F44076 		bic	r6, r1, #768
 103              	.LVL8:
 104              	.LBB20:
 105              	.LBB21:
 106              		.file 2 "./Drivers/CMSIS/Include/cmsis_gcc.h"
   1:./Drivers/CMSIS/Include/cmsis_gcc.h **** /**************************************************************************//**
   2:./Drivers/CMSIS/Include/cmsis_gcc.h ****  * @file     cmsis_gcc.h
   3:./Drivers/CMSIS/Include/cmsis_gcc.h ****  * @brief    CMSIS Cortex-M Core Function/Instruction Header File
   4:./Drivers/CMSIS/Include/cmsis_gcc.h ****  * @version  V4.30
   5:./Drivers/CMSIS/Include/cmsis_gcc.h ****  * @date     20. October 2015
   6:./Drivers/CMSIS/Include/cmsis_gcc.h ****  ******************************************************************************/
   7:./Drivers/CMSIS/Include/cmsis_gcc.h **** /* Copyright (c) 2009 - 2015 ARM LIMITED
   8:./Drivers/CMSIS/Include/cmsis_gcc.h **** 
   9:./Drivers/CMSIS/Include/cmsis_gcc.h ****    All rights reserved.
  10:./Drivers/CMSIS/Include/cmsis_gcc.h ****    Redistribution and use in source and binary forms, with or without
  11:./Drivers/CMSIS/Include/cmsis_gcc.h ****    modification, are permitted provided that the following conditions are met:
  12:./Drivers/CMSIS/Include/cmsis_gcc.h ****    - Redistributions of source code must retain the above copyright
  13:./Drivers/CMSIS/Include/cmsis_gcc.h ****      notice, this list of conditions and the following disclaimer.
  14:./Drivers/CMSIS/Include/cmsis_gcc.h ****    - Redistributions in binary form must reproduce the above copyright
  15:./Drivers/CMSIS/Include/cmsis_gcc.h ****      notice, this list of conditions and the following disclaimer in the
  16:./Drivers/CMSIS/Include/cmsis_gcc.h ****      documentation and/or other materials provided with the distribution.
  17:./Drivers/CMSIS/Include/cmsis_gcc.h ****    - Neither the name of ARM nor the names of its contributors may be used
  18:./Drivers/CMSIS/Include/cmsis_gcc.h ****      to endorse or promote products derived from this software without
  19:./Drivers/CMSIS/Include/cmsis_gcc.h ****      specific prior written permission.
  20:./Drivers/CMSIS/Include/cmsis_gcc.h ****    *
  21:./Drivers/CMSIS/Include/cmsis_gcc.h ****    THIS SOFTWARE IS PROVIDED BY THE COPYRIGHT HOLDERS AND CONTRIBUTORS "AS IS"
  22:./Drivers/CMSIS/Include/cmsis_gcc.h ****    AND ANY EXPRESS OR IMPLIED WARRANTIES, INCLUDING, BUT NOT LIMITED TO, THE
  23:./Drivers/CMSIS/Include/cmsis_gcc.h ****    IMPLIED WARRANTIES OF MERCHANTABILITY AND FITNESS FOR A PARTICULAR PURPOSE
ARM GAS  /tmp/ccYoZV6o.s 			page 6


  24:./Drivers/CMSIS/Include/cmsis_gcc.h ****    ARE DISCLAIMED. IN NO EVENT SHALL COPYRIGHT HOLDERS AND CONTRIBUTORS BE
  25:./Drivers/CMSIS/Include/cmsis_gcc.h ****    LIABLE FOR ANY DIRECT, INDIRECT, INCIDENTAL, SPECIAL, EXEMPLARY, OR
  26:./Drivers/CMSIS/Include/cmsis_gcc.h ****    CONSEQUENTIAL DAMAGES (INCLUDING, BUT NOT LIMITED TO, PROCUREMENT OF
  27:./Drivers/CMSIS/Include/cmsis_gcc.h ****    SUBSTITUTE GOODS OR SERVICES; LOSS OF USE, DATA, OR PROFITS; OR BUSINESS
  28:./Drivers/CMSIS/Include/cmsis_gcc.h ****    INTERRUPTION) HOWEVER CAUSED AND ON ANY THEORY OF LIABILITY, WHETHER IN
  29:./Drivers/CMSIS/Include/cmsis_gcc.h ****    CONTRACT, STRICT LIABILITY, OR TORT (INCLUDING NEGLIGENCE OR OTHERWISE)
  30:./Drivers/CMSIS/Include/cmsis_gcc.h ****    ARISING IN ANY WAY OUT OF THE USE OF THIS SOFTWARE, EVEN IF ADVISED OF THE
  31:./Drivers/CMSIS/Include/cmsis_gcc.h ****    POSSIBILITY OF SUCH DAMAGE.
  32:./Drivers/CMSIS/Include/cmsis_gcc.h ****    ---------------------------------------------------------------------------*/
  33:./Drivers/CMSIS/Include/cmsis_gcc.h **** 
  34:./Drivers/CMSIS/Include/cmsis_gcc.h **** 
  35:./Drivers/CMSIS/Include/cmsis_gcc.h **** #ifndef __CMSIS_GCC_H
  36:./Drivers/CMSIS/Include/cmsis_gcc.h **** #define __CMSIS_GCC_H
  37:./Drivers/CMSIS/Include/cmsis_gcc.h **** 
  38:./Drivers/CMSIS/Include/cmsis_gcc.h **** /* ignore some GCC warnings */
  39:./Drivers/CMSIS/Include/cmsis_gcc.h **** #if defined ( __GNUC__ )
  40:./Drivers/CMSIS/Include/cmsis_gcc.h **** #pragma GCC diagnostic push
  41:./Drivers/CMSIS/Include/cmsis_gcc.h **** #pragma GCC diagnostic ignored "-Wsign-conversion"
  42:./Drivers/CMSIS/Include/cmsis_gcc.h **** #pragma GCC diagnostic ignored "-Wconversion"
  43:./Drivers/CMSIS/Include/cmsis_gcc.h **** #pragma GCC diagnostic ignored "-Wunused-parameter"
  44:./Drivers/CMSIS/Include/cmsis_gcc.h **** #endif
  45:./Drivers/CMSIS/Include/cmsis_gcc.h **** 
  46:./Drivers/CMSIS/Include/cmsis_gcc.h **** 
  47:./Drivers/CMSIS/Include/cmsis_gcc.h **** /* ###########################  Core Function Access  ########################### */
  48:./Drivers/CMSIS/Include/cmsis_gcc.h **** /** \ingroup  CMSIS_Core_FunctionInterface
  49:./Drivers/CMSIS/Include/cmsis_gcc.h ****     \defgroup CMSIS_Core_RegAccFunctions CMSIS Core Register Access Functions
  50:./Drivers/CMSIS/Include/cmsis_gcc.h ****   @{
  51:./Drivers/CMSIS/Include/cmsis_gcc.h ****  */
  52:./Drivers/CMSIS/Include/cmsis_gcc.h **** 
  53:./Drivers/CMSIS/Include/cmsis_gcc.h **** /**
  54:./Drivers/CMSIS/Include/cmsis_gcc.h ****   \brief   Enable IRQ Interrupts
  55:./Drivers/CMSIS/Include/cmsis_gcc.h ****   \details Enables IRQ interrupts by clearing the I-bit in the CPSR.
  56:./Drivers/CMSIS/Include/cmsis_gcc.h ****            Can only be executed in Privileged modes.
  57:./Drivers/CMSIS/Include/cmsis_gcc.h ****  */
  58:./Drivers/CMSIS/Include/cmsis_gcc.h **** __attribute__( ( always_inline ) ) __STATIC_INLINE void __enable_irq(void)
  59:./Drivers/CMSIS/Include/cmsis_gcc.h **** {
  60:./Drivers/CMSIS/Include/cmsis_gcc.h ****   __ASM volatile ("cpsie i" : : : "memory");
  61:./Drivers/CMSIS/Include/cmsis_gcc.h **** }
  62:./Drivers/CMSIS/Include/cmsis_gcc.h **** 
  63:./Drivers/CMSIS/Include/cmsis_gcc.h **** 
  64:./Drivers/CMSIS/Include/cmsis_gcc.h **** /**
  65:./Drivers/CMSIS/Include/cmsis_gcc.h ****   \brief   Disable IRQ Interrupts
  66:./Drivers/CMSIS/Include/cmsis_gcc.h ****   \details Disables IRQ interrupts by setting the I-bit in the CPSR.
  67:./Drivers/CMSIS/Include/cmsis_gcc.h ****   Can only be executed in Privileged modes.
  68:./Drivers/CMSIS/Include/cmsis_gcc.h ****  */
  69:./Drivers/CMSIS/Include/cmsis_gcc.h **** __attribute__( ( always_inline ) ) __STATIC_INLINE void __disable_irq(void)
  70:./Drivers/CMSIS/Include/cmsis_gcc.h **** {
  71:./Drivers/CMSIS/Include/cmsis_gcc.h ****   __ASM volatile ("cpsid i" : : : "memory");
  72:./Drivers/CMSIS/Include/cmsis_gcc.h **** }
  73:./Drivers/CMSIS/Include/cmsis_gcc.h **** 
  74:./Drivers/CMSIS/Include/cmsis_gcc.h **** 
  75:./Drivers/CMSIS/Include/cmsis_gcc.h **** /**
  76:./Drivers/CMSIS/Include/cmsis_gcc.h ****   \brief   Get Control Register
  77:./Drivers/CMSIS/Include/cmsis_gcc.h ****   \details Returns the content of the Control Register.
  78:./Drivers/CMSIS/Include/cmsis_gcc.h ****   \return               Control Register value
  79:./Drivers/CMSIS/Include/cmsis_gcc.h ****  */
  80:./Drivers/CMSIS/Include/cmsis_gcc.h **** __attribute__( ( always_inline ) ) __STATIC_INLINE uint32_t __get_CONTROL(void)
ARM GAS  /tmp/ccYoZV6o.s 			page 7


  81:./Drivers/CMSIS/Include/cmsis_gcc.h **** {
  82:./Drivers/CMSIS/Include/cmsis_gcc.h ****   uint32_t result;
  83:./Drivers/CMSIS/Include/cmsis_gcc.h **** 
  84:./Drivers/CMSIS/Include/cmsis_gcc.h ****   __ASM volatile ("MRS %0, control" : "=r" (result) );
  85:./Drivers/CMSIS/Include/cmsis_gcc.h ****   return(result);
  86:./Drivers/CMSIS/Include/cmsis_gcc.h **** }
  87:./Drivers/CMSIS/Include/cmsis_gcc.h **** 
  88:./Drivers/CMSIS/Include/cmsis_gcc.h **** 
  89:./Drivers/CMSIS/Include/cmsis_gcc.h **** /**
  90:./Drivers/CMSIS/Include/cmsis_gcc.h ****   \brief   Set Control Register
  91:./Drivers/CMSIS/Include/cmsis_gcc.h ****   \details Writes the given value to the Control Register.
  92:./Drivers/CMSIS/Include/cmsis_gcc.h ****   \param [in]    control  Control Register value to set
  93:./Drivers/CMSIS/Include/cmsis_gcc.h ****  */
  94:./Drivers/CMSIS/Include/cmsis_gcc.h **** __attribute__( ( always_inline ) ) __STATIC_INLINE void __set_CONTROL(uint32_t control)
  95:./Drivers/CMSIS/Include/cmsis_gcc.h **** {
  96:./Drivers/CMSIS/Include/cmsis_gcc.h ****   __ASM volatile ("MSR control, %0" : : "r" (control) : "memory");
  97:./Drivers/CMSIS/Include/cmsis_gcc.h **** }
  98:./Drivers/CMSIS/Include/cmsis_gcc.h **** 
  99:./Drivers/CMSIS/Include/cmsis_gcc.h **** 
 100:./Drivers/CMSIS/Include/cmsis_gcc.h **** /**
 101:./Drivers/CMSIS/Include/cmsis_gcc.h ****   \brief   Get IPSR Register
 102:./Drivers/CMSIS/Include/cmsis_gcc.h ****   \details Returns the content of the IPSR Register.
 103:./Drivers/CMSIS/Include/cmsis_gcc.h ****   \return               IPSR Register value
 104:./Drivers/CMSIS/Include/cmsis_gcc.h ****  */
 105:./Drivers/CMSIS/Include/cmsis_gcc.h **** __attribute__( ( always_inline ) ) __STATIC_INLINE uint32_t __get_IPSR(void)
 106:./Drivers/CMSIS/Include/cmsis_gcc.h **** {
 107:./Drivers/CMSIS/Include/cmsis_gcc.h ****   uint32_t result;
 108:./Drivers/CMSIS/Include/cmsis_gcc.h **** 
 109:./Drivers/CMSIS/Include/cmsis_gcc.h ****   __ASM volatile ("MRS %0, ipsr" : "=r" (result) );
 110:./Drivers/CMSIS/Include/cmsis_gcc.h ****   return(result);
 111:./Drivers/CMSIS/Include/cmsis_gcc.h **** }
 112:./Drivers/CMSIS/Include/cmsis_gcc.h **** 
 113:./Drivers/CMSIS/Include/cmsis_gcc.h **** 
 114:./Drivers/CMSIS/Include/cmsis_gcc.h **** /**
 115:./Drivers/CMSIS/Include/cmsis_gcc.h ****   \brief   Get APSR Register
 116:./Drivers/CMSIS/Include/cmsis_gcc.h ****   \details Returns the content of the APSR Register.
 117:./Drivers/CMSIS/Include/cmsis_gcc.h ****   \return               APSR Register value
 118:./Drivers/CMSIS/Include/cmsis_gcc.h ****  */
 119:./Drivers/CMSIS/Include/cmsis_gcc.h **** __attribute__( ( always_inline ) ) __STATIC_INLINE uint32_t __get_APSR(void)
 120:./Drivers/CMSIS/Include/cmsis_gcc.h **** {
 121:./Drivers/CMSIS/Include/cmsis_gcc.h ****   uint32_t result;
 122:./Drivers/CMSIS/Include/cmsis_gcc.h **** 
 123:./Drivers/CMSIS/Include/cmsis_gcc.h ****   __ASM volatile ("MRS %0, apsr" : "=r" (result) );
 124:./Drivers/CMSIS/Include/cmsis_gcc.h ****   return(result);
 125:./Drivers/CMSIS/Include/cmsis_gcc.h **** }
 126:./Drivers/CMSIS/Include/cmsis_gcc.h **** 
 127:./Drivers/CMSIS/Include/cmsis_gcc.h **** 
 128:./Drivers/CMSIS/Include/cmsis_gcc.h **** /**
 129:./Drivers/CMSIS/Include/cmsis_gcc.h ****   \brief   Get xPSR Register
 130:./Drivers/CMSIS/Include/cmsis_gcc.h ****   \details Returns the content of the xPSR Register.
 131:./Drivers/CMSIS/Include/cmsis_gcc.h **** 
 132:./Drivers/CMSIS/Include/cmsis_gcc.h ****     \return               xPSR Register value
 133:./Drivers/CMSIS/Include/cmsis_gcc.h ****  */
 134:./Drivers/CMSIS/Include/cmsis_gcc.h **** __attribute__( ( always_inline ) ) __STATIC_INLINE uint32_t __get_xPSR(void)
 135:./Drivers/CMSIS/Include/cmsis_gcc.h **** {
 136:./Drivers/CMSIS/Include/cmsis_gcc.h ****   uint32_t result;
 137:./Drivers/CMSIS/Include/cmsis_gcc.h **** 
ARM GAS  /tmp/ccYoZV6o.s 			page 8


 138:./Drivers/CMSIS/Include/cmsis_gcc.h ****   __ASM volatile ("MRS %0, xpsr" : "=r" (result) );
 139:./Drivers/CMSIS/Include/cmsis_gcc.h ****   return(result);
 140:./Drivers/CMSIS/Include/cmsis_gcc.h **** }
 141:./Drivers/CMSIS/Include/cmsis_gcc.h **** 
 142:./Drivers/CMSIS/Include/cmsis_gcc.h **** 
 143:./Drivers/CMSIS/Include/cmsis_gcc.h **** /**
 144:./Drivers/CMSIS/Include/cmsis_gcc.h ****   \brief   Get Process Stack Pointer
 145:./Drivers/CMSIS/Include/cmsis_gcc.h ****   \details Returns the current value of the Process Stack Pointer (PSP).
 146:./Drivers/CMSIS/Include/cmsis_gcc.h ****   \return               PSP Register value
 147:./Drivers/CMSIS/Include/cmsis_gcc.h ****  */
 148:./Drivers/CMSIS/Include/cmsis_gcc.h **** __attribute__( ( always_inline ) ) __STATIC_INLINE uint32_t __get_PSP(void)
 149:./Drivers/CMSIS/Include/cmsis_gcc.h **** {
 150:./Drivers/CMSIS/Include/cmsis_gcc.h ****   register uint32_t result;
 151:./Drivers/CMSIS/Include/cmsis_gcc.h **** 
 152:./Drivers/CMSIS/Include/cmsis_gcc.h ****   __ASM volatile ("MRS %0, psp\n"  : "=r" (result) );
 153:./Drivers/CMSIS/Include/cmsis_gcc.h ****   return(result);
 154:./Drivers/CMSIS/Include/cmsis_gcc.h **** }
 155:./Drivers/CMSIS/Include/cmsis_gcc.h **** 
 156:./Drivers/CMSIS/Include/cmsis_gcc.h **** 
 157:./Drivers/CMSIS/Include/cmsis_gcc.h **** /**
 158:./Drivers/CMSIS/Include/cmsis_gcc.h ****   \brief   Set Process Stack Pointer
 159:./Drivers/CMSIS/Include/cmsis_gcc.h ****   \details Assigns the given value to the Process Stack Pointer (PSP).
 160:./Drivers/CMSIS/Include/cmsis_gcc.h ****   \param [in]    topOfProcStack  Process Stack Pointer value to set
 161:./Drivers/CMSIS/Include/cmsis_gcc.h ****  */
 162:./Drivers/CMSIS/Include/cmsis_gcc.h **** __attribute__( ( always_inline ) ) __STATIC_INLINE void __set_PSP(uint32_t topOfProcStack)
 163:./Drivers/CMSIS/Include/cmsis_gcc.h **** {
 164:./Drivers/CMSIS/Include/cmsis_gcc.h ****   __ASM volatile ("MSR psp, %0\n" : : "r" (topOfProcStack) : "sp");
 165:./Drivers/CMSIS/Include/cmsis_gcc.h **** }
 166:./Drivers/CMSIS/Include/cmsis_gcc.h **** 
 167:./Drivers/CMSIS/Include/cmsis_gcc.h **** 
 168:./Drivers/CMSIS/Include/cmsis_gcc.h **** /**
 169:./Drivers/CMSIS/Include/cmsis_gcc.h ****   \brief   Get Main Stack Pointer
 170:./Drivers/CMSIS/Include/cmsis_gcc.h ****   \details Returns the current value of the Main Stack Pointer (MSP).
 171:./Drivers/CMSIS/Include/cmsis_gcc.h ****   \return               MSP Register value
 172:./Drivers/CMSIS/Include/cmsis_gcc.h ****  */
 173:./Drivers/CMSIS/Include/cmsis_gcc.h **** __attribute__( ( always_inline ) ) __STATIC_INLINE uint32_t __get_MSP(void)
 174:./Drivers/CMSIS/Include/cmsis_gcc.h **** {
 175:./Drivers/CMSIS/Include/cmsis_gcc.h ****   register uint32_t result;
 176:./Drivers/CMSIS/Include/cmsis_gcc.h **** 
 177:./Drivers/CMSIS/Include/cmsis_gcc.h ****   __ASM volatile ("MRS %0, msp\n" : "=r" (result) );
 178:./Drivers/CMSIS/Include/cmsis_gcc.h ****   return(result);
 179:./Drivers/CMSIS/Include/cmsis_gcc.h **** }
 180:./Drivers/CMSIS/Include/cmsis_gcc.h **** 
 181:./Drivers/CMSIS/Include/cmsis_gcc.h **** 
 182:./Drivers/CMSIS/Include/cmsis_gcc.h **** /**
 183:./Drivers/CMSIS/Include/cmsis_gcc.h ****   \brief   Set Main Stack Pointer
 184:./Drivers/CMSIS/Include/cmsis_gcc.h ****   \details Assigns the given value to the Main Stack Pointer (MSP).
 185:./Drivers/CMSIS/Include/cmsis_gcc.h **** 
 186:./Drivers/CMSIS/Include/cmsis_gcc.h ****     \param [in]    topOfMainStack  Main Stack Pointer value to set
 187:./Drivers/CMSIS/Include/cmsis_gcc.h ****  */
 188:./Drivers/CMSIS/Include/cmsis_gcc.h **** __attribute__( ( always_inline ) ) __STATIC_INLINE void __set_MSP(uint32_t topOfMainStack)
 189:./Drivers/CMSIS/Include/cmsis_gcc.h **** {
 190:./Drivers/CMSIS/Include/cmsis_gcc.h ****   __ASM volatile ("MSR msp, %0\n" : : "r" (topOfMainStack) : "sp");
 191:./Drivers/CMSIS/Include/cmsis_gcc.h **** }
 192:./Drivers/CMSIS/Include/cmsis_gcc.h **** 
 193:./Drivers/CMSIS/Include/cmsis_gcc.h **** 
 194:./Drivers/CMSIS/Include/cmsis_gcc.h **** /**
ARM GAS  /tmp/ccYoZV6o.s 			page 9


 195:./Drivers/CMSIS/Include/cmsis_gcc.h ****   \brief   Get Priority Mask
 196:./Drivers/CMSIS/Include/cmsis_gcc.h ****   \details Returns the current state of the priority mask bit from the Priority Mask Register.
 197:./Drivers/CMSIS/Include/cmsis_gcc.h ****   \return               Priority Mask value
 198:./Drivers/CMSIS/Include/cmsis_gcc.h ****  */
 199:./Drivers/CMSIS/Include/cmsis_gcc.h **** __attribute__( ( always_inline ) ) __STATIC_INLINE uint32_t __get_PRIMASK(void)
 200:./Drivers/CMSIS/Include/cmsis_gcc.h **** {
 201:./Drivers/CMSIS/Include/cmsis_gcc.h ****   uint32_t result;
 202:./Drivers/CMSIS/Include/cmsis_gcc.h **** 
 203:./Drivers/CMSIS/Include/cmsis_gcc.h ****   __ASM volatile ("MRS %0, primask" : "=r" (result) );
 204:./Drivers/CMSIS/Include/cmsis_gcc.h ****   return(result);
 205:./Drivers/CMSIS/Include/cmsis_gcc.h **** }
 206:./Drivers/CMSIS/Include/cmsis_gcc.h **** 
 207:./Drivers/CMSIS/Include/cmsis_gcc.h **** 
 208:./Drivers/CMSIS/Include/cmsis_gcc.h **** /**
 209:./Drivers/CMSIS/Include/cmsis_gcc.h ****   \brief   Set Priority Mask
 210:./Drivers/CMSIS/Include/cmsis_gcc.h ****   \details Assigns the given value to the Priority Mask Register.
 211:./Drivers/CMSIS/Include/cmsis_gcc.h ****   \param [in]    priMask  Priority Mask
 212:./Drivers/CMSIS/Include/cmsis_gcc.h ****  */
 213:./Drivers/CMSIS/Include/cmsis_gcc.h **** __attribute__( ( always_inline ) ) __STATIC_INLINE void __set_PRIMASK(uint32_t priMask)
 214:./Drivers/CMSIS/Include/cmsis_gcc.h **** {
 215:./Drivers/CMSIS/Include/cmsis_gcc.h ****   __ASM volatile ("MSR primask, %0" : : "r" (priMask) : "memory");
 216:./Drivers/CMSIS/Include/cmsis_gcc.h **** }
 217:./Drivers/CMSIS/Include/cmsis_gcc.h **** 
 218:./Drivers/CMSIS/Include/cmsis_gcc.h **** 
 219:./Drivers/CMSIS/Include/cmsis_gcc.h **** #if       (__CORTEX_M >= 0x03U)
 220:./Drivers/CMSIS/Include/cmsis_gcc.h **** 
 221:./Drivers/CMSIS/Include/cmsis_gcc.h **** /**
 222:./Drivers/CMSIS/Include/cmsis_gcc.h ****   \brief   Enable FIQ
 223:./Drivers/CMSIS/Include/cmsis_gcc.h ****   \details Enables FIQ interrupts by clearing the F-bit in the CPSR.
 224:./Drivers/CMSIS/Include/cmsis_gcc.h ****            Can only be executed in Privileged modes.
 225:./Drivers/CMSIS/Include/cmsis_gcc.h ****  */
 226:./Drivers/CMSIS/Include/cmsis_gcc.h **** __attribute__( ( always_inline ) ) __STATIC_INLINE void __enable_fault_irq(void)
 227:./Drivers/CMSIS/Include/cmsis_gcc.h **** {
 228:./Drivers/CMSIS/Include/cmsis_gcc.h ****   __ASM volatile ("cpsie f" : : : "memory");
 229:./Drivers/CMSIS/Include/cmsis_gcc.h **** }
 230:./Drivers/CMSIS/Include/cmsis_gcc.h **** 
 231:./Drivers/CMSIS/Include/cmsis_gcc.h **** 
 232:./Drivers/CMSIS/Include/cmsis_gcc.h **** /**
 233:./Drivers/CMSIS/Include/cmsis_gcc.h ****   \brief   Disable FIQ
 234:./Drivers/CMSIS/Include/cmsis_gcc.h ****   \details Disables FIQ interrupts by setting the F-bit in the CPSR.
 235:./Drivers/CMSIS/Include/cmsis_gcc.h ****            Can only be executed in Privileged modes.
 236:./Drivers/CMSIS/Include/cmsis_gcc.h ****  */
 237:./Drivers/CMSIS/Include/cmsis_gcc.h **** __attribute__( ( always_inline ) ) __STATIC_INLINE void __disable_fault_irq(void)
 238:./Drivers/CMSIS/Include/cmsis_gcc.h **** {
 239:./Drivers/CMSIS/Include/cmsis_gcc.h ****   __ASM volatile ("cpsid f" : : : "memory");
 240:./Drivers/CMSIS/Include/cmsis_gcc.h **** }
 241:./Drivers/CMSIS/Include/cmsis_gcc.h **** 
 242:./Drivers/CMSIS/Include/cmsis_gcc.h **** 
 243:./Drivers/CMSIS/Include/cmsis_gcc.h **** /**
 244:./Drivers/CMSIS/Include/cmsis_gcc.h ****   \brief   Get Base Priority
 245:./Drivers/CMSIS/Include/cmsis_gcc.h ****   \details Returns the current value of the Base Priority register.
 246:./Drivers/CMSIS/Include/cmsis_gcc.h ****   \return               Base Priority register value
 247:./Drivers/CMSIS/Include/cmsis_gcc.h ****  */
 248:./Drivers/CMSIS/Include/cmsis_gcc.h **** __attribute__( ( always_inline ) ) __STATIC_INLINE uint32_t __get_BASEPRI(void)
 249:./Drivers/CMSIS/Include/cmsis_gcc.h **** {
 250:./Drivers/CMSIS/Include/cmsis_gcc.h ****   uint32_t result;
 251:./Drivers/CMSIS/Include/cmsis_gcc.h **** 
ARM GAS  /tmp/ccYoZV6o.s 			page 10


 252:./Drivers/CMSIS/Include/cmsis_gcc.h ****   __ASM volatile ("MRS %0, basepri" : "=r" (result) );
 253:./Drivers/CMSIS/Include/cmsis_gcc.h ****   return(result);
 254:./Drivers/CMSIS/Include/cmsis_gcc.h **** }
 255:./Drivers/CMSIS/Include/cmsis_gcc.h **** 
 256:./Drivers/CMSIS/Include/cmsis_gcc.h **** 
 257:./Drivers/CMSIS/Include/cmsis_gcc.h **** /**
 258:./Drivers/CMSIS/Include/cmsis_gcc.h ****   \brief   Set Base Priority
 259:./Drivers/CMSIS/Include/cmsis_gcc.h ****   \details Assigns the given value to the Base Priority register.
 260:./Drivers/CMSIS/Include/cmsis_gcc.h ****   \param [in]    basePri  Base Priority value to set
 261:./Drivers/CMSIS/Include/cmsis_gcc.h ****  */
 262:./Drivers/CMSIS/Include/cmsis_gcc.h **** __attribute__( ( always_inline ) ) __STATIC_INLINE void __set_BASEPRI(uint32_t value)
 263:./Drivers/CMSIS/Include/cmsis_gcc.h **** {
 264:./Drivers/CMSIS/Include/cmsis_gcc.h ****   __ASM volatile ("MSR basepri, %0" : : "r" (value) : "memory");
 265:./Drivers/CMSIS/Include/cmsis_gcc.h **** }
 266:./Drivers/CMSIS/Include/cmsis_gcc.h **** 
 267:./Drivers/CMSIS/Include/cmsis_gcc.h **** 
 268:./Drivers/CMSIS/Include/cmsis_gcc.h **** /**
 269:./Drivers/CMSIS/Include/cmsis_gcc.h ****   \brief   Set Base Priority with condition
 270:./Drivers/CMSIS/Include/cmsis_gcc.h ****   \details Assigns the given value to the Base Priority register only if BASEPRI masking is disable
 271:./Drivers/CMSIS/Include/cmsis_gcc.h ****            or the new value increases the BASEPRI priority level.
 272:./Drivers/CMSIS/Include/cmsis_gcc.h ****   \param [in]    basePri  Base Priority value to set
 273:./Drivers/CMSIS/Include/cmsis_gcc.h ****  */
 274:./Drivers/CMSIS/Include/cmsis_gcc.h **** __attribute__( ( always_inline ) ) __STATIC_INLINE void __set_BASEPRI_MAX(uint32_t value)
 275:./Drivers/CMSIS/Include/cmsis_gcc.h **** {
 276:./Drivers/CMSIS/Include/cmsis_gcc.h ****   __ASM volatile ("MSR basepri_max, %0" : : "r" (value) : "memory");
 277:./Drivers/CMSIS/Include/cmsis_gcc.h **** }
 278:./Drivers/CMSIS/Include/cmsis_gcc.h **** 
 279:./Drivers/CMSIS/Include/cmsis_gcc.h **** 
 280:./Drivers/CMSIS/Include/cmsis_gcc.h **** /**
 281:./Drivers/CMSIS/Include/cmsis_gcc.h ****   \brief   Get Fault Mask
 282:./Drivers/CMSIS/Include/cmsis_gcc.h ****   \details Returns the current value of the Fault Mask register.
 283:./Drivers/CMSIS/Include/cmsis_gcc.h ****   \return               Fault Mask register value
 284:./Drivers/CMSIS/Include/cmsis_gcc.h ****  */
 285:./Drivers/CMSIS/Include/cmsis_gcc.h **** __attribute__( ( always_inline ) ) __STATIC_INLINE uint32_t __get_FAULTMASK(void)
 286:./Drivers/CMSIS/Include/cmsis_gcc.h **** {
 287:./Drivers/CMSIS/Include/cmsis_gcc.h ****   uint32_t result;
 288:./Drivers/CMSIS/Include/cmsis_gcc.h **** 
 289:./Drivers/CMSIS/Include/cmsis_gcc.h ****   __ASM volatile ("MRS %0, faultmask" : "=r" (result) );
 290:./Drivers/CMSIS/Include/cmsis_gcc.h ****   return(result);
 291:./Drivers/CMSIS/Include/cmsis_gcc.h **** }
 292:./Drivers/CMSIS/Include/cmsis_gcc.h **** 
 293:./Drivers/CMSIS/Include/cmsis_gcc.h **** 
 294:./Drivers/CMSIS/Include/cmsis_gcc.h **** /**
 295:./Drivers/CMSIS/Include/cmsis_gcc.h ****   \brief   Set Fault Mask
 296:./Drivers/CMSIS/Include/cmsis_gcc.h ****   \details Assigns the given value to the Fault Mask register.
 297:./Drivers/CMSIS/Include/cmsis_gcc.h ****   \param [in]    faultMask  Fault Mask value to set
 298:./Drivers/CMSIS/Include/cmsis_gcc.h ****  */
 299:./Drivers/CMSIS/Include/cmsis_gcc.h **** __attribute__( ( always_inline ) ) __STATIC_INLINE void __set_FAULTMASK(uint32_t faultMask)
 300:./Drivers/CMSIS/Include/cmsis_gcc.h **** {
 301:./Drivers/CMSIS/Include/cmsis_gcc.h ****   __ASM volatile ("MSR faultmask, %0" : : "r" (faultMask) : "memory");
 302:./Drivers/CMSIS/Include/cmsis_gcc.h **** }
 303:./Drivers/CMSIS/Include/cmsis_gcc.h **** 
 304:./Drivers/CMSIS/Include/cmsis_gcc.h **** #endif /* (__CORTEX_M >= 0x03U) */
 305:./Drivers/CMSIS/Include/cmsis_gcc.h **** 
 306:./Drivers/CMSIS/Include/cmsis_gcc.h **** 
 307:./Drivers/CMSIS/Include/cmsis_gcc.h **** #if       (__CORTEX_M == 0x04U) || (__CORTEX_M == 0x07U)
 308:./Drivers/CMSIS/Include/cmsis_gcc.h **** 
ARM GAS  /tmp/ccYoZV6o.s 			page 11


 309:./Drivers/CMSIS/Include/cmsis_gcc.h **** /**
 310:./Drivers/CMSIS/Include/cmsis_gcc.h ****   \brief   Get FPSCR
 311:./Drivers/CMSIS/Include/cmsis_gcc.h ****   \details Returns the current value of the Floating Point Status/Control register.
 312:./Drivers/CMSIS/Include/cmsis_gcc.h ****   \return               Floating Point Status/Control register value
 313:./Drivers/CMSIS/Include/cmsis_gcc.h ****  */
 314:./Drivers/CMSIS/Include/cmsis_gcc.h **** __attribute__( ( always_inline ) ) __STATIC_INLINE uint32_t __get_FPSCR(void)
 315:./Drivers/CMSIS/Include/cmsis_gcc.h **** {
 316:./Drivers/CMSIS/Include/cmsis_gcc.h **** #if (__FPU_PRESENT == 1U) && (__FPU_USED == 1U)
 317:./Drivers/CMSIS/Include/cmsis_gcc.h ****   uint32_t result;
 318:./Drivers/CMSIS/Include/cmsis_gcc.h **** 
 319:./Drivers/CMSIS/Include/cmsis_gcc.h ****   /* Empty asm statement works as a scheduling barrier */
 320:./Drivers/CMSIS/Include/cmsis_gcc.h ****   __ASM volatile ("");
 321:./Drivers/CMSIS/Include/cmsis_gcc.h ****   __ASM volatile ("VMRS %0, fpscr" : "=r" (result) );
 322:./Drivers/CMSIS/Include/cmsis_gcc.h ****   __ASM volatile ("");
 323:./Drivers/CMSIS/Include/cmsis_gcc.h ****   return(result);
 324:./Drivers/CMSIS/Include/cmsis_gcc.h **** #else
 325:./Drivers/CMSIS/Include/cmsis_gcc.h ****    return(0);
 326:./Drivers/CMSIS/Include/cmsis_gcc.h **** #endif
 327:./Drivers/CMSIS/Include/cmsis_gcc.h **** }
 328:./Drivers/CMSIS/Include/cmsis_gcc.h **** 
 329:./Drivers/CMSIS/Include/cmsis_gcc.h **** 
 330:./Drivers/CMSIS/Include/cmsis_gcc.h **** /**
 331:./Drivers/CMSIS/Include/cmsis_gcc.h ****   \brief   Set FPSCR
 332:./Drivers/CMSIS/Include/cmsis_gcc.h ****   \details Assigns the given value to the Floating Point Status/Control register.
 333:./Drivers/CMSIS/Include/cmsis_gcc.h ****   \param [in]    fpscr  Floating Point Status/Control value to set
 334:./Drivers/CMSIS/Include/cmsis_gcc.h ****  */
 335:./Drivers/CMSIS/Include/cmsis_gcc.h **** __attribute__( ( always_inline ) ) __STATIC_INLINE void __set_FPSCR(uint32_t fpscr)
 336:./Drivers/CMSIS/Include/cmsis_gcc.h **** {
 337:./Drivers/CMSIS/Include/cmsis_gcc.h **** #if (__FPU_PRESENT == 1U) && (__FPU_USED == 1U)
 338:./Drivers/CMSIS/Include/cmsis_gcc.h ****   /* Empty asm statement works as a scheduling barrier */
 339:./Drivers/CMSIS/Include/cmsis_gcc.h ****   __ASM volatile ("");
 340:./Drivers/CMSIS/Include/cmsis_gcc.h ****   __ASM volatile ("VMSR fpscr, %0" : : "r" (fpscr) : "vfpcc");
 341:./Drivers/CMSIS/Include/cmsis_gcc.h ****   __ASM volatile ("");
 342:./Drivers/CMSIS/Include/cmsis_gcc.h **** #endif
 343:./Drivers/CMSIS/Include/cmsis_gcc.h **** }
 344:./Drivers/CMSIS/Include/cmsis_gcc.h **** 
 345:./Drivers/CMSIS/Include/cmsis_gcc.h **** #endif /* (__CORTEX_M == 0x04U) || (__CORTEX_M == 0x07U) */
 346:./Drivers/CMSIS/Include/cmsis_gcc.h **** 
 347:./Drivers/CMSIS/Include/cmsis_gcc.h **** 
 348:./Drivers/CMSIS/Include/cmsis_gcc.h **** 
 349:./Drivers/CMSIS/Include/cmsis_gcc.h **** /*@} end of CMSIS_Core_RegAccFunctions */
 350:./Drivers/CMSIS/Include/cmsis_gcc.h **** 
 351:./Drivers/CMSIS/Include/cmsis_gcc.h **** 
 352:./Drivers/CMSIS/Include/cmsis_gcc.h **** /* ##########################  Core Instruction Access  ######################### */
 353:./Drivers/CMSIS/Include/cmsis_gcc.h **** /** \defgroup CMSIS_Core_InstructionInterface CMSIS Core Instruction Interface
 354:./Drivers/CMSIS/Include/cmsis_gcc.h ****   Access to dedicated instructions
 355:./Drivers/CMSIS/Include/cmsis_gcc.h ****   @{
 356:./Drivers/CMSIS/Include/cmsis_gcc.h **** */
 357:./Drivers/CMSIS/Include/cmsis_gcc.h **** 
 358:./Drivers/CMSIS/Include/cmsis_gcc.h **** /* Define macros for porting to both thumb1 and thumb2.
 359:./Drivers/CMSIS/Include/cmsis_gcc.h ****  * For thumb1, use low register (r0-r7), specified by constraint "l"
 360:./Drivers/CMSIS/Include/cmsis_gcc.h ****  * Otherwise, use general registers, specified by constraint "r" */
 361:./Drivers/CMSIS/Include/cmsis_gcc.h **** #if defined (__thumb__) && !defined (__thumb2__)
 362:./Drivers/CMSIS/Include/cmsis_gcc.h **** #define __CMSIS_GCC_OUT_REG(r) "=l" (r)
 363:./Drivers/CMSIS/Include/cmsis_gcc.h **** #define __CMSIS_GCC_USE_REG(r) "l" (r)
 364:./Drivers/CMSIS/Include/cmsis_gcc.h **** #else
 365:./Drivers/CMSIS/Include/cmsis_gcc.h **** #define __CMSIS_GCC_OUT_REG(r) "=r" (r)
ARM GAS  /tmp/ccYoZV6o.s 			page 12


 366:./Drivers/CMSIS/Include/cmsis_gcc.h **** #define __CMSIS_GCC_USE_REG(r) "r" (r)
 367:./Drivers/CMSIS/Include/cmsis_gcc.h **** #endif
 368:./Drivers/CMSIS/Include/cmsis_gcc.h **** 
 369:./Drivers/CMSIS/Include/cmsis_gcc.h **** /**
 370:./Drivers/CMSIS/Include/cmsis_gcc.h ****   \brief   No Operation
 371:./Drivers/CMSIS/Include/cmsis_gcc.h ****   \details No Operation does nothing. This instruction can be used for code alignment purposes.
 372:./Drivers/CMSIS/Include/cmsis_gcc.h ****  */
 373:./Drivers/CMSIS/Include/cmsis_gcc.h **** __attribute__((always_inline)) __STATIC_INLINE void __NOP(void)
 374:./Drivers/CMSIS/Include/cmsis_gcc.h **** {
 375:./Drivers/CMSIS/Include/cmsis_gcc.h ****   __ASM volatile ("nop");
 376:./Drivers/CMSIS/Include/cmsis_gcc.h **** }
 377:./Drivers/CMSIS/Include/cmsis_gcc.h **** 
 378:./Drivers/CMSIS/Include/cmsis_gcc.h **** 
 379:./Drivers/CMSIS/Include/cmsis_gcc.h **** /**
 380:./Drivers/CMSIS/Include/cmsis_gcc.h ****   \brief   Wait For Interrupt
 381:./Drivers/CMSIS/Include/cmsis_gcc.h ****   \details Wait For Interrupt is a hint instruction that suspends execution until one of a number o
 382:./Drivers/CMSIS/Include/cmsis_gcc.h ****  */
 383:./Drivers/CMSIS/Include/cmsis_gcc.h **** __attribute__((always_inline)) __STATIC_INLINE void __WFI(void)
 384:./Drivers/CMSIS/Include/cmsis_gcc.h **** {
 385:./Drivers/CMSIS/Include/cmsis_gcc.h ****   __ASM volatile ("wfi");
 386:./Drivers/CMSIS/Include/cmsis_gcc.h **** }
 387:./Drivers/CMSIS/Include/cmsis_gcc.h **** 
 388:./Drivers/CMSIS/Include/cmsis_gcc.h **** 
 389:./Drivers/CMSIS/Include/cmsis_gcc.h **** /**
 390:./Drivers/CMSIS/Include/cmsis_gcc.h ****   \brief   Wait For Event
 391:./Drivers/CMSIS/Include/cmsis_gcc.h ****   \details Wait For Event is a hint instruction that permits the processor to enter
 392:./Drivers/CMSIS/Include/cmsis_gcc.h ****     a low-power state until one of a number of events occurs.
 393:./Drivers/CMSIS/Include/cmsis_gcc.h ****  */
 394:./Drivers/CMSIS/Include/cmsis_gcc.h **** __attribute__((always_inline)) __STATIC_INLINE void __WFE(void)
 395:./Drivers/CMSIS/Include/cmsis_gcc.h **** {
 396:./Drivers/CMSIS/Include/cmsis_gcc.h ****   __ASM volatile ("wfe");
 397:./Drivers/CMSIS/Include/cmsis_gcc.h **** }
 398:./Drivers/CMSIS/Include/cmsis_gcc.h **** 
 399:./Drivers/CMSIS/Include/cmsis_gcc.h **** 
 400:./Drivers/CMSIS/Include/cmsis_gcc.h **** /**
 401:./Drivers/CMSIS/Include/cmsis_gcc.h ****   \brief   Send Event
 402:./Drivers/CMSIS/Include/cmsis_gcc.h ****   \details Send Event is a hint instruction. It causes an event to be signaled to the CPU.
 403:./Drivers/CMSIS/Include/cmsis_gcc.h ****  */
 404:./Drivers/CMSIS/Include/cmsis_gcc.h **** __attribute__((always_inline)) __STATIC_INLINE void __SEV(void)
 405:./Drivers/CMSIS/Include/cmsis_gcc.h **** {
 406:./Drivers/CMSIS/Include/cmsis_gcc.h ****   __ASM volatile ("sev");
 407:./Drivers/CMSIS/Include/cmsis_gcc.h **** }
 408:./Drivers/CMSIS/Include/cmsis_gcc.h **** 
 409:./Drivers/CMSIS/Include/cmsis_gcc.h **** 
 410:./Drivers/CMSIS/Include/cmsis_gcc.h **** /**
 411:./Drivers/CMSIS/Include/cmsis_gcc.h ****   \brief   Instruction Synchronization Barrier
 412:./Drivers/CMSIS/Include/cmsis_gcc.h ****   \details Instruction Synchronization Barrier flushes the pipeline in the processor,
 413:./Drivers/CMSIS/Include/cmsis_gcc.h ****            so that all instructions following the ISB are fetched from cache or memory,
 414:./Drivers/CMSIS/Include/cmsis_gcc.h ****            after the instruction has been completed.
 415:./Drivers/CMSIS/Include/cmsis_gcc.h ****  */
 416:./Drivers/CMSIS/Include/cmsis_gcc.h **** __attribute__((always_inline)) __STATIC_INLINE void __ISB(void)
 417:./Drivers/CMSIS/Include/cmsis_gcc.h **** {
 418:./Drivers/CMSIS/Include/cmsis_gcc.h ****   __ASM volatile ("isb 0xF":::"memory");
 419:./Drivers/CMSIS/Include/cmsis_gcc.h **** }
 420:./Drivers/CMSIS/Include/cmsis_gcc.h **** 
 421:./Drivers/CMSIS/Include/cmsis_gcc.h **** 
 422:./Drivers/CMSIS/Include/cmsis_gcc.h **** /**
ARM GAS  /tmp/ccYoZV6o.s 			page 13


 423:./Drivers/CMSIS/Include/cmsis_gcc.h ****   \brief   Data Synchronization Barrier
 424:./Drivers/CMSIS/Include/cmsis_gcc.h ****   \details Acts as a special kind of Data Memory Barrier.
 425:./Drivers/CMSIS/Include/cmsis_gcc.h ****            It completes when all explicit memory accesses before this instruction complete.
 426:./Drivers/CMSIS/Include/cmsis_gcc.h ****  */
 427:./Drivers/CMSIS/Include/cmsis_gcc.h **** __attribute__((always_inline)) __STATIC_INLINE void __DSB(void)
 428:./Drivers/CMSIS/Include/cmsis_gcc.h **** {
 429:./Drivers/CMSIS/Include/cmsis_gcc.h ****   __ASM volatile ("dsb 0xF":::"memory");
 430:./Drivers/CMSIS/Include/cmsis_gcc.h **** }
 431:./Drivers/CMSIS/Include/cmsis_gcc.h **** 
 432:./Drivers/CMSIS/Include/cmsis_gcc.h **** 
 433:./Drivers/CMSIS/Include/cmsis_gcc.h **** /**
 434:./Drivers/CMSIS/Include/cmsis_gcc.h ****   \brief   Data Memory Barrier
 435:./Drivers/CMSIS/Include/cmsis_gcc.h ****   \details Ensures the apparent order of the explicit memory operations before
 436:./Drivers/CMSIS/Include/cmsis_gcc.h ****            and after the instruction, without ensuring their completion.
 437:./Drivers/CMSIS/Include/cmsis_gcc.h ****  */
 438:./Drivers/CMSIS/Include/cmsis_gcc.h **** __attribute__((always_inline)) __STATIC_INLINE void __DMB(void)
 439:./Drivers/CMSIS/Include/cmsis_gcc.h **** {
 440:./Drivers/CMSIS/Include/cmsis_gcc.h ****   __ASM volatile ("dmb 0xF":::"memory");
 441:./Drivers/CMSIS/Include/cmsis_gcc.h **** }
 442:./Drivers/CMSIS/Include/cmsis_gcc.h **** 
 443:./Drivers/CMSIS/Include/cmsis_gcc.h **** 
 444:./Drivers/CMSIS/Include/cmsis_gcc.h **** /**
 445:./Drivers/CMSIS/Include/cmsis_gcc.h ****   \brief   Reverse byte order (32 bit)
 446:./Drivers/CMSIS/Include/cmsis_gcc.h ****   \details Reverses the byte order in integer value.
 447:./Drivers/CMSIS/Include/cmsis_gcc.h ****   \param [in]    value  Value to reverse
 448:./Drivers/CMSIS/Include/cmsis_gcc.h ****   \return               Reversed value
 449:./Drivers/CMSIS/Include/cmsis_gcc.h ****  */
 450:./Drivers/CMSIS/Include/cmsis_gcc.h **** __attribute__((always_inline)) __STATIC_INLINE uint32_t __REV(uint32_t value)
 451:./Drivers/CMSIS/Include/cmsis_gcc.h **** {
 452:./Drivers/CMSIS/Include/cmsis_gcc.h **** #if (__GNUC__ > 4) || (__GNUC__ == 4 && __GNUC_MINOR__ >= 5)
 453:./Drivers/CMSIS/Include/cmsis_gcc.h ****   return __builtin_bswap32(value);
 454:./Drivers/CMSIS/Include/cmsis_gcc.h **** #else
 455:./Drivers/CMSIS/Include/cmsis_gcc.h ****   uint32_t result;
 456:./Drivers/CMSIS/Include/cmsis_gcc.h **** 
 457:./Drivers/CMSIS/Include/cmsis_gcc.h ****   __ASM volatile ("rev %0, %1" : __CMSIS_GCC_OUT_REG (result) : __CMSIS_GCC_USE_REG (value) );
 458:./Drivers/CMSIS/Include/cmsis_gcc.h ****   return(result);
 459:./Drivers/CMSIS/Include/cmsis_gcc.h **** #endif
 460:./Drivers/CMSIS/Include/cmsis_gcc.h **** }
 461:./Drivers/CMSIS/Include/cmsis_gcc.h **** 
 462:./Drivers/CMSIS/Include/cmsis_gcc.h **** 
 463:./Drivers/CMSIS/Include/cmsis_gcc.h **** /**
 464:./Drivers/CMSIS/Include/cmsis_gcc.h ****   \brief   Reverse byte order (16 bit)
 465:./Drivers/CMSIS/Include/cmsis_gcc.h ****   \details Reverses the byte order in two unsigned short values.
 466:./Drivers/CMSIS/Include/cmsis_gcc.h ****   \param [in]    value  Value to reverse
 467:./Drivers/CMSIS/Include/cmsis_gcc.h ****   \return               Reversed value
 468:./Drivers/CMSIS/Include/cmsis_gcc.h ****  */
 469:./Drivers/CMSIS/Include/cmsis_gcc.h **** __attribute__((always_inline)) __STATIC_INLINE uint32_t __REV16(uint32_t value)
 470:./Drivers/CMSIS/Include/cmsis_gcc.h **** {
 471:./Drivers/CMSIS/Include/cmsis_gcc.h ****   uint32_t result;
 472:./Drivers/CMSIS/Include/cmsis_gcc.h **** 
 473:./Drivers/CMSIS/Include/cmsis_gcc.h ****   __ASM volatile ("rev16 %0, %1" : __CMSIS_GCC_OUT_REG (result) : __CMSIS_GCC_USE_REG (value) );
 474:./Drivers/CMSIS/Include/cmsis_gcc.h ****   return(result);
 475:./Drivers/CMSIS/Include/cmsis_gcc.h **** }
 476:./Drivers/CMSIS/Include/cmsis_gcc.h **** 
 477:./Drivers/CMSIS/Include/cmsis_gcc.h **** 
 478:./Drivers/CMSIS/Include/cmsis_gcc.h **** /**
 479:./Drivers/CMSIS/Include/cmsis_gcc.h ****   \brief   Reverse byte order in signed short value
ARM GAS  /tmp/ccYoZV6o.s 			page 14


 480:./Drivers/CMSIS/Include/cmsis_gcc.h ****   \details Reverses the byte order in a signed short value with sign extension to integer.
 481:./Drivers/CMSIS/Include/cmsis_gcc.h ****   \param [in]    value  Value to reverse
 482:./Drivers/CMSIS/Include/cmsis_gcc.h ****   \return               Reversed value
 483:./Drivers/CMSIS/Include/cmsis_gcc.h ****  */
 484:./Drivers/CMSIS/Include/cmsis_gcc.h **** __attribute__((always_inline)) __STATIC_INLINE int32_t __REVSH(int32_t value)
 485:./Drivers/CMSIS/Include/cmsis_gcc.h **** {
 486:./Drivers/CMSIS/Include/cmsis_gcc.h **** #if (__GNUC__ > 4) || (__GNUC__ == 4 && __GNUC_MINOR__ >= 8)
 487:./Drivers/CMSIS/Include/cmsis_gcc.h ****   return (short)__builtin_bswap16(value);
 488:./Drivers/CMSIS/Include/cmsis_gcc.h **** #else
 489:./Drivers/CMSIS/Include/cmsis_gcc.h ****   int32_t result;
 490:./Drivers/CMSIS/Include/cmsis_gcc.h **** 
 491:./Drivers/CMSIS/Include/cmsis_gcc.h ****   __ASM volatile ("revsh %0, %1" : __CMSIS_GCC_OUT_REG (result) : __CMSIS_GCC_USE_REG (value) );
 492:./Drivers/CMSIS/Include/cmsis_gcc.h ****   return(result);
 493:./Drivers/CMSIS/Include/cmsis_gcc.h **** #endif
 494:./Drivers/CMSIS/Include/cmsis_gcc.h **** }
 495:./Drivers/CMSIS/Include/cmsis_gcc.h **** 
 496:./Drivers/CMSIS/Include/cmsis_gcc.h **** 
 497:./Drivers/CMSIS/Include/cmsis_gcc.h **** /**
 498:./Drivers/CMSIS/Include/cmsis_gcc.h ****   \brief   Rotate Right in unsigned value (32 bit)
 499:./Drivers/CMSIS/Include/cmsis_gcc.h ****   \details Rotate Right (immediate) provides the value of the contents of a register rotated by a v
 500:./Drivers/CMSIS/Include/cmsis_gcc.h ****   \param [in]    value  Value to rotate
 501:./Drivers/CMSIS/Include/cmsis_gcc.h ****   \param [in]    value  Number of Bits to rotate
 502:./Drivers/CMSIS/Include/cmsis_gcc.h ****   \return               Rotated value
 503:./Drivers/CMSIS/Include/cmsis_gcc.h ****  */
 504:./Drivers/CMSIS/Include/cmsis_gcc.h **** __attribute__((always_inline)) __STATIC_INLINE uint32_t __ROR(uint32_t op1, uint32_t op2)
 505:./Drivers/CMSIS/Include/cmsis_gcc.h **** {
 506:./Drivers/CMSIS/Include/cmsis_gcc.h ****   return (op1 >> op2) | (op1 << (32U - op2));
 507:./Drivers/CMSIS/Include/cmsis_gcc.h **** }
 508:./Drivers/CMSIS/Include/cmsis_gcc.h **** 
 509:./Drivers/CMSIS/Include/cmsis_gcc.h **** 
 510:./Drivers/CMSIS/Include/cmsis_gcc.h **** /**
 511:./Drivers/CMSIS/Include/cmsis_gcc.h ****   \brief   Breakpoint
 512:./Drivers/CMSIS/Include/cmsis_gcc.h ****   \details Causes the processor to enter Debug state.
 513:./Drivers/CMSIS/Include/cmsis_gcc.h ****            Debug tools can use this to investigate system state when the instruction at a particula
 514:./Drivers/CMSIS/Include/cmsis_gcc.h ****   \param [in]    value  is ignored by the processor.
 515:./Drivers/CMSIS/Include/cmsis_gcc.h ****                  If required, a debugger can use it to store additional information about the break
 516:./Drivers/CMSIS/Include/cmsis_gcc.h ****  */
 517:./Drivers/CMSIS/Include/cmsis_gcc.h **** #define __BKPT(value)                       __ASM volatile ("bkpt "#value)
 518:./Drivers/CMSIS/Include/cmsis_gcc.h **** 
 519:./Drivers/CMSIS/Include/cmsis_gcc.h **** 
 520:./Drivers/CMSIS/Include/cmsis_gcc.h **** /**
 521:./Drivers/CMSIS/Include/cmsis_gcc.h ****   \brief   Reverse bit order of value
 522:./Drivers/CMSIS/Include/cmsis_gcc.h ****   \details Reverses the bit order of the given value.
 523:./Drivers/CMSIS/Include/cmsis_gcc.h ****   \param [in]    value  Value to reverse
 524:./Drivers/CMSIS/Include/cmsis_gcc.h ****   \return               Reversed value
 525:./Drivers/CMSIS/Include/cmsis_gcc.h ****  */
 526:./Drivers/CMSIS/Include/cmsis_gcc.h **** __attribute__((always_inline)) __STATIC_INLINE uint32_t __RBIT(uint32_t value)
 527:./Drivers/CMSIS/Include/cmsis_gcc.h **** {
 528:./Drivers/CMSIS/Include/cmsis_gcc.h ****   uint32_t result;
 529:./Drivers/CMSIS/Include/cmsis_gcc.h **** 
 530:./Drivers/CMSIS/Include/cmsis_gcc.h **** #if       (__CORTEX_M >= 0x03U) || (__CORTEX_SC >= 300U)
 531:./Drivers/CMSIS/Include/cmsis_gcc.h ****    __ASM volatile ("rbit %0, %1" : "=r" (result) : "r" (value) );
 107              		.loc 2 531 0
 108 0064 4FF48033 		mov	r3, #65536
 109              	@ 531 "./Drivers/CMSIS/Include/cmsis_gcc.h" 1
 110 0068 93FAA3F2 		rbit r2, r3
 111              	@ 0 "" 2
ARM GAS  /tmp/ccYoZV6o.s 			page 15


 112              	.LVL9:
 113              		.thumb
 114              	.LBE21:
 115              	.LBE20:
 157:./Drivers/STM32F1xx_HAL_Driver/Src/stm32f1xx_hal_rcc_ex.c ****       /* RTC Clock selection can be changed only if the Backup Domain is reset */
 158:./Drivers/STM32F1xx_HAL_Driver/Src/stm32f1xx_hal_rcc_ex.c ****       __HAL_RCC_BACKUPRESET_FORCE();
 116              		.loc 1 158 0
 117 006c B2FA82F2 		clz	r2, r2
 118              	.LVL10:
 119 0070 304D     		ldr	r5, .L16+8
 120              	.LVL11:
 121 0072 0127     		movs	r7, #1
 122 0074 45F82270 		str	r7, [r5, r2, lsl #2]
 123              	.LVL12:
 124              	.LBB22:
 125              	.LBB23:
 126              		.loc 2 531 0
 127              	@ 531 "./Drivers/CMSIS/Include/cmsis_gcc.h" 1
 128 0078 93FAA3F3 		rbit r3, r3
 129              	@ 0 "" 2
 130              	.LVL13:
 131              		.thumb
 132              	.LBE23:
 133              	.LBE22:
 159:./Drivers/STM32F1xx_HAL_Driver/Src/stm32f1xx_hal_rcc_ex.c ****       __HAL_RCC_BACKUPRESET_RELEASE();
 134              		.loc 1 159 0
 135 007c B3FA83F3 		clz	r3, r3
 136              	.LVL14:
 137 0080 0022     		movs	r2, #0
 138 0082 45F82320 		str	r2, [r5, r3, lsl #2]
 160:./Drivers/STM32F1xx_HAL_Driver/Src/stm32f1xx_hal_rcc_ex.c ****       /* Restore the Content of BDCR register */
 161:./Drivers/STM32F1xx_HAL_Driver/Src/stm32f1xx_hal_rcc_ex.c ****       RCC->BDCR = temp_reg;
 139              		.loc 1 161 0
 140 0086 0662     		str	r6, [r0, #32]
 162:./Drivers/STM32F1xx_HAL_Driver/Src/stm32f1xx_hal_rcc_ex.c **** 
 163:./Drivers/STM32F1xx_HAL_Driver/Src/stm32f1xx_hal_rcc_ex.c ****       /* Wait for LSERDY if LSE was enabled */
 164:./Drivers/STM32F1xx_HAL_Driver/Src/stm32f1xx_hal_rcc_ex.c ****       if (HAL_IS_BIT_SET(temp_reg, RCC_BDCR_LSEON))
 141              		.loc 1 164 0
 142 0088 11F0010F 		tst	r1, #1
 143 008c 27D0     		beq	.L6
 165:./Drivers/STM32F1xx_HAL_Driver/Src/stm32f1xx_hal_rcc_ex.c ****       {
 166:./Drivers/STM32F1xx_HAL_Driver/Src/stm32f1xx_hal_rcc_ex.c ****         /* Get timeout */
 167:./Drivers/STM32F1xx_HAL_Driver/Src/stm32f1xx_hal_rcc_ex.c ****         tickstart = HAL_GetTick();
 144              		.loc 1 167 0
 145 008e FFF7FEFF 		bl	HAL_GetTick
 146              	.LVL15:
 147 0092 0546     		mov	r5, r0
 148              	.LVL16:
 168:./Drivers/STM32F1xx_HAL_Driver/Src/stm32f1xx_hal_rcc_ex.c ****       
 169:./Drivers/STM32F1xx_HAL_Driver/Src/stm32f1xx_hal_rcc_ex.c ****         /* Wait till LSE is ready */  
 170:./Drivers/STM32F1xx_HAL_Driver/Src/stm32f1xx_hal_rcc_ex.c ****         while(__HAL_RCC_GET_FLAG(RCC_FLAG_LSERDY) == RESET)
 149              		.loc 1 170 0
 150 0094 06E0     		b	.L7
 151              	.LVL17:
 152              	.L10:
 171:./Drivers/STM32F1xx_HAL_Driver/Src/stm32f1xx_hal_rcc_ex.c ****         {
 172:./Drivers/STM32F1xx_HAL_Driver/Src/stm32f1xx_hal_rcc_ex.c ****           if((HAL_GetTick() - tickstart) > RCC_LSE_TIMEOUT_VALUE)
ARM GAS  /tmp/ccYoZV6o.s 			page 16


 153              		.loc 1 172 0
 154 0096 FFF7FEFF 		bl	HAL_GetTick
 155              	.LVL18:
 156 009a 401B     		subs	r0, r0, r5
 157 009c 41F28833 		movw	r3, #5000
 158 00a0 9842     		cmp	r0, r3
 159 00a2 3DD8     		bhi	.L13
 160              	.LVL19:
 161              	.L7:
 162              	.LBB24:
 163              	.LBB25:
 164              		.loc 2 531 0
 165 00a4 0223     		movs	r3, #2
 166              	@ 531 "./Drivers/CMSIS/Include/cmsis_gcc.h" 1
 167 00a6 93FAA3F2 		rbit r2, r3
 168              	@ 0 "" 2
 169              	.LVL20:
 170              		.thumb
 171              	.LBE25:
 172              	.LBE24:
 173              	.LBB26:
 174              	.LBB27:
 175              	@ 531 "./Drivers/CMSIS/Include/cmsis_gcc.h" 1
 176 00aa 93FAA3F3 		rbit r3, r3
 177              	@ 0 "" 2
 178              	.LVL21:
 179              		.thumb
 180              	.LBE27:
 181              	.LBE26:
 170:./Drivers/STM32F1xx_HAL_Driver/Src/stm32f1xx_hal_rcc_ex.c ****         {
 182              		.loc 1 170 0
 183 00ae B3FA83F3 		clz	r3, r3
 184              	.LVL22:
 185 00b2 43F04003 		orr	r3, r3, #64
 186 00b6 5B09     		lsrs	r3, r3, #5
 187 00b8 022B     		cmp	r3, #2
 188 00ba 02D1     		bne	.L8
 170:./Drivers/STM32F1xx_HAL_Driver/Src/stm32f1xx_hal_rcc_ex.c ****         {
 189              		.loc 1 170 0 is_stmt 0 discriminator 4
 190 00bc 1B4B     		ldr	r3, .L16
 191 00be 1A6A     		ldr	r2, [r3, #32]
 192 00c0 01E0     		b	.L9
 193              	.L8:
 170:./Drivers/STM32F1xx_HAL_Driver/Src/stm32f1xx_hal_rcc_ex.c ****         {
 194              		.loc 1 170 0 discriminator 5
 195 00c2 1A4B     		ldr	r3, .L16
 196 00c4 5A6A     		ldr	r2, [r3, #36]
 197              	.L9:
 198              	.LVL23:
 199              	.LBB28:
 200              	.LBB29:
 201              		.loc 2 531 0 is_stmt 1 discriminator 7
 202 00c6 0223     		movs	r3, #2
 203              	@ 531 "./Drivers/CMSIS/Include/cmsis_gcc.h" 1
 204 00c8 93FAA3F3 		rbit r3, r3
 205              	@ 0 "" 2
 206              	.LVL24:
ARM GAS  /tmp/ccYoZV6o.s 			page 17


 207              		.thumb
 208              	.LBE29:
 209              	.LBE28:
 170:./Drivers/STM32F1xx_HAL_Driver/Src/stm32f1xx_hal_rcc_ex.c ****         {
 210              		.loc 1 170 0 discriminator 7
 211 00cc B3FA83F3 		clz	r3, r3
 212              	.LVL25:
 213 00d0 03F01F03 		and	r3, r3, #31
 214 00d4 22FA03F3 		lsr	r3, r2, r3
 215 00d8 13F0010F 		tst	r3, #1
 216 00dc DBD0     		beq	.L10
 217              	.LVL26:
 218              	.L6:
 173:./Drivers/STM32F1xx_HAL_Driver/Src/stm32f1xx_hal_rcc_ex.c ****           {
 174:./Drivers/STM32F1xx_HAL_Driver/Src/stm32f1xx_hal_rcc_ex.c ****             return HAL_TIMEOUT;
 175:./Drivers/STM32F1xx_HAL_Driver/Src/stm32f1xx_hal_rcc_ex.c ****           }      
 176:./Drivers/STM32F1xx_HAL_Driver/Src/stm32f1xx_hal_rcc_ex.c ****         }  
 177:./Drivers/STM32F1xx_HAL_Driver/Src/stm32f1xx_hal_rcc_ex.c ****       }
 178:./Drivers/STM32F1xx_HAL_Driver/Src/stm32f1xx_hal_rcc_ex.c ****     }
 179:./Drivers/STM32F1xx_HAL_Driver/Src/stm32f1xx_hal_rcc_ex.c ****     __HAL_RCC_RTC_CONFIG(PeriphClkInit->RTCClockSelection); 
 219              		.loc 1 179 0
 220 00de 1349     		ldr	r1, .L16
 221 00e0 0B6A     		ldr	r3, [r1, #32]
 222 00e2 23F44072 		bic	r2, r3, #768
 223 00e6 6368     		ldr	r3, [r4, #4]
 224 00e8 1343     		orrs	r3, r3, r2
 225 00ea 0B62     		str	r3, [r1, #32]
 226              	.L2:
 180:./Drivers/STM32F1xx_HAL_Driver/Src/stm32f1xx_hal_rcc_ex.c ****   }
 181:./Drivers/STM32F1xx_HAL_Driver/Src/stm32f1xx_hal_rcc_ex.c **** 
 182:./Drivers/STM32F1xx_HAL_Driver/Src/stm32f1xx_hal_rcc_ex.c ****   /*------------------------------ ADC clock Configuration ------------------*/ 
 183:./Drivers/STM32F1xx_HAL_Driver/Src/stm32f1xx_hal_rcc_ex.c ****   if(((PeriphClkInit->PeriphClockSelection) & RCC_PERIPHCLK_ADC) == RCC_PERIPHCLK_ADC)
 227              		.loc 1 183 0
 228 00ec 2368     		ldr	r3, [r4]
 229 00ee 13F0020F 		tst	r3, #2
 230 00f2 06D0     		beq	.L11
 184:./Drivers/STM32F1xx_HAL_Driver/Src/stm32f1xx_hal_rcc_ex.c ****   {
 185:./Drivers/STM32F1xx_HAL_Driver/Src/stm32f1xx_hal_rcc_ex.c ****     /* Check the parameters */
 186:./Drivers/STM32F1xx_HAL_Driver/Src/stm32f1xx_hal_rcc_ex.c ****     assert_param(IS_RCC_ADCPLLCLK_DIV(PeriphClkInit->AdcClockSelection));
 187:./Drivers/STM32F1xx_HAL_Driver/Src/stm32f1xx_hal_rcc_ex.c ****     
 188:./Drivers/STM32F1xx_HAL_Driver/Src/stm32f1xx_hal_rcc_ex.c ****     /* Configure the ADC clock source */
 189:./Drivers/STM32F1xx_HAL_Driver/Src/stm32f1xx_hal_rcc_ex.c ****     __HAL_RCC_ADC_CONFIG(PeriphClkInit->AdcClockSelection);
 231              		.loc 1 189 0
 232 00f4 0D49     		ldr	r1, .L16
 233 00f6 4B68     		ldr	r3, [r1, #4]
 234 00f8 23F44042 		bic	r2, r3, #49152
 235 00fc A368     		ldr	r3, [r4, #8]
 236 00fe 1343     		orrs	r3, r3, r2
 237 0100 4B60     		str	r3, [r1, #4]
 238              	.L11:
 190:./Drivers/STM32F1xx_HAL_Driver/Src/stm32f1xx_hal_rcc_ex.c ****   }
 191:./Drivers/STM32F1xx_HAL_Driver/Src/stm32f1xx_hal_rcc_ex.c **** 
 192:./Drivers/STM32F1xx_HAL_Driver/Src/stm32f1xx_hal_rcc_ex.c **** #if defined(STM32F105xC) || defined(STM32F107xC)
 193:./Drivers/STM32F1xx_HAL_Driver/Src/stm32f1xx_hal_rcc_ex.c ****   /*------------------------------ I2S2 Configuration ------------------------*/ 
 194:./Drivers/STM32F1xx_HAL_Driver/Src/stm32f1xx_hal_rcc_ex.c ****   if(((PeriphClkInit->PeriphClockSelection) & RCC_PERIPHCLK_I2S2) == RCC_PERIPHCLK_I2S2)
 195:./Drivers/STM32F1xx_HAL_Driver/Src/stm32f1xx_hal_rcc_ex.c ****   {
 196:./Drivers/STM32F1xx_HAL_Driver/Src/stm32f1xx_hal_rcc_ex.c ****     /* Check the parameters */
ARM GAS  /tmp/ccYoZV6o.s 			page 18


 197:./Drivers/STM32F1xx_HAL_Driver/Src/stm32f1xx_hal_rcc_ex.c ****     assert_param(IS_RCC_I2S2CLKSOURCE(PeriphClkInit->I2s2ClockSelection));
 198:./Drivers/STM32F1xx_HAL_Driver/Src/stm32f1xx_hal_rcc_ex.c **** 
 199:./Drivers/STM32F1xx_HAL_Driver/Src/stm32f1xx_hal_rcc_ex.c ****     /* Configure the I2S2 clock source */
 200:./Drivers/STM32F1xx_HAL_Driver/Src/stm32f1xx_hal_rcc_ex.c ****     __HAL_RCC_I2S2_CONFIG(PeriphClkInit->I2s2ClockSelection);
 201:./Drivers/STM32F1xx_HAL_Driver/Src/stm32f1xx_hal_rcc_ex.c ****   }
 202:./Drivers/STM32F1xx_HAL_Driver/Src/stm32f1xx_hal_rcc_ex.c **** 
 203:./Drivers/STM32F1xx_HAL_Driver/Src/stm32f1xx_hal_rcc_ex.c ****   /*------------------------------ I2S3 Configuration ------------------------*/ 
 204:./Drivers/STM32F1xx_HAL_Driver/Src/stm32f1xx_hal_rcc_ex.c ****   if(((PeriphClkInit->PeriphClockSelection) & RCC_PERIPHCLK_I2S3) == RCC_PERIPHCLK_I2S3)
 205:./Drivers/STM32F1xx_HAL_Driver/Src/stm32f1xx_hal_rcc_ex.c ****   {
 206:./Drivers/STM32F1xx_HAL_Driver/Src/stm32f1xx_hal_rcc_ex.c ****     /* Check the parameters */
 207:./Drivers/STM32F1xx_HAL_Driver/Src/stm32f1xx_hal_rcc_ex.c ****     assert_param(IS_RCC_I2S3CLKSOURCE(PeriphClkInit->I2s3ClockSelection));
 208:./Drivers/STM32F1xx_HAL_Driver/Src/stm32f1xx_hal_rcc_ex.c ****     
 209:./Drivers/STM32F1xx_HAL_Driver/Src/stm32f1xx_hal_rcc_ex.c ****     /* Configure the I2S3 clock source */
 210:./Drivers/STM32F1xx_HAL_Driver/Src/stm32f1xx_hal_rcc_ex.c ****     __HAL_RCC_I2S3_CONFIG(PeriphClkInit->I2s3ClockSelection);
 211:./Drivers/STM32F1xx_HAL_Driver/Src/stm32f1xx_hal_rcc_ex.c ****   }
 212:./Drivers/STM32F1xx_HAL_Driver/Src/stm32f1xx_hal_rcc_ex.c **** 
 213:./Drivers/STM32F1xx_HAL_Driver/Src/stm32f1xx_hal_rcc_ex.c ****   /*------------------------------ PLL I2S Configuration ----------------------*/ 
 214:./Drivers/STM32F1xx_HAL_Driver/Src/stm32f1xx_hal_rcc_ex.c ****   /* Check that PLLI2S need to be enabled */
 215:./Drivers/STM32F1xx_HAL_Driver/Src/stm32f1xx_hal_rcc_ex.c ****   if (HAL_IS_BIT_SET(RCC->CFGR2, RCC_CFGR2_I2S2SRC) || HAL_IS_BIT_SET(RCC->CFGR2, RCC_CFGR2_I2S3SRC
 216:./Drivers/STM32F1xx_HAL_Driver/Src/stm32f1xx_hal_rcc_ex.c ****   {
 217:./Drivers/STM32F1xx_HAL_Driver/Src/stm32f1xx_hal_rcc_ex.c ****     /* Update flag to indicate that PLL I2S should be active */
 218:./Drivers/STM32F1xx_HAL_Driver/Src/stm32f1xx_hal_rcc_ex.c ****     pllactive = 1;
 219:./Drivers/STM32F1xx_HAL_Driver/Src/stm32f1xx_hal_rcc_ex.c ****   }
 220:./Drivers/STM32F1xx_HAL_Driver/Src/stm32f1xx_hal_rcc_ex.c **** 
 221:./Drivers/STM32F1xx_HAL_Driver/Src/stm32f1xx_hal_rcc_ex.c ****   /* Check if PLL I2S need to be enabled */
 222:./Drivers/STM32F1xx_HAL_Driver/Src/stm32f1xx_hal_rcc_ex.c ****   if (pllactive == 1)
 223:./Drivers/STM32F1xx_HAL_Driver/Src/stm32f1xx_hal_rcc_ex.c ****   {
 224:./Drivers/STM32F1xx_HAL_Driver/Src/stm32f1xx_hal_rcc_ex.c ****     /* Enable PLL I2S only if not active */
 225:./Drivers/STM32F1xx_HAL_Driver/Src/stm32f1xx_hal_rcc_ex.c ****     if (HAL_IS_BIT_CLR(RCC->CR, RCC_CR_PLL3ON))
 226:./Drivers/STM32F1xx_HAL_Driver/Src/stm32f1xx_hal_rcc_ex.c ****     {
 227:./Drivers/STM32F1xx_HAL_Driver/Src/stm32f1xx_hal_rcc_ex.c ****       /* Check the parameters */
 228:./Drivers/STM32F1xx_HAL_Driver/Src/stm32f1xx_hal_rcc_ex.c ****       assert_param(IS_RCC_PLLI2S_MUL(PeriphClkInit->PLLI2S.PLLI2SMUL));
 229:./Drivers/STM32F1xx_HAL_Driver/Src/stm32f1xx_hal_rcc_ex.c ****       assert_param(IS_RCC_HSE_PREDIV2(PeriphClkInit->PLLI2S.HSEPrediv2Value));
 230:./Drivers/STM32F1xx_HAL_Driver/Src/stm32f1xx_hal_rcc_ex.c **** 
 231:./Drivers/STM32F1xx_HAL_Driver/Src/stm32f1xx_hal_rcc_ex.c ****       /* Prediv2 can be written only when the PLL2 is disabled. */
 232:./Drivers/STM32F1xx_HAL_Driver/Src/stm32f1xx_hal_rcc_ex.c ****       /* Return an error only if new value is different from the programmed value */
 233:./Drivers/STM32F1xx_HAL_Driver/Src/stm32f1xx_hal_rcc_ex.c ****       if (HAL_IS_BIT_SET(RCC->CR,RCC_CR_PLL2ON) && \
 234:./Drivers/STM32F1xx_HAL_Driver/Src/stm32f1xx_hal_rcc_ex.c ****         (__HAL_RCC_HSE_GET_PREDIV2() != PeriphClkInit->PLLI2S.HSEPrediv2Value))
 235:./Drivers/STM32F1xx_HAL_Driver/Src/stm32f1xx_hal_rcc_ex.c ****       {
 236:./Drivers/STM32F1xx_HAL_Driver/Src/stm32f1xx_hal_rcc_ex.c ****         return HAL_ERROR;
 237:./Drivers/STM32F1xx_HAL_Driver/Src/stm32f1xx_hal_rcc_ex.c ****       }
 238:./Drivers/STM32F1xx_HAL_Driver/Src/stm32f1xx_hal_rcc_ex.c **** 
 239:./Drivers/STM32F1xx_HAL_Driver/Src/stm32f1xx_hal_rcc_ex.c ****       /* Configure the HSE prediv2 factor --------------------------------*/
 240:./Drivers/STM32F1xx_HAL_Driver/Src/stm32f1xx_hal_rcc_ex.c ****       __HAL_RCC_HSE_PREDIV2_CONFIG(PeriphClkInit->PLLI2S.HSEPrediv2Value);
 241:./Drivers/STM32F1xx_HAL_Driver/Src/stm32f1xx_hal_rcc_ex.c **** 
 242:./Drivers/STM32F1xx_HAL_Driver/Src/stm32f1xx_hal_rcc_ex.c ****       /* Configure the main PLLI2S multiplication factors. */
 243:./Drivers/STM32F1xx_HAL_Driver/Src/stm32f1xx_hal_rcc_ex.c ****       __HAL_RCC_PLLI2S_CONFIG(PeriphClkInit->PLLI2S.PLLI2SMUL);
 244:./Drivers/STM32F1xx_HAL_Driver/Src/stm32f1xx_hal_rcc_ex.c ****       
 245:./Drivers/STM32F1xx_HAL_Driver/Src/stm32f1xx_hal_rcc_ex.c ****       /* Enable the main PLLI2S. */
 246:./Drivers/STM32F1xx_HAL_Driver/Src/stm32f1xx_hal_rcc_ex.c ****       __HAL_RCC_PLLI2S_ENABLE();
 247:./Drivers/STM32F1xx_HAL_Driver/Src/stm32f1xx_hal_rcc_ex.c ****       
 248:./Drivers/STM32F1xx_HAL_Driver/Src/stm32f1xx_hal_rcc_ex.c ****       /* Get Start Tick*/
 249:./Drivers/STM32F1xx_HAL_Driver/Src/stm32f1xx_hal_rcc_ex.c ****       tickstart = HAL_GetTick();
 250:./Drivers/STM32F1xx_HAL_Driver/Src/stm32f1xx_hal_rcc_ex.c ****       
 251:./Drivers/STM32F1xx_HAL_Driver/Src/stm32f1xx_hal_rcc_ex.c ****       /* Wait till PLLI2S is ready */
 252:./Drivers/STM32F1xx_HAL_Driver/Src/stm32f1xx_hal_rcc_ex.c ****       while(__HAL_RCC_GET_FLAG(RCC_FLAG_PLLI2SRDY)  == RESET)
 253:./Drivers/STM32F1xx_HAL_Driver/Src/stm32f1xx_hal_rcc_ex.c ****       {
ARM GAS  /tmp/ccYoZV6o.s 			page 19


 254:./Drivers/STM32F1xx_HAL_Driver/Src/stm32f1xx_hal_rcc_ex.c ****         if((HAL_GetTick() - tickstart ) > PLLI2S_TIMEOUT_VALUE)
 255:./Drivers/STM32F1xx_HAL_Driver/Src/stm32f1xx_hal_rcc_ex.c ****         {
 256:./Drivers/STM32F1xx_HAL_Driver/Src/stm32f1xx_hal_rcc_ex.c ****           return HAL_TIMEOUT;
 257:./Drivers/STM32F1xx_HAL_Driver/Src/stm32f1xx_hal_rcc_ex.c ****         }
 258:./Drivers/STM32F1xx_HAL_Driver/Src/stm32f1xx_hal_rcc_ex.c ****       }
 259:./Drivers/STM32F1xx_HAL_Driver/Src/stm32f1xx_hal_rcc_ex.c ****     }
 260:./Drivers/STM32F1xx_HAL_Driver/Src/stm32f1xx_hal_rcc_ex.c ****     else
 261:./Drivers/STM32F1xx_HAL_Driver/Src/stm32f1xx_hal_rcc_ex.c ****     {
 262:./Drivers/STM32F1xx_HAL_Driver/Src/stm32f1xx_hal_rcc_ex.c ****       /* Return an error only if user wants to change the PLLI2SMUL whereas PLLI2S is active */
 263:./Drivers/STM32F1xx_HAL_Driver/Src/stm32f1xx_hal_rcc_ex.c ****       if (READ_BIT(RCC->CFGR2, RCC_CFGR2_PLL3MUL) != PeriphClkInit->PLLI2S.PLLI2SMUL)
 264:./Drivers/STM32F1xx_HAL_Driver/Src/stm32f1xx_hal_rcc_ex.c ****       {
 265:./Drivers/STM32F1xx_HAL_Driver/Src/stm32f1xx_hal_rcc_ex.c ****           return HAL_ERROR;
 266:./Drivers/STM32F1xx_HAL_Driver/Src/stm32f1xx_hal_rcc_ex.c ****       }
 267:./Drivers/STM32F1xx_HAL_Driver/Src/stm32f1xx_hal_rcc_ex.c ****     }
 268:./Drivers/STM32F1xx_HAL_Driver/Src/stm32f1xx_hal_rcc_ex.c ****   }
 269:./Drivers/STM32F1xx_HAL_Driver/Src/stm32f1xx_hal_rcc_ex.c **** #endif /* STM32F105xC || STM32F107xC */
 270:./Drivers/STM32F1xx_HAL_Driver/Src/stm32f1xx_hal_rcc_ex.c **** 
 271:./Drivers/STM32F1xx_HAL_Driver/Src/stm32f1xx_hal_rcc_ex.c **** #if defined(STM32F102x6) || defined(STM32F102xB) || defined(STM32F103x6)\
 272:./Drivers/STM32F1xx_HAL_Driver/Src/stm32f1xx_hal_rcc_ex.c ****  || defined(STM32F103xB) || defined(STM32F103xE) || defined(STM32F103xG)\
 273:./Drivers/STM32F1xx_HAL_Driver/Src/stm32f1xx_hal_rcc_ex.c ****  || defined(STM32F105xC) || defined(STM32F107xC)
 274:./Drivers/STM32F1xx_HAL_Driver/Src/stm32f1xx_hal_rcc_ex.c ****   /*------------------------------ USB clock Configuration ------------------*/ 
 275:./Drivers/STM32F1xx_HAL_Driver/Src/stm32f1xx_hal_rcc_ex.c ****   if(((PeriphClkInit->PeriphClockSelection) & RCC_PERIPHCLK_USB) == RCC_PERIPHCLK_USB)
 239              		.loc 1 275 0
 240 0102 2368     		ldr	r3, [r4]
 241 0104 13F0100F 		tst	r3, #16
 242 0108 0CD0     		beq	.L14
 276:./Drivers/STM32F1xx_HAL_Driver/Src/stm32f1xx_hal_rcc_ex.c ****   {
 277:./Drivers/STM32F1xx_HAL_Driver/Src/stm32f1xx_hal_rcc_ex.c ****     /* Check the parameters */
 278:./Drivers/STM32F1xx_HAL_Driver/Src/stm32f1xx_hal_rcc_ex.c ****     assert_param(IS_RCC_USBPLLCLK_DIV(PeriphClkInit->UsbClockSelection));
 279:./Drivers/STM32F1xx_HAL_Driver/Src/stm32f1xx_hal_rcc_ex.c ****     
 280:./Drivers/STM32F1xx_HAL_Driver/Src/stm32f1xx_hal_rcc_ex.c ****     /* Configure the USB clock source */
 281:./Drivers/STM32F1xx_HAL_Driver/Src/stm32f1xx_hal_rcc_ex.c ****     __HAL_RCC_USB_CONFIG(PeriphClkInit->UsbClockSelection);
 243              		.loc 1 281 0
 244 010a 0849     		ldr	r1, .L16
 245 010c 4B68     		ldr	r3, [r1, #4]
 246 010e 23F48002 		bic	r2, r3, #4194304
 247 0112 6369     		ldr	r3, [r4, #20]
 248 0114 1343     		orrs	r3, r3, r2
 249 0116 4B60     		str	r3, [r1, #4]
 282:./Drivers/STM32F1xx_HAL_Driver/Src/stm32f1xx_hal_rcc_ex.c ****   }
 283:./Drivers/STM32F1xx_HAL_Driver/Src/stm32f1xx_hal_rcc_ex.c **** #endif /* STM32F102x6 || STM32F102xB || STM32F103x6 || STM32F103xB || STM32F103xE || STM32F103xG ||
 284:./Drivers/STM32F1xx_HAL_Driver/Src/stm32f1xx_hal_rcc_ex.c **** 
 285:./Drivers/STM32F1xx_HAL_Driver/Src/stm32f1xx_hal_rcc_ex.c ****   return HAL_OK;
 250              		.loc 1 285 0
 251 0118 0020     		movs	r0, #0
 252 011a 04E0     		b	.L4
 253              	.LVL27:
 254              	.L12:
 147:./Drivers/STM32F1xx_HAL_Driver/Src/stm32f1xx_hal_rcc_ex.c ****       }      
 255              		.loc 1 147 0
 256 011c 0320     		movs	r0, #3
 257 011e 02E0     		b	.L4
 258              	.LVL28:
 259              	.L13:
 174:./Drivers/STM32F1xx_HAL_Driver/Src/stm32f1xx_hal_rcc_ex.c ****           }      
 260              		.loc 1 174 0
 261 0120 0320     		movs	r0, #3
ARM GAS  /tmp/ccYoZV6o.s 			page 20


 262 0122 00E0     		b	.L4
 263              	.LVL29:
 264              	.L14:
 265              		.loc 1 285 0
 266 0124 0020     		movs	r0, #0
 267              	.L4:
 286:./Drivers/STM32F1xx_HAL_Driver/Src/stm32f1xx_hal_rcc_ex.c **** }
 268              		.loc 1 286 0
 269 0126 03B0     		add	sp, sp, #12
 270              	.LCFI2:
 271              		.cfi_def_cfa_offset 20
 272              		@ sp needed
 273 0128 F0BD     		pop	{r4, r5, r6, r7, pc}
 274              	.LVL30:
 275              	.L17:
 276 012a 00BF     		.align	2
 277              	.L16:
 278 012c 00100240 		.word	1073876992
 279 0130 00700040 		.word	1073770496
 280 0134 00044242 		.word	1111622656
 281              		.cfi_endproc
 282              	.LFE63:
 284              		.section	.text.HAL_RCCEx_GetPeriphCLKConfig,"ax",%progbits
 285              		.align	2
 286              		.global	HAL_RCCEx_GetPeriphCLKConfig
 287              		.thumb
 288              		.thumb_func
 290              	HAL_RCCEx_GetPeriphCLKConfig:
 291              	.LFB64:
 287:./Drivers/STM32F1xx_HAL_Driver/Src/stm32f1xx_hal_rcc_ex.c **** 
 288:./Drivers/STM32F1xx_HAL_Driver/Src/stm32f1xx_hal_rcc_ex.c **** /**
 289:./Drivers/STM32F1xx_HAL_Driver/Src/stm32f1xx_hal_rcc_ex.c ****   * @brief  Get the PeriphClkInit according to the internal
 290:./Drivers/STM32F1xx_HAL_Driver/Src/stm32f1xx_hal_rcc_ex.c ****   * RCC configuration registers.
 291:./Drivers/STM32F1xx_HAL_Driver/Src/stm32f1xx_hal_rcc_ex.c ****   * @param  PeriphClkInit pointer to an RCC_PeriphCLKInitTypeDef structure that 
 292:./Drivers/STM32F1xx_HAL_Driver/Src/stm32f1xx_hal_rcc_ex.c ****   *         returns the configuration information for the Extended Peripherals clocks(RTC, I2S, ADC
 293:./Drivers/STM32F1xx_HAL_Driver/Src/stm32f1xx_hal_rcc_ex.c ****   * @retval None
 294:./Drivers/STM32F1xx_HAL_Driver/Src/stm32f1xx_hal_rcc_ex.c ****   */
 295:./Drivers/STM32F1xx_HAL_Driver/Src/stm32f1xx_hal_rcc_ex.c **** void HAL_RCCEx_GetPeriphCLKConfig(RCC_PeriphCLKInitTypeDef  *PeriphClkInit)
 296:./Drivers/STM32F1xx_HAL_Driver/Src/stm32f1xx_hal_rcc_ex.c **** {
 292              		.loc 1 296 0
 293              		.cfi_startproc
 294              		@ args = 0, pretend = 0, frame = 0
 295              		@ frame_needed = 0, uses_anonymous_args = 0
 296              		@ link register save eliminated.
 297              	.LVL31:
 297:./Drivers/STM32F1xx_HAL_Driver/Src/stm32f1xx_hal_rcc_ex.c ****   uint32_t srcclk = 0;
 298:./Drivers/STM32F1xx_HAL_Driver/Src/stm32f1xx_hal_rcc_ex.c ****   
 299:./Drivers/STM32F1xx_HAL_Driver/Src/stm32f1xx_hal_rcc_ex.c ****   /* Set all possible values for the extended clock type parameter------------*/
 300:./Drivers/STM32F1xx_HAL_Driver/Src/stm32f1xx_hal_rcc_ex.c ****   PeriphClkInit->PeriphClockSelection = RCC_PERIPHCLK_RTC;
 298              		.loc 1 300 0
 299 0000 0123     		movs	r3, #1
 300 0002 0360     		str	r3, [r0]
 301:./Drivers/STM32F1xx_HAL_Driver/Src/stm32f1xx_hal_rcc_ex.c **** 
 302:./Drivers/STM32F1xx_HAL_Driver/Src/stm32f1xx_hal_rcc_ex.c ****   /* Get the RTC configuration -----------------------------------------------*/
 303:./Drivers/STM32F1xx_HAL_Driver/Src/stm32f1xx_hal_rcc_ex.c ****   srcclk = __HAL_RCC_GET_RTC_SOURCE();
 301              		.loc 1 303 0
 302 0004 0A4B     		ldr	r3, .L19
ARM GAS  /tmp/ccYoZV6o.s 			page 21


 303 0006 1A6A     		ldr	r2, [r3, #32]
 304 0008 02F44072 		and	r2, r2, #768
 305              	.LVL32:
 304:./Drivers/STM32F1xx_HAL_Driver/Src/stm32f1xx_hal_rcc_ex.c ****   /* Source clock is LSE or LSI*/
 305:./Drivers/STM32F1xx_HAL_Driver/Src/stm32f1xx_hal_rcc_ex.c ****   PeriphClkInit->RTCClockSelection = srcclk;
 306              		.loc 1 305 0
 307 000c 4260     		str	r2, [r0, #4]
 306:./Drivers/STM32F1xx_HAL_Driver/Src/stm32f1xx_hal_rcc_ex.c **** 
 307:./Drivers/STM32F1xx_HAL_Driver/Src/stm32f1xx_hal_rcc_ex.c ****   /* Get the ADC clock configuration -----------------------------------------*/
 308:./Drivers/STM32F1xx_HAL_Driver/Src/stm32f1xx_hal_rcc_ex.c ****   PeriphClkInit->PeriphClockSelection |= RCC_PERIPHCLK_ADC;
 308              		.loc 1 308 0
 309 000e 0322     		movs	r2, #3
 310              	.LVL33:
 311 0010 0260     		str	r2, [r0]
 309:./Drivers/STM32F1xx_HAL_Driver/Src/stm32f1xx_hal_rcc_ex.c ****   PeriphClkInit->AdcClockSelection = __HAL_RCC_GET_ADC_SOURCE();
 312              		.loc 1 309 0
 313 0012 5A68     		ldr	r2, [r3, #4]
 314 0014 02F44042 		and	r2, r2, #49152
 315 0018 8260     		str	r2, [r0, #8]
 310:./Drivers/STM32F1xx_HAL_Driver/Src/stm32f1xx_hal_rcc_ex.c **** 
 311:./Drivers/STM32F1xx_HAL_Driver/Src/stm32f1xx_hal_rcc_ex.c **** #if defined(STM32F105xC) || defined(STM32F107xC)
 312:./Drivers/STM32F1xx_HAL_Driver/Src/stm32f1xx_hal_rcc_ex.c ****   /* Get the I2S2 clock configuration -----------------------------------------*/
 313:./Drivers/STM32F1xx_HAL_Driver/Src/stm32f1xx_hal_rcc_ex.c ****   PeriphClkInit->PeriphClockSelection |= RCC_PERIPHCLK_I2S2;
 314:./Drivers/STM32F1xx_HAL_Driver/Src/stm32f1xx_hal_rcc_ex.c ****   PeriphClkInit->I2s2ClockSelection = __HAL_RCC_GET_I2S2_SOURCE();
 315:./Drivers/STM32F1xx_HAL_Driver/Src/stm32f1xx_hal_rcc_ex.c **** 
 316:./Drivers/STM32F1xx_HAL_Driver/Src/stm32f1xx_hal_rcc_ex.c ****   /* Get the I2S3 clock configuration -----------------------------------------*/
 317:./Drivers/STM32F1xx_HAL_Driver/Src/stm32f1xx_hal_rcc_ex.c ****   PeriphClkInit->PeriphClockSelection |= RCC_PERIPHCLK_I2S3;
 318:./Drivers/STM32F1xx_HAL_Driver/Src/stm32f1xx_hal_rcc_ex.c ****   PeriphClkInit->I2s3ClockSelection = __HAL_RCC_GET_I2S3_SOURCE();
 319:./Drivers/STM32F1xx_HAL_Driver/Src/stm32f1xx_hal_rcc_ex.c **** 
 320:./Drivers/STM32F1xx_HAL_Driver/Src/stm32f1xx_hal_rcc_ex.c **** #endif /* STM32F105xC || STM32F107xC */
 321:./Drivers/STM32F1xx_HAL_Driver/Src/stm32f1xx_hal_rcc_ex.c **** 
 322:./Drivers/STM32F1xx_HAL_Driver/Src/stm32f1xx_hal_rcc_ex.c **** #if defined(STM32F103xE) || defined(STM32F103xG)
 323:./Drivers/STM32F1xx_HAL_Driver/Src/stm32f1xx_hal_rcc_ex.c ****   /* Get the I2S2 clock configuration -----------------------------------------*/
 324:./Drivers/STM32F1xx_HAL_Driver/Src/stm32f1xx_hal_rcc_ex.c ****   PeriphClkInit->PeriphClockSelection |= RCC_PERIPHCLK_I2S2;
 325:./Drivers/STM32F1xx_HAL_Driver/Src/stm32f1xx_hal_rcc_ex.c ****   PeriphClkInit->I2s2ClockSelection = RCC_I2S2CLKSOURCE_SYSCLK;
 316              		.loc 1 325 0
 317 001a 0022     		movs	r2, #0
 318 001c C260     		str	r2, [r0, #12]
 326:./Drivers/STM32F1xx_HAL_Driver/Src/stm32f1xx_hal_rcc_ex.c **** 
 327:./Drivers/STM32F1xx_HAL_Driver/Src/stm32f1xx_hal_rcc_ex.c ****   /* Get the I2S3 clock configuration -----------------------------------------*/
 328:./Drivers/STM32F1xx_HAL_Driver/Src/stm32f1xx_hal_rcc_ex.c ****   PeriphClkInit->PeriphClockSelection |= RCC_PERIPHCLK_I2S3;
 329:./Drivers/STM32F1xx_HAL_Driver/Src/stm32f1xx_hal_rcc_ex.c ****   PeriphClkInit->I2s3ClockSelection = RCC_I2S3CLKSOURCE_SYSCLK;
 319              		.loc 1 329 0
 320 001e 0261     		str	r2, [r0, #16]
 330:./Drivers/STM32F1xx_HAL_Driver/Src/stm32f1xx_hal_rcc_ex.c **** 
 331:./Drivers/STM32F1xx_HAL_Driver/Src/stm32f1xx_hal_rcc_ex.c **** #endif /* STM32F103xE || STM32F103xG */
 332:./Drivers/STM32F1xx_HAL_Driver/Src/stm32f1xx_hal_rcc_ex.c **** 
 333:./Drivers/STM32F1xx_HAL_Driver/Src/stm32f1xx_hal_rcc_ex.c **** #if defined(STM32F102x6) || defined(STM32F102xB) || defined(STM32F103x6)\
 334:./Drivers/STM32F1xx_HAL_Driver/Src/stm32f1xx_hal_rcc_ex.c ****  || defined(STM32F103xB) || defined(STM32F103xE) || defined(STM32F103xG)\
 335:./Drivers/STM32F1xx_HAL_Driver/Src/stm32f1xx_hal_rcc_ex.c ****  || defined(STM32F105xC) || defined(STM32F107xC)
 336:./Drivers/STM32F1xx_HAL_Driver/Src/stm32f1xx_hal_rcc_ex.c ****   /* Get the USB clock configuration -----------------------------------------*/
 337:./Drivers/STM32F1xx_HAL_Driver/Src/stm32f1xx_hal_rcc_ex.c ****   PeriphClkInit->PeriphClockSelection |= RCC_PERIPHCLK_USB;
 321              		.loc 1 337 0
 322 0020 1F22     		movs	r2, #31
 323 0022 0260     		str	r2, [r0]
 338:./Drivers/STM32F1xx_HAL_Driver/Src/stm32f1xx_hal_rcc_ex.c ****   PeriphClkInit->UsbClockSelection = __HAL_RCC_GET_USB_SOURCE();
 324              		.loc 1 338 0
ARM GAS  /tmp/ccYoZV6o.s 			page 22


 325 0024 5B68     		ldr	r3, [r3, #4]
 326 0026 03F48003 		and	r3, r3, #4194304
 327 002a 4361     		str	r3, [r0, #20]
 328 002c 7047     		bx	lr
 329              	.L20:
 330 002e 00BF     		.align	2
 331              	.L19:
 332 0030 00100240 		.word	1073876992
 333              		.cfi_endproc
 334              	.LFE64:
 336              		.section	.text.HAL_RCCEx_GetPeriphCLKFreq,"ax",%progbits
 337              		.align	2
 338              		.global	HAL_RCCEx_GetPeriphCLKFreq
 339              		.thumb
 340              		.thumb_func
 342              	HAL_RCCEx_GetPeriphCLKFreq:
 343              	.LFB65:
 339:./Drivers/STM32F1xx_HAL_Driver/Src/stm32f1xx_hal_rcc_ex.c **** #endif /* STM32F102x6 || STM32F102xB || STM32F103x6 || STM32F103xB || STM32F103xE || STM32F103xG ||
 340:./Drivers/STM32F1xx_HAL_Driver/Src/stm32f1xx_hal_rcc_ex.c **** }
 341:./Drivers/STM32F1xx_HAL_Driver/Src/stm32f1xx_hal_rcc_ex.c **** 
 342:./Drivers/STM32F1xx_HAL_Driver/Src/stm32f1xx_hal_rcc_ex.c **** /**
 343:./Drivers/STM32F1xx_HAL_Driver/Src/stm32f1xx_hal_rcc_ex.c ****   * @brief  Returns the peripheral clock frequency
 344:./Drivers/STM32F1xx_HAL_Driver/Src/stm32f1xx_hal_rcc_ex.c ****   * @note   Returns 0 if peripheral clock is unknown
 345:./Drivers/STM32F1xx_HAL_Driver/Src/stm32f1xx_hal_rcc_ex.c ****   * @param  PeriphClk Peripheral clock identifier
 346:./Drivers/STM32F1xx_HAL_Driver/Src/stm32f1xx_hal_rcc_ex.c ****   *         This parameter can be one of the following values:
 347:./Drivers/STM32F1xx_HAL_Driver/Src/stm32f1xx_hal_rcc_ex.c ****   *            @arg @ref RCC_PERIPHCLK_RTC  RTC peripheral clock
 348:./Drivers/STM32F1xx_HAL_Driver/Src/stm32f1xx_hal_rcc_ex.c ****   *            @arg @ref RCC_PERIPHCLK_ADC  ADC peripheral clock
 349:./Drivers/STM32F1xx_HAL_Driver/Src/stm32f1xx_hal_rcc_ex.c ****   @if STM32F103xE
 350:./Drivers/STM32F1xx_HAL_Driver/Src/stm32f1xx_hal_rcc_ex.c ****   *            @arg @ref RCC_PERIPHCLK_I2S2 I2S2 peripheral clock
 351:./Drivers/STM32F1xx_HAL_Driver/Src/stm32f1xx_hal_rcc_ex.c ****   *            @arg @ref RCC_PERIPHCLK_I2S3 I2S3 peripheral clock
 352:./Drivers/STM32F1xx_HAL_Driver/Src/stm32f1xx_hal_rcc_ex.c ****   *            @arg @ref RCC_PERIPHCLK_I2S3 I2S3 peripheral clock
 353:./Drivers/STM32F1xx_HAL_Driver/Src/stm32f1xx_hal_rcc_ex.c ****   @endif
 354:./Drivers/STM32F1xx_HAL_Driver/Src/stm32f1xx_hal_rcc_ex.c ****   @if STM32F103xG
 355:./Drivers/STM32F1xx_HAL_Driver/Src/stm32f1xx_hal_rcc_ex.c ****   *            @arg @ref RCC_PERIPHCLK_I2S2 I2S2 peripheral clock
 356:./Drivers/STM32F1xx_HAL_Driver/Src/stm32f1xx_hal_rcc_ex.c ****   *            @arg @ref RCC_PERIPHCLK_I2S3 I2S3 peripheral clock
 357:./Drivers/STM32F1xx_HAL_Driver/Src/stm32f1xx_hal_rcc_ex.c ****   *            @arg @ref RCC_PERIPHCLK_I2S3 I2S3 peripheral clock
 358:./Drivers/STM32F1xx_HAL_Driver/Src/stm32f1xx_hal_rcc_ex.c ****   *            @arg @ref RCC_PERIPHCLK_I2S2 I2S2 peripheral clock
 359:./Drivers/STM32F1xx_HAL_Driver/Src/stm32f1xx_hal_rcc_ex.c ****   @endif
 360:./Drivers/STM32F1xx_HAL_Driver/Src/stm32f1xx_hal_rcc_ex.c ****   @if STM32F105xC
 361:./Drivers/STM32F1xx_HAL_Driver/Src/stm32f1xx_hal_rcc_ex.c ****   *            @arg @ref RCC_PERIPHCLK_I2S2 I2S2 peripheral clock
 362:./Drivers/STM32F1xx_HAL_Driver/Src/stm32f1xx_hal_rcc_ex.c ****   *            @arg @ref RCC_PERIPHCLK_I2S3 I2S3 peripheral clock
 363:./Drivers/STM32F1xx_HAL_Driver/Src/stm32f1xx_hal_rcc_ex.c ****   *            @arg @ref RCC_PERIPHCLK_I2S3 I2S3 peripheral clock
 364:./Drivers/STM32F1xx_HAL_Driver/Src/stm32f1xx_hal_rcc_ex.c ****   *            @arg @ref RCC_PERIPHCLK_I2S2 I2S2 peripheral clock
 365:./Drivers/STM32F1xx_HAL_Driver/Src/stm32f1xx_hal_rcc_ex.c ****   *            @arg @ref RCC_PERIPHCLK_I2S3 I2S3 peripheral clock
 366:./Drivers/STM32F1xx_HAL_Driver/Src/stm32f1xx_hal_rcc_ex.c ****   *            @arg @ref RCC_PERIPHCLK_I2S3 I2S3 peripheral clock
 367:./Drivers/STM32F1xx_HAL_Driver/Src/stm32f1xx_hal_rcc_ex.c ****   *            @arg @ref RCC_PERIPHCLK_I2S2 I2S2 peripheral clock
 368:./Drivers/STM32F1xx_HAL_Driver/Src/stm32f1xx_hal_rcc_ex.c ****   *            @arg @ref RCC_PERIPHCLK_USB  USB peripheral clock
 369:./Drivers/STM32F1xx_HAL_Driver/Src/stm32f1xx_hal_rcc_ex.c ****   @endif
 370:./Drivers/STM32F1xx_HAL_Driver/Src/stm32f1xx_hal_rcc_ex.c ****   @if STM32F107xC
 371:./Drivers/STM32F1xx_HAL_Driver/Src/stm32f1xx_hal_rcc_ex.c ****   *            @arg @ref RCC_PERIPHCLK_I2S2 I2S2 peripheral clock
 372:./Drivers/STM32F1xx_HAL_Driver/Src/stm32f1xx_hal_rcc_ex.c ****   *            @arg @ref RCC_PERIPHCLK_I2S3 I2S3 peripheral clock
 373:./Drivers/STM32F1xx_HAL_Driver/Src/stm32f1xx_hal_rcc_ex.c ****   *            @arg @ref RCC_PERIPHCLK_I2S3 I2S3 peripheral clock
 374:./Drivers/STM32F1xx_HAL_Driver/Src/stm32f1xx_hal_rcc_ex.c ****   *            @arg @ref RCC_PERIPHCLK_I2S2 I2S2 peripheral clock
 375:./Drivers/STM32F1xx_HAL_Driver/Src/stm32f1xx_hal_rcc_ex.c ****   *            @arg @ref RCC_PERIPHCLK_I2S3 I2S3 peripheral clock
 376:./Drivers/STM32F1xx_HAL_Driver/Src/stm32f1xx_hal_rcc_ex.c ****   *            @arg @ref RCC_PERIPHCLK_I2S3 I2S3 peripheral clock
 377:./Drivers/STM32F1xx_HAL_Driver/Src/stm32f1xx_hal_rcc_ex.c ****   *            @arg @ref RCC_PERIPHCLK_I2S2 I2S2 peripheral clock
 378:./Drivers/STM32F1xx_HAL_Driver/Src/stm32f1xx_hal_rcc_ex.c ****   *            @arg @ref RCC_PERIPHCLK_USB  USB peripheral clock
ARM GAS  /tmp/ccYoZV6o.s 			page 23


 379:./Drivers/STM32F1xx_HAL_Driver/Src/stm32f1xx_hal_rcc_ex.c ****   @endif
 380:./Drivers/STM32F1xx_HAL_Driver/Src/stm32f1xx_hal_rcc_ex.c ****   @if STM32F102xx
 381:./Drivers/STM32F1xx_HAL_Driver/Src/stm32f1xx_hal_rcc_ex.c ****   *            @arg @ref RCC_PERIPHCLK_USB  USB peripheral clock
 382:./Drivers/STM32F1xx_HAL_Driver/Src/stm32f1xx_hal_rcc_ex.c ****   @endif
 383:./Drivers/STM32F1xx_HAL_Driver/Src/stm32f1xx_hal_rcc_ex.c ****   @if STM32F103xx
 384:./Drivers/STM32F1xx_HAL_Driver/Src/stm32f1xx_hal_rcc_ex.c ****   *            @arg @ref RCC_PERIPHCLK_USB  USB peripheral clock
 385:./Drivers/STM32F1xx_HAL_Driver/Src/stm32f1xx_hal_rcc_ex.c ****   @endif
 386:./Drivers/STM32F1xx_HAL_Driver/Src/stm32f1xx_hal_rcc_ex.c ****   * @retval Frequency in Hz (0: means that no available frequency for the peripheral)
 387:./Drivers/STM32F1xx_HAL_Driver/Src/stm32f1xx_hal_rcc_ex.c ****   */
 388:./Drivers/STM32F1xx_HAL_Driver/Src/stm32f1xx_hal_rcc_ex.c **** uint32_t HAL_RCCEx_GetPeriphCLKFreq(uint32_t PeriphClk)
 389:./Drivers/STM32F1xx_HAL_Driver/Src/stm32f1xx_hal_rcc_ex.c **** {
 344              		.loc 1 389 0
 345              		.cfi_startproc
 346              		@ args = 0, pretend = 0, frame = 24
 347              		@ frame_needed = 0, uses_anonymous_args = 0
 348              	.LVL34:
 349 0000 70B5     		push	{r4, r5, r6, lr}
 350              	.LCFI3:
 351              		.cfi_def_cfa_offset 16
 352              		.cfi_offset 4, -16
 353              		.cfi_offset 5, -12
 354              		.cfi_offset 6, -8
 355              		.cfi_offset 14, -4
 356 0002 86B0     		sub	sp, sp, #24
 357              	.LCFI4:
 358              		.cfi_def_cfa_offset 40
 359 0004 0646     		mov	r6, r0
 390:./Drivers/STM32F1xx_HAL_Driver/Src/stm32f1xx_hal_rcc_ex.c **** #if defined(STM32F102x6) || defined(STM32F102xB) || defined(STM32F103x6)\
 391:./Drivers/STM32F1xx_HAL_Driver/Src/stm32f1xx_hal_rcc_ex.c ****  || defined(STM32F103xB) || defined(STM32F103xE) || defined(STM32F103xG)\
 392:./Drivers/STM32F1xx_HAL_Driver/Src/stm32f1xx_hal_rcc_ex.c ****  || defined(STM32F105xC) || defined(STM32F107xC)
 393:./Drivers/STM32F1xx_HAL_Driver/Src/stm32f1xx_hal_rcc_ex.c **** #if defined(STM32F105xC) || defined(STM32F107xC)
 394:./Drivers/STM32F1xx_HAL_Driver/Src/stm32f1xx_hal_rcc_ex.c ****   const uint8_t aPLLMULFactorTable[12] = {0, 0, 4,  5,  6,  7,  8,  9, 0, 0, 0, 13};
 395:./Drivers/STM32F1xx_HAL_Driver/Src/stm32f1xx_hal_rcc_ex.c ****   const uint8_t aPredivFactorTable[16] = { 1, 2,  3,  4,  5,  6,  7,  8, 9,10, 11, 12, 13, 14, 15, 
 396:./Drivers/STM32F1xx_HAL_Driver/Src/stm32f1xx_hal_rcc_ex.c **** #else
 397:./Drivers/STM32F1xx_HAL_Driver/Src/stm32f1xx_hal_rcc_ex.c ****   const uint8_t aPLLMULFactorTable[16] = { 2,  3,  4,  5,  6,  7,  8,  9, 10, 11, 12, 13, 14, 15, 1
 360              		.loc 1 397 0
 361 0006 4B4D     		ldr	r5, .L40
 362 0008 02AC     		add	r4, sp, #8
 363 000a 2868     		ldr	r0, [r5]	@ unaligned
 364              	.LVL35:
 365 000c 6968     		ldr	r1, [r5, #4]	@ unaligned
 366 000e AA68     		ldr	r2, [r5, #8]	@ unaligned
 367 0010 EB68     		ldr	r3, [r5, #12]	@ unaligned
 368 0012 0FC4     		stmia	r4!, {r0, r1, r2, r3}
 398:./Drivers/STM32F1xx_HAL_Driver/Src/stm32f1xx_hal_rcc_ex.c ****   const uint8_t aPredivFactorTable[2] = { 1, 2};
 369              		.loc 1 398 0
 370 0014 2B8A     		ldrh	r3, [r5, #16]	@ unaligned
 371 0016 ADF80430 		strh	r3, [sp, #4]	@ unaligned
 372              	.LVL36:
 399:./Drivers/STM32F1xx_HAL_Driver/Src/stm32f1xx_hal_rcc_ex.c **** #endif
 400:./Drivers/STM32F1xx_HAL_Driver/Src/stm32f1xx_hal_rcc_ex.c **** #endif
 401:./Drivers/STM32F1xx_HAL_Driver/Src/stm32f1xx_hal_rcc_ex.c ****   uint32_t temp_reg = 0, frequency = 0;
 402:./Drivers/STM32F1xx_HAL_Driver/Src/stm32f1xx_hal_rcc_ex.c **** #if defined(STM32F102x6) || defined(STM32F102xB) || defined(STM32F103x6)\
 403:./Drivers/STM32F1xx_HAL_Driver/Src/stm32f1xx_hal_rcc_ex.c ****  || defined(STM32F103xB) || defined(STM32F103xE) || defined(STM32F103xG)\
 404:./Drivers/STM32F1xx_HAL_Driver/Src/stm32f1xx_hal_rcc_ex.c ****  || defined(STM32F105xC) || defined(STM32F107xC)
 405:./Drivers/STM32F1xx_HAL_Driver/Src/stm32f1xx_hal_rcc_ex.c ****   uint32_t prediv1 = 0, pllclk = 0, pllmul = 0;
 406:./Drivers/STM32F1xx_HAL_Driver/Src/stm32f1xx_hal_rcc_ex.c **** #endif /* STM32F102x6 || STM32F102xB || STM32F103x6 || STM32F103xB || STM32F103xE || STM32F103xG ||
ARM GAS  /tmp/ccYoZV6o.s 			page 24


 407:./Drivers/STM32F1xx_HAL_Driver/Src/stm32f1xx_hal_rcc_ex.c **** #if defined(STM32F105xC) || defined(STM32F107xC)
 408:./Drivers/STM32F1xx_HAL_Driver/Src/stm32f1xx_hal_rcc_ex.c ****   uint32_t pll2mul = 0, pll3mul = 0, prediv2 = 0;
 409:./Drivers/STM32F1xx_HAL_Driver/Src/stm32f1xx_hal_rcc_ex.c **** #endif /* STM32F105xC || STM32F107xC */
 410:./Drivers/STM32F1xx_HAL_Driver/Src/stm32f1xx_hal_rcc_ex.c **** 
 411:./Drivers/STM32F1xx_HAL_Driver/Src/stm32f1xx_hal_rcc_ex.c ****   /* Check the parameters */
 412:./Drivers/STM32F1xx_HAL_Driver/Src/stm32f1xx_hal_rcc_ex.c ****   assert_param(IS_RCC_PERIPHCLOCK(PeriphClk));
 413:./Drivers/STM32F1xx_HAL_Driver/Src/stm32f1xx_hal_rcc_ex.c ****   
 414:./Drivers/STM32F1xx_HAL_Driver/Src/stm32f1xx_hal_rcc_ex.c ****   switch (PeriphClk)
 373              		.loc 1 414 0
 374 001a 701E     		subs	r0, r6, #1
 375 001c 0F28     		cmp	r0, #15
 376 001e 79D8     		bhi	.L32
 377 0020 DFE800F0 		tbb	[pc, r0]
 378              	.L24:
 379 0024 4A       		.byte	(.L23-.L24)/2
 380 0025 66       		.byte	(.L25-.L24)/2
 381 0026 78       		.byte	(.L32-.L24)/2
 382 0027 44       		.byte	(.L26-.L24)/2
 383 0028 78       		.byte	(.L32-.L24)/2
 384 0029 78       		.byte	(.L32-.L24)/2
 385 002a 78       		.byte	(.L32-.L24)/2
 386 002b 47       		.byte	(.L27-.L24)/2
 387 002c 78       		.byte	(.L32-.L24)/2
 388 002d 78       		.byte	(.L32-.L24)/2
 389 002e 78       		.byte	(.L32-.L24)/2
 390 002f 78       		.byte	(.L32-.L24)/2
 391 0030 78       		.byte	(.L32-.L24)/2
 392 0031 78       		.byte	(.L32-.L24)/2
 393 0032 78       		.byte	(.L32-.L24)/2
 394 0033 08       		.byte	(.L28-.L24)/2
 395              		.p2align 1
 396              	.L28:
 415:./Drivers/STM32F1xx_HAL_Driver/Src/stm32f1xx_hal_rcc_ex.c ****   {
 416:./Drivers/STM32F1xx_HAL_Driver/Src/stm32f1xx_hal_rcc_ex.c **** #if defined(STM32F102x6) || defined(STM32F102xB) || defined(STM32F103x6)\
 417:./Drivers/STM32F1xx_HAL_Driver/Src/stm32f1xx_hal_rcc_ex.c ****  || defined(STM32F103xB) || defined(STM32F103xE) || defined(STM32F103xG)\
 418:./Drivers/STM32F1xx_HAL_Driver/Src/stm32f1xx_hal_rcc_ex.c ****  || defined(STM32F105xC) || defined(STM32F107xC)
 419:./Drivers/STM32F1xx_HAL_Driver/Src/stm32f1xx_hal_rcc_ex.c ****   case RCC_PERIPHCLK_USB:  
 420:./Drivers/STM32F1xx_HAL_Driver/Src/stm32f1xx_hal_rcc_ex.c ****     {
 421:./Drivers/STM32F1xx_HAL_Driver/Src/stm32f1xx_hal_rcc_ex.c ****       /* Get RCC configuration ------------------------------------------------------*/
 422:./Drivers/STM32F1xx_HAL_Driver/Src/stm32f1xx_hal_rcc_ex.c ****       temp_reg = RCC->CFGR;
 397              		.loc 1 422 0
 398 0034 404B     		ldr	r3, .L40+4
 399 0036 5A68     		ldr	r2, [r3, #4]
 400              	.LVL37:
 423:./Drivers/STM32F1xx_HAL_Driver/Src/stm32f1xx_hal_rcc_ex.c ****   
 424:./Drivers/STM32F1xx_HAL_Driver/Src/stm32f1xx_hal_rcc_ex.c ****       /* Check if PLL is enabled */
 425:./Drivers/STM32F1xx_HAL_Driver/Src/stm32f1xx_hal_rcc_ex.c ****       if (HAL_IS_BIT_SET(RCC->CR,RCC_CR_PLLON))
 401              		.loc 1 425 0
 402 0038 1B68     		ldr	r3, [r3]
 403 003a 13F0807F 		tst	r3, #16777216
 404 003e 6BD0     		beq	.L33
 426:./Drivers/STM32F1xx_HAL_Driver/Src/stm32f1xx_hal_rcc_ex.c ****       {
 427:./Drivers/STM32F1xx_HAL_Driver/Src/stm32f1xx_hal_rcc_ex.c ****         pllmul = aPLLMULFactorTable[(uint32_t)(temp_reg & RCC_CFGR_PLLMULL) >> POSITION_VAL(RCC_CFG
 405              		.loc 1 427 0
 406 0040 02F47013 		and	r3, r2, #3932160
 407              	.LVL38:
 408              	.LBB30:
ARM GAS  /tmp/ccYoZV6o.s 			page 25


 409              	.LBB31:
 410              		.loc 2 531 0
 411 0044 4FF47011 		mov	r1, #3932160
 412              	@ 531 "./Drivers/CMSIS/Include/cmsis_gcc.h" 1
 413 0048 91FAA1F1 		rbit r1, r1
 414              	@ 0 "" 2
 415              	.LVL39:
 416              		.thumb
 417              	.LBE31:
 418              	.LBE30:
 419              		.loc 1 427 0
 420 004c B1FA81F1 		clz	r1, r1
 421              	.LVL40:
 422 0050 CB40     		lsrs	r3, r3, r1
 423 0052 06A9     		add	r1, sp, #24
 424 0054 0B44     		add	r3, r3, r1
 425 0056 13F8103C 		ldrb	r3, [r3, #-16]	@ zero_extendqisi2
 426              	.LVL41:
 428:./Drivers/STM32F1xx_HAL_Driver/Src/stm32f1xx_hal_rcc_ex.c ****         if ((temp_reg & RCC_CFGR_PLLSRC) != RCC_PLLSOURCE_HSI_DIV2)
 427              		.loc 1 428 0
 428 005a 12F48032 		ands	r2, r2, #65536
 429              	.LVL42:
 430 005e 15D0     		beq	.L29
 429:./Drivers/STM32F1xx_HAL_Driver/Src/stm32f1xx_hal_rcc_ex.c ****         {
 430:./Drivers/STM32F1xx_HAL_Driver/Src/stm32f1xx_hal_rcc_ex.c **** #if defined(STM32F105xC) || defined(STM32F107xC) || defined(STM32F100xB)\
 431:./Drivers/STM32F1xx_HAL_Driver/Src/stm32f1xx_hal_rcc_ex.c ****  || defined(STM32F100xE)
 432:./Drivers/STM32F1xx_HAL_Driver/Src/stm32f1xx_hal_rcc_ex.c ****           prediv1 = aPredivFactorTable[(uint32_t)(RCC->CFGR2 & RCC_CFGR2_PREDIV1) >> POSITION_VAL(R
 433:./Drivers/STM32F1xx_HAL_Driver/Src/stm32f1xx_hal_rcc_ex.c **** #else
 434:./Drivers/STM32F1xx_HAL_Driver/Src/stm32f1xx_hal_rcc_ex.c ****           prediv1 = aPredivFactorTable[(uint32_t)(RCC->CFGR & RCC_CFGR_PLLXTPRE) >> POSITION_VAL(RC
 431              		.loc 1 434 0
 432 0060 3549     		ldr	r1, .L40+4
 433 0062 4968     		ldr	r1, [r1, #4]
 434 0064 01F40031 		and	r1, r1, #131072
 435              	.LVL43:
 436              	.LBB32:
 437              	.LBB33:
 438              		.loc 2 531 0
 439 0068 4FF40030 		mov	r0, #131072
 440              	@ 531 "./Drivers/CMSIS/Include/cmsis_gcc.h" 1
 441 006c 90FAA0F0 		rbit r0, r0
 442              	@ 0 "" 2
 443              	.LVL44:
 444              		.thumb
 445              	.LBE33:
 446              	.LBE32:
 447              		.loc 1 434 0
 448 0070 B0FA80F0 		clz	r0, r0
 449              	.LVL45:
 450 0074 C140     		lsrs	r1, r1, r0
 451 0076 06A8     		add	r0, sp, #24
 452 0078 0144     		add	r1, r1, r0
 453 007a 11F8140C 		ldrb	r0, [r1, #-20]	@ zero_extendqisi2
 454              	.LVL46:
 435:./Drivers/STM32F1xx_HAL_Driver/Src/stm32f1xx_hal_rcc_ex.c **** #endif /* STM32F105xC || STM32F107xC || STM32F100xB || STM32F100xE */
 436:./Drivers/STM32F1xx_HAL_Driver/Src/stm32f1xx_hal_rcc_ex.c **** 
 437:./Drivers/STM32F1xx_HAL_Driver/Src/stm32f1xx_hal_rcc_ex.c **** #if defined(STM32F105xC) || defined(STM32F107xC)
 438:./Drivers/STM32F1xx_HAL_Driver/Src/stm32f1xx_hal_rcc_ex.c ****           if(HAL_IS_BIT_SET(RCC->CFGR2, RCC_CFGR2_PREDIV1SRC))
ARM GAS  /tmp/ccYoZV6o.s 			page 26


 439:./Drivers/STM32F1xx_HAL_Driver/Src/stm32f1xx_hal_rcc_ex.c ****           {
 440:./Drivers/STM32F1xx_HAL_Driver/Src/stm32f1xx_hal_rcc_ex.c ****             /* PLL2 selected as Prediv1 source */
 441:./Drivers/STM32F1xx_HAL_Driver/Src/stm32f1xx_hal_rcc_ex.c ****             /* PLLCLK = PLL2CLK / PREDIV1 * PLLMUL with PLL2CLK = HSE/PREDIV2 * PLL2MUL */
 442:./Drivers/STM32F1xx_HAL_Driver/Src/stm32f1xx_hal_rcc_ex.c ****             prediv2 = ((RCC->CFGR2 & RCC_CFGR2_PREDIV2) >> POSITION_VAL(RCC_CFGR2_PREDIV2)) + 1;
 443:./Drivers/STM32F1xx_HAL_Driver/Src/stm32f1xx_hal_rcc_ex.c ****             pll2mul = ((RCC->CFGR2 & RCC_CFGR2_PLL2MUL) >> POSITION_VAL(RCC_CFGR2_PLL2MUL)) + 2;
 444:./Drivers/STM32F1xx_HAL_Driver/Src/stm32f1xx_hal_rcc_ex.c ****             pllclk = (uint32_t)((((HSE_VALUE / prediv2) * pll2mul) / prediv1) * pllmul);
 445:./Drivers/STM32F1xx_HAL_Driver/Src/stm32f1xx_hal_rcc_ex.c ****           }
 446:./Drivers/STM32F1xx_HAL_Driver/Src/stm32f1xx_hal_rcc_ex.c ****           else
 447:./Drivers/STM32F1xx_HAL_Driver/Src/stm32f1xx_hal_rcc_ex.c ****           {
 448:./Drivers/STM32F1xx_HAL_Driver/Src/stm32f1xx_hal_rcc_ex.c ****             /* HSE used as PLL clock source : PLLCLK = HSE/PREDIV1 * PLLMUL */
 449:./Drivers/STM32F1xx_HAL_Driver/Src/stm32f1xx_hal_rcc_ex.c ****             pllclk = (uint32_t)((HSE_VALUE / prediv1) * pllmul);
 450:./Drivers/STM32F1xx_HAL_Driver/Src/stm32f1xx_hal_rcc_ex.c ****           }
 451:./Drivers/STM32F1xx_HAL_Driver/Src/stm32f1xx_hal_rcc_ex.c ****           
 452:./Drivers/STM32F1xx_HAL_Driver/Src/stm32f1xx_hal_rcc_ex.c ****           /* If PLLMUL was set to 13 means that it was to cover the case PLLMUL 6.5 (avoid using fl
 453:./Drivers/STM32F1xx_HAL_Driver/Src/stm32f1xx_hal_rcc_ex.c ****           /* In this case need to divide pllclk by 2 */
 454:./Drivers/STM32F1xx_HAL_Driver/Src/stm32f1xx_hal_rcc_ex.c ****           if (pllmul == aPLLMULFactorTable[(uint32_t)(RCC_CFGR_PLLMULL6_5) >> POSITION_VAL(RCC_CFGR
 455:./Drivers/STM32F1xx_HAL_Driver/Src/stm32f1xx_hal_rcc_ex.c ****           {
 456:./Drivers/STM32F1xx_HAL_Driver/Src/stm32f1xx_hal_rcc_ex.c ****               pllclk = pllclk / 2;
 457:./Drivers/STM32F1xx_HAL_Driver/Src/stm32f1xx_hal_rcc_ex.c ****           }
 458:./Drivers/STM32F1xx_HAL_Driver/Src/stm32f1xx_hal_rcc_ex.c **** #else
 459:./Drivers/STM32F1xx_HAL_Driver/Src/stm32f1xx_hal_rcc_ex.c ****           if ((temp_reg & RCC_CFGR_PLLSRC) != RCC_PLLSOURCE_HSI_DIV2)
 455              		.loc 1 459 0
 456 007e 4AB1     		cbz	r2, .L34
 460:./Drivers/STM32F1xx_HAL_Driver/Src/stm32f1xx_hal_rcc_ex.c ****           {
 461:./Drivers/STM32F1xx_HAL_Driver/Src/stm32f1xx_hal_rcc_ex.c ****             /* HSE used as PLL clock source : PLLCLK = HSE/PREDIV1 * PLLMUL */
 462:./Drivers/STM32F1xx_HAL_Driver/Src/stm32f1xx_hal_rcc_ex.c ****             pllclk = (uint32_t)((HSE_VALUE / prediv1) * pllmul);
 457              		.loc 1 462 0
 458 0080 2E4A     		ldr	r2, .L40+8
 459 0082 B2FBF0F0 		udiv	r0, r2, r0
 460              	.LVL47:
 461 0086 03FB00F0 		mul	r0, r3, r0
 462              	.LVL48:
 463 008a 04E0     		b	.L30
 464              	.LVL49:
 465              	.L29:
 463:./Drivers/STM32F1xx_HAL_Driver/Src/stm32f1xx_hal_rcc_ex.c ****           }
 464:./Drivers/STM32F1xx_HAL_Driver/Src/stm32f1xx_hal_rcc_ex.c **** #endif /* STM32F105xC || STM32F107xC */
 465:./Drivers/STM32F1xx_HAL_Driver/Src/stm32f1xx_hal_rcc_ex.c ****         }
 466:./Drivers/STM32F1xx_HAL_Driver/Src/stm32f1xx_hal_rcc_ex.c ****         else
 467:./Drivers/STM32F1xx_HAL_Driver/Src/stm32f1xx_hal_rcc_ex.c ****         {
 468:./Drivers/STM32F1xx_HAL_Driver/Src/stm32f1xx_hal_rcc_ex.c ****           /* HSI used as PLL clock source : PLLCLK = HSI/2 * PLLMUL */
 469:./Drivers/STM32F1xx_HAL_Driver/Src/stm32f1xx_hal_rcc_ex.c ****           pllclk = (uint32_t)((HSI_VALUE >> 1) * pllmul);
 466              		.loc 1 469 0
 467 008c 2C48     		ldr	r0, .L40+12
 468 008e 00FB03F0 		mul	r0, r0, r3
 469              	.LVL50:
 470 0092 00E0     		b	.L30
 471              	.LVL51:
 472              	.L34:
 405:./Drivers/STM32F1xx_HAL_Driver/Src/stm32f1xx_hal_rcc_ex.c **** #endif /* STM32F102x6 || STM32F102xB || STM32F103x6 || STM32F103xB || STM32F103xE || STM32F103xG ||
 473              		.loc 1 405 0
 474 0094 0020     		movs	r0, #0
 475              	.LVL52:
 476              	.L30:
 470:./Drivers/STM32F1xx_HAL_Driver/Src/stm32f1xx_hal_rcc_ex.c ****         }
 471:./Drivers/STM32F1xx_HAL_Driver/Src/stm32f1xx_hal_rcc_ex.c **** 
 472:./Drivers/STM32F1xx_HAL_Driver/Src/stm32f1xx_hal_rcc_ex.c ****         /* Calcul of the USB frequency*/
ARM GAS  /tmp/ccYoZV6o.s 			page 27


 473:./Drivers/STM32F1xx_HAL_Driver/Src/stm32f1xx_hal_rcc_ex.c **** #if defined(STM32F105xC) || defined(STM32F107xC)
 474:./Drivers/STM32F1xx_HAL_Driver/Src/stm32f1xx_hal_rcc_ex.c ****         /* USBCLK = PLLVCO = (2 x PLLCLK) / USB prescaler */
 475:./Drivers/STM32F1xx_HAL_Driver/Src/stm32f1xx_hal_rcc_ex.c ****         if (__HAL_RCC_GET_USB_SOURCE() == RCC_USBCLKSOURCE_PLL_DIV2)
 476:./Drivers/STM32F1xx_HAL_Driver/Src/stm32f1xx_hal_rcc_ex.c ****         {
 477:./Drivers/STM32F1xx_HAL_Driver/Src/stm32f1xx_hal_rcc_ex.c ****           /* Prescaler of 2 selected for USB */ 
 478:./Drivers/STM32F1xx_HAL_Driver/Src/stm32f1xx_hal_rcc_ex.c ****           frequency = pllclk;
 479:./Drivers/STM32F1xx_HAL_Driver/Src/stm32f1xx_hal_rcc_ex.c ****         }
 480:./Drivers/STM32F1xx_HAL_Driver/Src/stm32f1xx_hal_rcc_ex.c ****         else
 481:./Drivers/STM32F1xx_HAL_Driver/Src/stm32f1xx_hal_rcc_ex.c ****         {
 482:./Drivers/STM32F1xx_HAL_Driver/Src/stm32f1xx_hal_rcc_ex.c ****           /* Prescaler of 3 selected for USB */ 
 483:./Drivers/STM32F1xx_HAL_Driver/Src/stm32f1xx_hal_rcc_ex.c ****           frequency = (2 * pllclk) / 3;
 484:./Drivers/STM32F1xx_HAL_Driver/Src/stm32f1xx_hal_rcc_ex.c ****         }
 485:./Drivers/STM32F1xx_HAL_Driver/Src/stm32f1xx_hal_rcc_ex.c **** #else
 486:./Drivers/STM32F1xx_HAL_Driver/Src/stm32f1xx_hal_rcc_ex.c ****         /* USBCLK = PLLCLK / USB prescaler */
 487:./Drivers/STM32F1xx_HAL_Driver/Src/stm32f1xx_hal_rcc_ex.c ****         if (__HAL_RCC_GET_USB_SOURCE() == RCC_USBCLKSOURCE_PLL)
 477              		.loc 1 487 0
 478 0096 284B     		ldr	r3, .L40+4
 479              	.LVL53:
 480 0098 5B68     		ldr	r3, [r3, #4]
 481 009a 13F4800F 		tst	r3, #4194304
 482 009e 47D1     		bne	.L22
 488:./Drivers/STM32F1xx_HAL_Driver/Src/stm32f1xx_hal_rcc_ex.c ****         {
 489:./Drivers/STM32F1xx_HAL_Driver/Src/stm32f1xx_hal_rcc_ex.c ****           /* No prescaler selected for USB */
 490:./Drivers/STM32F1xx_HAL_Driver/Src/stm32f1xx_hal_rcc_ex.c ****           frequency = pllclk;
 491:./Drivers/STM32F1xx_HAL_Driver/Src/stm32f1xx_hal_rcc_ex.c ****         }
 492:./Drivers/STM32F1xx_HAL_Driver/Src/stm32f1xx_hal_rcc_ex.c ****         else
 493:./Drivers/STM32F1xx_HAL_Driver/Src/stm32f1xx_hal_rcc_ex.c ****         {
 494:./Drivers/STM32F1xx_HAL_Driver/Src/stm32f1xx_hal_rcc_ex.c ****           /* Prescaler of 1.5 selected for USB */ 
 495:./Drivers/STM32F1xx_HAL_Driver/Src/stm32f1xx_hal_rcc_ex.c ****           frequency = (pllclk * 2) / 3;
 483              		.loc 1 495 0
 484 00a0 4000     		lsls	r0, r0, #1
 485              	.LVL54:
 486 00a2 284B     		ldr	r3, .L40+16
 487 00a4 A3FB0030 		umull	r3, r0, r3, r0
 488 00a8 4008     		lsrs	r0, r0, #1
 489              	.LVL55:
 490 00aa 41E0     		b	.L22
 491              	.LVL56:
 492              	.L26:
 496:./Drivers/STM32F1xx_HAL_Driver/Src/stm32f1xx_hal_rcc_ex.c ****         }
 497:./Drivers/STM32F1xx_HAL_Driver/Src/stm32f1xx_hal_rcc_ex.c **** #endif
 498:./Drivers/STM32F1xx_HAL_Driver/Src/stm32f1xx_hal_rcc_ex.c ****       }
 499:./Drivers/STM32F1xx_HAL_Driver/Src/stm32f1xx_hal_rcc_ex.c ****       break;
 500:./Drivers/STM32F1xx_HAL_Driver/Src/stm32f1xx_hal_rcc_ex.c ****     }
 501:./Drivers/STM32F1xx_HAL_Driver/Src/stm32f1xx_hal_rcc_ex.c **** #endif /* STM32F102x6 || STM32F102xB || STM32F103x6 || STM32F103xB || STM32F103xE || STM32F103xG ||
 502:./Drivers/STM32F1xx_HAL_Driver/Src/stm32f1xx_hal_rcc_ex.c **** #if defined(STM32F103xE) || defined(STM32F103xG) || defined(STM32F105xC)\
 503:./Drivers/STM32F1xx_HAL_Driver/Src/stm32f1xx_hal_rcc_ex.c ****  || defined(STM32F107xC)
 504:./Drivers/STM32F1xx_HAL_Driver/Src/stm32f1xx_hal_rcc_ex.c ****   case RCC_PERIPHCLK_I2S2:  
 505:./Drivers/STM32F1xx_HAL_Driver/Src/stm32f1xx_hal_rcc_ex.c ****     {
 506:./Drivers/STM32F1xx_HAL_Driver/Src/stm32f1xx_hal_rcc_ex.c **** #if defined(STM32F103xE) || defined(STM32F103xG)
 507:./Drivers/STM32F1xx_HAL_Driver/Src/stm32f1xx_hal_rcc_ex.c ****       /* SYSCLK used as source clock for I2S2 */
 508:./Drivers/STM32F1xx_HAL_Driver/Src/stm32f1xx_hal_rcc_ex.c ****       frequency = HAL_RCC_GetSysClockFreq();
 493              		.loc 1 508 0
 494 00ac FFF7FEFF 		bl	HAL_RCC_GetSysClockFreq
 495              	.LVL57:
 509:./Drivers/STM32F1xx_HAL_Driver/Src/stm32f1xx_hal_rcc_ex.c **** #else
 510:./Drivers/STM32F1xx_HAL_Driver/Src/stm32f1xx_hal_rcc_ex.c ****       if (__HAL_RCC_GET_I2S2_SOURCE() == RCC_I2S2CLKSOURCE_SYSCLK)
ARM GAS  /tmp/ccYoZV6o.s 			page 28


 511:./Drivers/STM32F1xx_HAL_Driver/Src/stm32f1xx_hal_rcc_ex.c ****       {
 512:./Drivers/STM32F1xx_HAL_Driver/Src/stm32f1xx_hal_rcc_ex.c ****         /* SYSCLK used as source clock for I2S2 */
 513:./Drivers/STM32F1xx_HAL_Driver/Src/stm32f1xx_hal_rcc_ex.c ****         frequency = HAL_RCC_GetSysClockFreq();
 514:./Drivers/STM32F1xx_HAL_Driver/Src/stm32f1xx_hal_rcc_ex.c ****       }
 515:./Drivers/STM32F1xx_HAL_Driver/Src/stm32f1xx_hal_rcc_ex.c ****       else
 516:./Drivers/STM32F1xx_HAL_Driver/Src/stm32f1xx_hal_rcc_ex.c ****       {
 517:./Drivers/STM32F1xx_HAL_Driver/Src/stm32f1xx_hal_rcc_ex.c ****          /* Check if PLLI2S is enabled */
 518:./Drivers/STM32F1xx_HAL_Driver/Src/stm32f1xx_hal_rcc_ex.c ****         if (HAL_IS_BIT_SET(RCC->CR, RCC_CR_PLL3ON))
 519:./Drivers/STM32F1xx_HAL_Driver/Src/stm32f1xx_hal_rcc_ex.c ****         {
 520:./Drivers/STM32F1xx_HAL_Driver/Src/stm32f1xx_hal_rcc_ex.c ****           /* PLLI2SVCO = 2 * PLLI2SCLK = 2 * (HSE/PREDIV2 * PLL3MUL) */
 521:./Drivers/STM32F1xx_HAL_Driver/Src/stm32f1xx_hal_rcc_ex.c ****           prediv2 = ((RCC->CFGR2 & RCC_CFGR2_PREDIV2) >> POSITION_VAL(RCC_CFGR2_PREDIV2)) + 1;
 522:./Drivers/STM32F1xx_HAL_Driver/Src/stm32f1xx_hal_rcc_ex.c ****           pll3mul = ((RCC->CFGR2 & RCC_CFGR2_PLL3MUL) >> POSITION_VAL(RCC_CFGR2_PLL3MUL)) + 2;
 523:./Drivers/STM32F1xx_HAL_Driver/Src/stm32f1xx_hal_rcc_ex.c ****           frequency = (uint32_t)(2 * ((HSE_VALUE / prediv2) * pll3mul));
 524:./Drivers/STM32F1xx_HAL_Driver/Src/stm32f1xx_hal_rcc_ex.c ****         }
 525:./Drivers/STM32F1xx_HAL_Driver/Src/stm32f1xx_hal_rcc_ex.c ****       }
 526:./Drivers/STM32F1xx_HAL_Driver/Src/stm32f1xx_hal_rcc_ex.c **** #endif /* STM32F103xE || STM32F103xG */
 527:./Drivers/STM32F1xx_HAL_Driver/Src/stm32f1xx_hal_rcc_ex.c ****       break;
 496              		.loc 1 527 0
 497 00b0 3EE0     		b	.L22
 498              	.LVL58:
 499              	.L27:
 528:./Drivers/STM32F1xx_HAL_Driver/Src/stm32f1xx_hal_rcc_ex.c ****     }
 529:./Drivers/STM32F1xx_HAL_Driver/Src/stm32f1xx_hal_rcc_ex.c ****   case RCC_PERIPHCLK_I2S3:
 530:./Drivers/STM32F1xx_HAL_Driver/Src/stm32f1xx_hal_rcc_ex.c ****     {
 531:./Drivers/STM32F1xx_HAL_Driver/Src/stm32f1xx_hal_rcc_ex.c **** #if defined(STM32F103xE) || defined(STM32F103xG)
 532:./Drivers/STM32F1xx_HAL_Driver/Src/stm32f1xx_hal_rcc_ex.c ****       /* SYSCLK used as source clock for I2S3 */
 533:./Drivers/STM32F1xx_HAL_Driver/Src/stm32f1xx_hal_rcc_ex.c ****       frequency = HAL_RCC_GetSysClockFreq();
 500              		.loc 1 533 0
 501 00b2 FFF7FEFF 		bl	HAL_RCC_GetSysClockFreq
 502              	.LVL59:
 534:./Drivers/STM32F1xx_HAL_Driver/Src/stm32f1xx_hal_rcc_ex.c **** #else
 535:./Drivers/STM32F1xx_HAL_Driver/Src/stm32f1xx_hal_rcc_ex.c ****       if (__HAL_RCC_GET_I2S3_SOURCE() == RCC_I2S3CLKSOURCE_SYSCLK)
 536:./Drivers/STM32F1xx_HAL_Driver/Src/stm32f1xx_hal_rcc_ex.c ****       {
 537:./Drivers/STM32F1xx_HAL_Driver/Src/stm32f1xx_hal_rcc_ex.c ****         /* SYSCLK used as source clock for I2S3 */
 538:./Drivers/STM32F1xx_HAL_Driver/Src/stm32f1xx_hal_rcc_ex.c ****         frequency = HAL_RCC_GetSysClockFreq();
 539:./Drivers/STM32F1xx_HAL_Driver/Src/stm32f1xx_hal_rcc_ex.c ****       }
 540:./Drivers/STM32F1xx_HAL_Driver/Src/stm32f1xx_hal_rcc_ex.c ****       else
 541:./Drivers/STM32F1xx_HAL_Driver/Src/stm32f1xx_hal_rcc_ex.c ****       {
 542:./Drivers/STM32F1xx_HAL_Driver/Src/stm32f1xx_hal_rcc_ex.c ****          /* Check if PLLI2S is enabled */
 543:./Drivers/STM32F1xx_HAL_Driver/Src/stm32f1xx_hal_rcc_ex.c ****         if (HAL_IS_BIT_SET(RCC->CR, RCC_CR_PLL3ON))
 544:./Drivers/STM32F1xx_HAL_Driver/Src/stm32f1xx_hal_rcc_ex.c ****         {
 545:./Drivers/STM32F1xx_HAL_Driver/Src/stm32f1xx_hal_rcc_ex.c ****           /* PLLI2SVCO = 2 * PLLI2SCLK = 2 * (HSE/PREDIV2 * PLL3MUL) */
 546:./Drivers/STM32F1xx_HAL_Driver/Src/stm32f1xx_hal_rcc_ex.c ****           prediv2 = ((RCC->CFGR2 & RCC_CFGR2_PREDIV2) >> POSITION_VAL(RCC_CFGR2_PREDIV2)) + 1;
 547:./Drivers/STM32F1xx_HAL_Driver/Src/stm32f1xx_hal_rcc_ex.c ****           pll3mul = ((RCC->CFGR2 & RCC_CFGR2_PLL3MUL) >> POSITION_VAL(RCC_CFGR2_PLL3MUL)) + 2;
 548:./Drivers/STM32F1xx_HAL_Driver/Src/stm32f1xx_hal_rcc_ex.c ****           frequency = (uint32_t)(2 * ((HSE_VALUE / prediv2) * pll3mul));
 549:./Drivers/STM32F1xx_HAL_Driver/Src/stm32f1xx_hal_rcc_ex.c ****         }
 550:./Drivers/STM32F1xx_HAL_Driver/Src/stm32f1xx_hal_rcc_ex.c ****       }
 551:./Drivers/STM32F1xx_HAL_Driver/Src/stm32f1xx_hal_rcc_ex.c **** #endif /* STM32F103xE || STM32F103xG */
 552:./Drivers/STM32F1xx_HAL_Driver/Src/stm32f1xx_hal_rcc_ex.c ****       break;
 503              		.loc 1 552 0
 504 00b6 3BE0     		b	.L22
 505              	.LVL60:
 506              	.L23:
 553:./Drivers/STM32F1xx_HAL_Driver/Src/stm32f1xx_hal_rcc_ex.c ****     }
 554:./Drivers/STM32F1xx_HAL_Driver/Src/stm32f1xx_hal_rcc_ex.c **** #endif /* STM32F103xE || STM32F103xG || STM32F105xC || STM32F107xC */
 555:./Drivers/STM32F1xx_HAL_Driver/Src/stm32f1xx_hal_rcc_ex.c ****   case RCC_PERIPHCLK_RTC:  
 556:./Drivers/STM32F1xx_HAL_Driver/Src/stm32f1xx_hal_rcc_ex.c ****     {
ARM GAS  /tmp/ccYoZV6o.s 			page 29


 557:./Drivers/STM32F1xx_HAL_Driver/Src/stm32f1xx_hal_rcc_ex.c ****       /* Get RCC BDCR configuration ------------------------------------------------------*/
 558:./Drivers/STM32F1xx_HAL_Driver/Src/stm32f1xx_hal_rcc_ex.c ****       temp_reg = RCC->BDCR;
 507              		.loc 1 558 0
 508 00b8 1F4B     		ldr	r3, .L40+4
 509 00ba 1B6A     		ldr	r3, [r3, #32]
 510              	.LVL61:
 559:./Drivers/STM32F1xx_HAL_Driver/Src/stm32f1xx_hal_rcc_ex.c **** 
 560:./Drivers/STM32F1xx_HAL_Driver/Src/stm32f1xx_hal_rcc_ex.c ****       /* Check if LSE is ready if RTC clock selection is LSE */
 561:./Drivers/STM32F1xx_HAL_Driver/Src/stm32f1xx_hal_rcc_ex.c ****       if (((temp_reg & RCC_BDCR_RTCSEL) == RCC_RTCCLKSOURCE_LSE) && (HAL_IS_BIT_SET(temp_reg, RCC_B
 511              		.loc 1 561 0
 512 00bc 40F20232 		movw	r2, #770
 513 00c0 1A40     		ands	r2, r2, r3
 514 00c2 B2F5817F 		cmp	r2, #258
 515 00c6 29D0     		beq	.L35
 562:./Drivers/STM32F1xx_HAL_Driver/Src/stm32f1xx_hal_rcc_ex.c ****       {
 563:./Drivers/STM32F1xx_HAL_Driver/Src/stm32f1xx_hal_rcc_ex.c ****         frequency = LSE_VALUE;
 564:./Drivers/STM32F1xx_HAL_Driver/Src/stm32f1xx_hal_rcc_ex.c ****       }
 565:./Drivers/STM32F1xx_HAL_Driver/Src/stm32f1xx_hal_rcc_ex.c ****       /* Check if LSI is ready if RTC clock selection is LSI */
 566:./Drivers/STM32F1xx_HAL_Driver/Src/stm32f1xx_hal_rcc_ex.c ****       else if (((temp_reg & RCC_BDCR_RTCSEL) == RCC_RTCCLKSOURCE_LSI) && (HAL_IS_BIT_SET(RCC->CSR, 
 516              		.loc 1 566 0
 517 00c8 03F44073 		and	r3, r3, #768
 518              	.LVL62:
 519 00cc B3F5007F 		cmp	r3, #512
 520 00d0 04D1     		bne	.L31
 521              		.loc 1 566 0 is_stmt 0 discriminator 1
 522 00d2 194A     		ldr	r2, .L40+4
 523 00d4 526A     		ldr	r2, [r2, #36]
 524 00d6 12F0020F 		tst	r2, #2
 525 00da 22D1     		bne	.L36
 526              	.L31:
 567:./Drivers/STM32F1xx_HAL_Driver/Src/stm32f1xx_hal_rcc_ex.c ****       {
 568:./Drivers/STM32F1xx_HAL_Driver/Src/stm32f1xx_hal_rcc_ex.c ****         frequency = LSI_VALUE;
 569:./Drivers/STM32F1xx_HAL_Driver/Src/stm32f1xx_hal_rcc_ex.c ****       }
 570:./Drivers/STM32F1xx_HAL_Driver/Src/stm32f1xx_hal_rcc_ex.c ****       else if (((temp_reg & RCC_BDCR_RTCSEL) == RCC_RTCCLKSOURCE_HSE_DIV128) && (HAL_IS_BIT_SET(RCC
 527              		.loc 1 570 0 is_stmt 1
 528 00dc B3F5407F 		cmp	r3, #768
 529 00e0 22D1     		bne	.L37
 530              		.loc 1 570 0 is_stmt 0 discriminator 1
 531 00e2 154B     		ldr	r3, .L40+4
 532 00e4 1B68     		ldr	r3, [r3]
 533 00e6 13F4003F 		tst	r3, #131072
 534 00ea 1FD1     		bne	.L38
 571:./Drivers/STM32F1xx_HAL_Driver/Src/stm32f1xx_hal_rcc_ex.c ****       {
 572:./Drivers/STM32F1xx_HAL_Driver/Src/stm32f1xx_hal_rcc_ex.c ****         frequency = HSE_VALUE / 128;
 573:./Drivers/STM32F1xx_HAL_Driver/Src/stm32f1xx_hal_rcc_ex.c ****       }
 574:./Drivers/STM32F1xx_HAL_Driver/Src/stm32f1xx_hal_rcc_ex.c ****       /* Clock not enabled for RTC*/
 575:./Drivers/STM32F1xx_HAL_Driver/Src/stm32f1xx_hal_rcc_ex.c ****       else
 576:./Drivers/STM32F1xx_HAL_Driver/Src/stm32f1xx_hal_rcc_ex.c ****       {
 577:./Drivers/STM32F1xx_HAL_Driver/Src/stm32f1xx_hal_rcc_ex.c ****         frequency = 0;
 535              		.loc 1 577 0 is_stmt 1
 536 00ec 0020     		movs	r0, #0
 537 00ee 1FE0     		b	.L22
 538              	.LVL63:
 539              	.L25:
 578:./Drivers/STM32F1xx_HAL_Driver/Src/stm32f1xx_hal_rcc_ex.c ****       }
 579:./Drivers/STM32F1xx_HAL_Driver/Src/stm32f1xx_hal_rcc_ex.c ****       break;
 580:./Drivers/STM32F1xx_HAL_Driver/Src/stm32f1xx_hal_rcc_ex.c ****     }
ARM GAS  /tmp/ccYoZV6o.s 			page 30


 581:./Drivers/STM32F1xx_HAL_Driver/Src/stm32f1xx_hal_rcc_ex.c ****   case RCC_PERIPHCLK_ADC:  
 582:./Drivers/STM32F1xx_HAL_Driver/Src/stm32f1xx_hal_rcc_ex.c ****     {
 583:./Drivers/STM32F1xx_HAL_Driver/Src/stm32f1xx_hal_rcc_ex.c ****       frequency = HAL_RCC_GetPCLK2Freq() / (((__HAL_RCC_GET_ADC_SOURCE() >> POSITION_VAL(RCC_CFGR_A
 540              		.loc 1 583 0
 541 00f0 FFF7FEFF 		bl	HAL_RCC_GetPCLK2Freq
 542              	.LVL64:
 543 00f4 104B     		ldr	r3, .L40+4
 544 00f6 5B68     		ldr	r3, [r3, #4]
 545 00f8 03F44043 		and	r3, r3, #49152
 546              	.LVL65:
 547              	.LBB34:
 548              	.LBB35:
 549              		.loc 2 531 0
 550 00fc 4FF48042 		mov	r2, #16384
 551              	@ 531 "./Drivers/CMSIS/Include/cmsis_gcc.h" 1
 552 0100 92FAA2F2 		rbit r2, r2
 553              	@ 0 "" 2
 554              	.LVL66:
 555              		.thumb
 556              	.LBE35:
 557              	.LBE34:
 558              		.loc 1 583 0
 559 0104 B2FA82F2 		clz	r2, r2
 560              	.LVL67:
 561 0108 D340     		lsrs	r3, r3, r2
 562 010a 0133     		adds	r3, r3, #1
 563 010c 5B00     		lsls	r3, r3, #1
 564 010e B0FBF3F0 		udiv	r0, r0, r3
 565              	.LVL68:
 584:./Drivers/STM32F1xx_HAL_Driver/Src/stm32f1xx_hal_rcc_ex.c ****       break;
 566              		.loc 1 584 0
 567 0112 0DE0     		b	.L22
 568              	.LVL69:
 569              	.L32:
 401:./Drivers/STM32F1xx_HAL_Driver/Src/stm32f1xx_hal_rcc_ex.c **** #if defined(STM32F102x6) || defined(STM32F102xB) || defined(STM32F103x6)\
 570              		.loc 1 401 0
 571 0114 0020     		movs	r0, #0
 572 0116 0BE0     		b	.L22
 573              	.LVL70:
 574              	.L33:
 575 0118 0020     		movs	r0, #0
 576 011a 09E0     		b	.L22
 577              	.LVL71:
 578              	.L35:
 563:./Drivers/STM32F1xx_HAL_Driver/Src/stm32f1xx_hal_rcc_ex.c ****       }
 579              		.loc 1 563 0
 580 011c 4FF40040 		mov	r0, #32768
 581 0120 06E0     		b	.L22
 582              	.LVL72:
 583              	.L36:
 568:./Drivers/STM32F1xx_HAL_Driver/Src/stm32f1xx_hal_rcc_ex.c ****       }
 584              		.loc 1 568 0
 585 0122 49F64040 		movw	r0, #40000
 586 0126 03E0     		b	.L22
 587              	.L37:
 577:./Drivers/STM32F1xx_HAL_Driver/Src/stm32f1xx_hal_rcc_ex.c ****       }
 588              		.loc 1 577 0
ARM GAS  /tmp/ccYoZV6o.s 			page 31


 589 0128 0020     		movs	r0, #0
 590 012a 01E0     		b	.L22
 591              	.L38:
 572:./Drivers/STM32F1xx_HAL_Driver/Src/stm32f1xx_hal_rcc_ex.c ****       }
 592              		.loc 1 572 0
 593 012c 4FF22440 		movw	r0, #62500
 594              	.LVL73:
 595              	.L22:
 585:./Drivers/STM32F1xx_HAL_Driver/Src/stm32f1xx_hal_rcc_ex.c ****     }
 586:./Drivers/STM32F1xx_HAL_Driver/Src/stm32f1xx_hal_rcc_ex.c ****   default: 
 587:./Drivers/STM32F1xx_HAL_Driver/Src/stm32f1xx_hal_rcc_ex.c ****     {
 588:./Drivers/STM32F1xx_HAL_Driver/Src/stm32f1xx_hal_rcc_ex.c ****       break;
 589:./Drivers/STM32F1xx_HAL_Driver/Src/stm32f1xx_hal_rcc_ex.c ****     }
 590:./Drivers/STM32F1xx_HAL_Driver/Src/stm32f1xx_hal_rcc_ex.c ****   }
 591:./Drivers/STM32F1xx_HAL_Driver/Src/stm32f1xx_hal_rcc_ex.c ****   return(frequency);
 592:./Drivers/STM32F1xx_HAL_Driver/Src/stm32f1xx_hal_rcc_ex.c **** }
 596              		.loc 1 592 0
 597 0130 06B0     		add	sp, sp, #24
 598              	.LCFI5:
 599              		.cfi_def_cfa_offset 16
 600              		@ sp needed
 601 0132 70BD     		pop	{r4, r5, r6, pc}
 602              	.LVL74:
 603              	.L41:
 604              		.align	2
 605              	.L40:
 606 0134 00000000 		.word	.LANCHOR0
 607 0138 00100240 		.word	1073876992
 608 013c 00127A00 		.word	8000000
 609 0140 00093D00 		.word	4000000
 610 0144 ABAAAAAA 		.word	-1431655765
 611              		.cfi_endproc
 612              	.LFE65:
 614              		.section	.rodata
 615              		.align	2
 616              		.set	.LANCHOR0,. + 0
 617              	.LC0:
 618 0000 02       		.byte	2
 619 0001 03       		.byte	3
 620 0002 04       		.byte	4
 621 0003 05       		.byte	5
 622 0004 06       		.byte	6
 623 0005 07       		.byte	7
 624 0006 08       		.byte	8
 625 0007 09       		.byte	9
 626 0008 0A       		.byte	10
 627 0009 0B       		.byte	11
 628 000a 0C       		.byte	12
 629 000b 0D       		.byte	13
 630 000c 0E       		.byte	14
 631 000d 0F       		.byte	15
 632 000e 10       		.byte	16
 633 000f 10       		.byte	16
 634              	.LC1:
 635 0010 01       		.byte	1
 636 0011 02       		.byte	2
 637              		.text
ARM GAS  /tmp/ccYoZV6o.s 			page 32


 638              	.Letext0:
 639              		.file 3 "/usr/include/newlib/machine/_default_types.h"
 640              		.file 4 "/usr/include/newlib/sys/_stdint.h"
 641              		.file 5 "./Drivers/CMSIS/Device/ST/STM32F1xx/Include/stm32f103xe.h"
 642              		.file 6 "./Drivers/CMSIS/Device/ST/STM32F1xx/Include/stm32f1xx.h"
 643              		.file 7 "./Drivers/STM32F1xx_HAL_Driver/Inc/stm32f1xx_hal_def.h"
 644              		.file 8 "./Drivers/STM32F1xx_HAL_Driver/Inc/stm32f1xx_hal_rcc_ex.h"
 645              		.file 9 "./Drivers/STM32F1xx_HAL_Driver/Inc/stm32f1xx_hal.h"
 646              		.file 10 "./Drivers/STM32F1xx_HAL_Driver/Inc/stm32f1xx_hal_rcc.h"
 647              		.file 11 "./Drivers/CMSIS/Include/core_cm3.h"
ARM GAS  /tmp/ccYoZV6o.s 			page 33

